
build/telosb/main.exe:     file format elf32-msp430


Disassembly of section .text:

00004000 <__watchdog_support>:
    4000:	55 42 20 01 	mov.b	&0x0120,r5	
    4004:	35 d0 08 5a 	bis	#23048,	r5	;#0x5a08
    4008:	82 45 38 2c 	mov	r5,	&0x2c38	

0000400c <__init_stack>:
    400c:	31 40 00 39 	mov	#14592,	r1	;#0x3900

00004010 <__do_copy_data>:
    4010:	3f 40 aa 00 	mov	#170,	r15	;#0x00aa
    4014:	0f 93       	tst	r15		
    4016:	08 24       	jz	$+18     	;abs 0x4028
    4018:	92 42 38 2c 20 01 	mov	&0x2c38,&0x0120	
    401e:	2f 83       	decd	r15		
    4020:	9f 4f ea f8 00 11 	mov	-1814(r15),4352(r15);0xf8ea(r15), 0x1100(r15)
    4026:	f8 23       	jnz	$-14     	;abs 0x4018

00004028 <__do_clear_bss>:
    4028:	3f 40 8e 1a 	mov	#6798,	r15	;#0x1a8e
    402c:	0f 93       	tst	r15		
    402e:	07 24       	jz	$+16     	;abs 0x403e
    4030:	92 42 38 2c 20 01 	mov	&0x2c38,&0x0120	
    4036:	1f 83       	dec	r15		
    4038:	cf 43 aa 11 	mov.b	#0,	4522(r15);r3 As==00, 0x11aa(r15)
    403c:	f9 23       	jnz	$-12     	;abs 0x4030

0000403e <main>:
    403e:	31 50 ee ff 	add	#-18,	r1	;#0xffee
    4042:	b0 12 b2 5f 	call	#0x5fb2	
    4046:	47 4f       	mov.b	r15,	r7	
    4048:	3d 40 25 00 	mov	#37,	r13	;#0x0025
    404c:	3e 40 ff 00 	mov	#255,	r14	;#0x00ff
    4050:	3f 40 44 13 	mov	#4932,	r15	;#0x1344
    4054:	b0 12 74 ea 	call	#0xea74	
    4058:	f2 43 f7 24 	mov.b	#-1,	&0x24f7	;r3 As==11
    405c:	f2 43 0b 26 	mov.b	#-1,	&0x260b	;r3 As==11
    4060:	b2 40 80 5a 20 01 	mov	#23168,	&0x0120	;#0x5a80
    4066:	a2 42 60 01 	mov	#4,	&0x0160	;r2 As==10
    406a:	82 43 2e 01 	mov	#0,	&0x012e	;r3 As==00
    406e:	a2 42 80 01 	mov	#4,	&0x0180	;r2 As==10
    4072:	82 43 1e 01 	mov	#0,	&0x011e	;r3 As==00
    4076:	b2 40 20 02 60 01 	mov	#544,	&0x0160	;#0x0220
    407c:	b2 40 20 01 80 01 	mov	#288,	&0x0180	;#0x0120
    4082:	f2 40 84 ff 57 00 	mov.b	#-124,	&0x0057	;#0xff84
    4088:	c2 43 58 00 	mov.b	#0,	&0x0058	;r3 As==00
    408c:	b2 40 00 40 82 01 	mov	#16384,	&0x0182	;#0x4000
    4092:	3b 40 0c 00 	mov	#12,	r11	;#0x000c
    4096:	3d 40 00 08 	mov	#2048,	r13	;#0x0800
    409a:	0e 43       	clr	r14		
    409c:	0c 4d       	mov	r13,	r12	
    409e:	0c de       	bis	r14,	r12	
    40a0:	59 42 57 00 	mov.b	&0x0057,r9	
    40a4:	0a 4c       	mov	r12,	r10	
    40a6:	8a 10       	swpb	r10		
    40a8:	7a f0 07 00 	and.b	#7,	r10	;#0x0007
    40ac:	79 f0 f8 ff 	and.b	#-8,	r9	;#0xfff8
    40b0:	4a d9       	bis.b	r9,	r10	
    40b2:	c2 4a 57 00 	mov.b	r10,	&0x0057	
    40b6:	c2 4c 56 00 	mov.b	r12,	&0x0056	
    40ba:	79 40 03 00 	mov.b	#3,	r9	;#0x0003
    40be:	0a 43       	clr	r10		
    40c0:	08 43       	clr	r8		
    40c2:	0f 3c       	jmp	$+32     	;abs 0x40e2
    40c4:	18 42 90 01 	mov	&0x0190,r8	
    40c8:	38 52       	add	#8,	r8	;r2 As==11
    40ca:	82 48 92 01 	mov	r8,	&0x0192	
    40ce:	b2 f0 fe ff 82 01 	and	#-2,	&0x0182	;#0xfffe
    40d4:	92 b3 82 01 	bit	#1,	&0x0182	;r3 As==01
    40d8:	fd 27       	jz	$-4      	;abs 0x40d4
    40da:	1f 42 70 01 	mov	&0x0170,r15	
    40de:	08 4a       	mov	r10,	r8	
    40e0:	0a 4f       	mov	r15,	r10	
    40e2:	79 53       	add.b	#-1,	r9	;r3 As==11
    40e4:	ef 23       	jnz	$-32     	;abs 0x40c4
    40e6:	0a 88       	sub	r8,	r10	
    40e8:	3a 90 01 04 	cmp	#1025,	r10	;#0x0401
    40ec:	01 2c       	jc	$+4      	;abs 0x40f0
    40ee:	0e 4c       	mov	r12,	r14	
    40f0:	0d 11       	rra	r13		
    40f2:	3b 53       	add	#-1,	r11	;r3 As==11
    40f4:	d3 23       	jnz	$-88     	;abs 0x409c
    40f6:	0f 4e       	mov	r14,	r15	
    40f8:	3f f0 e0 00 	and	#224,	r15	;#0x00e0
    40fc:	3f 90 e0 00 	cmp	#224,	r15	;#0x00e0
    4100:	02 20       	jnz	$+6      	;abs 0x4106
    4102:	3e f0 e0 ff 	and	#-32,	r14	;#0xffe0
    4106:	5c 42 57 00 	mov.b	&0x0057,r12	
    410a:	0d 4e       	mov	r14,	r13	
    410c:	8d 10       	swpb	r13		
    410e:	7d f0 07 00 	and.b	#7,	r13	;#0x0007
    4112:	7c f0 f8 ff 	and.b	#-8,	r12	;#0xfff8
    4116:	4d dc       	bis.b	r12,	r13	
    4118:	c2 4d 57 00 	mov.b	r13,	&0x0057	
    411c:	c2 4e 56 00 	mov.b	r14,	&0x0056	
    4120:	5e 42 57 00 	mov.b	&0x0057,r14	
    4124:	7e f0 07 00 	and.b	#7,	r14	;#0x0007
    4128:	7e d0 80 ff 	bis.b	#-128,	r14	;#0xff80
    412c:	c2 4e 57 00 	mov.b	r14,	&0x0057	
    4130:	e2 42 58 00 	mov.b	#4,	&0x0058	;r2 As==10
    4134:	f2 f0 fd ff 00 00 	and.b	#-3,	&0x0000	;#0xfffd
    413a:	82 43 70 01 	mov	#0,	&0x0170	;r3 As==00
    413e:	b2 40 02 02 60 01 	mov	#514,	&0x0160	;#0x0202
    4144:	82 43 90 01 	mov	#0,	&0x0190	;r3 As==00
    4148:	b2 40 02 01 80 01 	mov	#258,	&0x0180	;#0x0102
    414e:	1e 42 60 01 	mov	&0x0160,r14	
    4152:	3e f0 cf ff 	and	#-49,	r14	;#0xffcf
    4156:	3e d0 20 00 	bis	#32,	r14	;#0x0020
    415a:	82 4e 60 01 	mov	r14,	&0x0160	
    415e:	1e 42 80 01 	mov	&0x0180,r14	
    4162:	3e f0 cf ff 	and	#-49,	r14	;#0xffcf
    4166:	3e d0 20 00 	bis	#32,	r14	;#0x0020
    416a:	82 4e 80 01 	mov	r14,	&0x0180	
    416e:	c2 43 26 00 	mov.b	#0,	&0x0026	;r3 As==00
    4172:	c2 43 2e 00 	mov.b	#0,	&0x002e	;r3 As==00
    4176:	c2 43 1b 00 	mov.b	#0,	&0x001b	;r3 As==00
    417a:	c2 43 1f 00 	mov.b	#0,	&0x001f	;r3 As==00
    417e:	c2 43 33 00 	mov.b	#0,	&0x0033	;r3 As==00
    4182:	c2 43 37 00 	mov.b	#0,	&0x0037	;r3 As==00
    4186:	c2 43 21 00 	mov.b	#0,	&0x0021	;r3 As==00
    418a:	f2 40 e0 ff 22 00 	mov.b	#-32,	&0x0022	;#0xffe0
    4190:	f2 40 30 00 29 00 	mov.b	#48,	&0x0029	;#0x0030
    4196:	f2 40 7b 00 2a 00 	mov.b	#123,	&0x002a	;#0x007b
    419c:	c2 43 19 00 	mov.b	#0,	&0x0019	;r3 As==00
    41a0:	f2 40 f1 ff 1a 00 	mov.b	#-15,	&0x001a	;#0xfff1
    41a6:	f2 40 dd ff 1d 00 	mov.b	#-35,	&0x001d	;#0xffdd
    41ac:	f2 40 fd ff 1e 00 	mov.b	#-3,	&0x001e	;#0xfffd
    41b2:	f2 43 31 00 	mov.b	#-1,	&0x0031	;r3 As==11
    41b6:	f2 43 32 00 	mov.b	#-1,	&0x0032	;r3 As==11
    41ba:	c2 43 35 00 	mov.b	#0,	&0x0035	;r3 As==00
    41be:	f2 43 36 00 	mov.b	#-1,	&0x0036	;r3 As==11
    41c2:	c2 43 25 00 	mov.b	#0,	&0x0025	;r3 As==00
    41c6:	c2 43 2d 00 	mov.b	#0,	&0x002d	;r3 As==00
    41ca:	1f 42 70 01 	mov	&0x0170,r15	
    41ce:	1e 42 70 01 	mov	&0x0170,r14	
    41d2:	0e 8f       	sub	r15,	r14	
    41d4:	3e 90 01 28 	cmp	#10241,	r14	;#0x2801
    41d8:	fa 2b       	jnc	$-10     	;abs 0x41ce
    41da:	e2 d3 1a 00 	bis.b	#2,	&0x001a	;r3 As==10
    41de:	f2 d2 1a 00 	bis.b	#8,	&0x001a	;r2 As==11
    41e2:	f2 d0 80 ff 1e 00 	bis.b	#-128,	&0x001e	;#0xff80
    41e8:	f2 d0 10 00 1e 00 	bis.b	#16,	&0x001e	;#0x0010
    41ee:	f2 d0 80 ff 1d 00 	bis.b	#-128,	&0x001d	;#0xff80
    41f4:	f2 d0 10 00 1d 00 	bis.b	#16,	&0x001d	;#0x0010
    41fa:	03 43       	nop			
    41fc:	03 43       	nop			
    41fe:	f2 f0 ef ff 1d 00 	and.b	#-17,	&0x001d	;#0xffef
    4204:	f2 f0 f7 ff 19 00 	and.b	#-9,	&0x0019	;#0xfff7
    420a:	5f 43       	mov.b	#1,	r15	;r3 As==01
    420c:	b0 12 cc 4a 	call	#0x4acc	
    4210:	4f 43       	clr.b	r15		
    4212:	b0 12 cc 4a 	call	#0x4acc	
    4216:	5f 43       	mov.b	#1,	r15	;r3 As==01
    4218:	b0 12 cc 4a 	call	#0x4acc	
    421c:	5f 43       	mov.b	#1,	r15	;r3 As==01
    421e:	b0 12 cc 4a 	call	#0x4acc	
    4222:	5f 43       	mov.b	#1,	r15	;r3 As==01
    4224:	b0 12 cc 4a 	call	#0x4acc	
    4228:	4f 43       	clr.b	r15		
    422a:	b0 12 cc 4a 	call	#0x4acc	
    422e:	4f 43       	clr.b	r15		
    4230:	b0 12 cc 4a 	call	#0x4acc	
    4234:	5f 43       	mov.b	#1,	r15	;r3 As==01
    4236:	b0 12 cc 4a 	call	#0x4acc	
    423a:	f2 d0 10 00 1d 00 	bis.b	#16,	&0x001d	;#0x0010
    4240:	f2 d2 19 00 	bis.b	#8,	&0x0019	;r2 As==11
    4244:	e2 d3 19 00 	bis.b	#2,	&0x0019	;r3 As==10
    4248:	f2 d0 10 00 32 00 	bis.b	#16,	&0x0032	;#0x0010
    424e:	f2 d0 20 00 32 00 	bis.b	#32,	&0x0032	;#0x0020
    4254:	f2 d0 40 00 32 00 	bis.b	#64,	&0x0032	;#0x0040
    425a:	f2 d0 10 00 31 00 	bis.b	#16,	&0x0031	;#0x0010
    4260:	f2 d0 20 00 31 00 	bis.b	#32,	&0x0031	;#0x0020
    4266:	f2 d0 40 00 31 00 	bis.b	#64,	&0x0031	;#0x0040
    426c:	b0 12 3a c7 	call	#0xc73a	
    4270:	4f 93       	tst.b	r15		
    4272:	fc 23       	jnz	$-6      	;abs 0x426c
    4274:	f2 43 1a 25 	mov.b	#-1,	&0x251a	;r3 As==11
    4278:	f2 d0 10 00 1e 00 	bis.b	#16,	&0x001e	;#0x0010
    427e:	f2 d0 80 ff 1e 00 	bis.b	#-128,	&0x001e	;#0xff80
    4284:	b0 12 6e 8d 	call	#0x8d6e	
    4288:	f2 d0 80 ff 1d 00 	bis.b	#-128,	&0x001d	;#0xff80
    428e:	5f 43       	mov.b	#1,	r15	;r3 As==01
    4290:	b0 12 a2 83 	call	#0x83a2	
    4294:	4f 93       	tst.b	r15		
    4296:	02 20       	jnz	$+6      	;abs 0x429c
    4298:	d2 43 aa 11 	mov.b	#1,	&0x11aa	;r3 As==01
    429c:	b2 40 14 13 f8 24 	mov	#4884,	&0x24f8	;#0x1314
    42a2:	c2 43 e1 1b 	mov.b	#0,	&0x1be1	;r3 As==00
    42a6:	b0 12 3a 4a 	call	#0x4a3a	
    42aa:	82 43 a8 01 	mov	#0,	&0x01a8	;r3 As==00
    42ae:	82 43 a4 01 	mov	#0,	&0x01a4	;r3 As==00
    42b2:	b0 12 14 48 	call	#0x4814	
    42b6:	3f d0 0c 00 	bis	#12,	r15	;#0x000c
    42ba:	b0 12 0e 48 	call	#0x480e	
    42be:	3d 42       	mov	#8,	r13	;r2 As==11
    42c0:	0e 43       	clr	r14		
    42c2:	3f 40 0c 26 	mov	#9740,	r15	;#0x260c
    42c6:	b0 12 74 ea 	call	#0xea74	
    42ca:	b2 40 52 16 c4 13 	mov	#5714,	&0x13c4	;#0x1652
    42d0:	b2 40 c6 16 c6 13 	mov	#5830,	&0x13c6	;#0x16c6
    42d6:	b2 40 3a 17 c8 13 	mov	#5946,	&0x13c8	;#0x173a
    42dc:	b2 40 ae 17 ca 13 	mov	#6062,	&0x13ca	;#0x17ae
    42e2:	b2 40 22 18 cc 13 	mov	#6178,	&0x13cc	;#0x1822
    42e8:	f2 40 05 00 82 12 	mov.b	#5,	&0x1282	;#0x0005
    42ee:	c2 43 f4 1c 	mov.b	#0,	&0x1cf4	;r3 As==00
    42f2:	b2 40 a0 1c 5a 12 	mov	#7328,	&0x125a	;#0x1ca0
    42f8:	b2 40 a8 1c 5c 12 	mov	#7336,	&0x125c	;#0x1ca8
    42fe:	b2 40 b0 1c 5e 12 	mov	#7344,	&0x125e	;#0x1cb0
    4304:	f2 40 03 00 8e 13 	mov.b	#3,	&0x138e	;#0x0003
    430a:	c2 43 54 26 	mov.b	#0,	&0x2654	;r3 As==00
    430e:	b2 40 d0 25 10 25 	mov	#9680,	&0x2510	;#0x25d0
    4314:	b2 40 d8 25 12 25 	mov	#9688,	&0x2512	;#0x25d8
    431a:	b2 40 e0 25 14 25 	mov	#9696,	&0x2514	;#0x25e0
    4320:	f2 40 03 00 ac 13 	mov.b	#3,	&0x13ac	;#0x0003
    4326:	c2 43 8d 12 	mov.b	#0,	&0x128d	;r3 As==00
    432a:	3c 40 22 26 	mov	#9762,	r12	;#0x2622
    432e:	0d 43       	clr	r13		
    4330:	0e 4d       	mov	r13,	r14	
    4332:	0e 5e       	rla	r14		
    4334:	0e 5e       	rla	r14		
    4336:	3e 50 b8 1c 	add	#7352,	r14	;#0x1cb8
    433a:	8c 4e 00 00 	mov	r14,	0(r12)	;0x0000(r12)
    433e:	1d 53       	inc	r13		
    4340:	2c 53       	incd	r12		
    4342:	3d 90 0c 00 	cmp	#12,	r13	;#0x000c
    4346:	f4 23       	jnz	$-22     	;abs 0x4330
    4348:	f2 40 0c 00 9a 18 	mov.b	#12,	&0x189a	;#0x000c
    434e:	c2 43 96 25 	mov.b	#0,	&0x2596	;r3 As==00
    4352:	3d 40 08 1d 	mov	#7432,	r13	;#0x1d08
    4356:	0e 43       	clr	r14		
    4358:	02 12       	push	r2		
    435a:	32 c2       	dint			
    435c:	03 43       	nop			
    435e:	82 4e 32 01 	mov	r14,	&0x0132	
    4362:	b2 40 8c 00 38 01 	mov	#140,	&0x0138	;#0x008c
    4368:	1f 42 3a 01 	mov	&0x013a,r15	
    436c:	32 41       	pop	r2		
    436e:	3f 50 68 1d 	add	#7528,	r15	;#0x1d68
    4372:	8d 4f 00 00 	mov	r15,	0(r13)	;0x0000(r13)
    4376:	1e 53       	inc	r14		
    4378:	2d 53       	incd	r13		
    437a:	3e 90 0c 00 	cmp	#12,	r14	;#0x000c
    437e:	ec 23       	jnz	$-38     	;abs 0x4358
    4380:	f2 40 0c 00 9b 18 	mov.b	#12,	&0x189b	;#0x000c
    4386:	c2 43 e2 15 	mov.b	#0,	&0x15e2	;r3 As==00
    438a:	b2 43 6e 12 	mov	#-1,	&0x126e	;r3 As==11
    438e:	c2 43 70 12 	mov.b	#0,	&0x1270	;r3 As==00
    4392:	b2 43 72 12 	mov	#-1,	&0x1272	;r3 As==11
    4396:	c2 43 74 12 	mov.b	#0,	&0x1274	;r3 As==00
    439a:	b2 43 76 12 	mov	#-1,	&0x1276	;r3 As==11
    439e:	c2 43 78 12 	mov.b	#0,	&0x1278	;r3 As==00
    43a2:	b2 43 7a 12 	mov	#-1,	&0x127a	;r3 As==11
    43a6:	c2 43 7c 12 	mov.b	#0,	&0x127c	;r3 As==00
    43aa:	b0 12 92 84 	call	#0x8492	
    43ae:	c2 4e 0e 24 	mov.b	r14,	&0x240e	
    43b2:	b2 40 6a 24 2c 12 	mov	#9322,	&0x122c	;#0x246a
    43b8:	f2 f0 ef ff 22 00 	and.b	#-17,	&0x0022	;#0xffef
    43be:	e2 d2 1e 00 	bis.b	#4,	&0x001e	;r2 As==10
    43c2:	f2 f0 fd ff 1e 00 	and.b	#-3,	&0x001e	;#0xfffd
    43c8:	b2 f0 ef ff 82 01 	and	#-17,	&0x0182	;#0xffef
    43ce:	b2 40 00 40 82 01 	mov	#16384,	&0x0182	;#0x4000
    43d4:	b0 12 88 e1 	call	#0xe188	
    43d8:	3d 40 09 00 	mov	#9,	r13	;#0x0009
    43dc:	0e 43       	clr	r14		
    43de:	3f 40 c8 15 	mov	#5576,	r15	;#0x15c8
    43e2:	b0 12 74 ea 	call	#0xea74	
    43e6:	3c 40 03 00 	mov	#3,	r12	;#0x0003
    43ea:	3d 40 1c 00 	mov	#28,	r13	;#0x001c
    43ee:	3e 40 f0 15 	mov	#5616,	r14	;#0x15f0
    43f2:	3f 40 be 1b 	mov	#7102,	r15	;#0x1bbe
    43f6:	b0 12 2c e6 	call	#0xe62c	
    43fa:	3e 40 06 4d 	mov	#19718,	r14	;#0x4d06
    43fe:	3f 40 be 1b 	mov	#7102,	r15	;#0x1bbe
    4402:	b0 12 84 e6 	call	#0xe684	
    4406:	b2 f0 ef ff 86 01 	and	#-17,	&0x0186	;#0xffef
    440c:	b2 40 00 40 86 01 	mov	#16384,	&0x0186	;#0x4000
    4412:	1f 42 a4 11 	mov	&0x11a4,r15	
    4416:	1f 53       	inc	r15		
    4418:	82 4f d8 15 	mov	r15,	&0x15d8	
    441c:	82 43 da 15 	mov	#0,	&0x15da	;r3 As==00
    4420:	f2 43 ee 15 	mov.b	#-1,	&0x15ee	;r3 As==11
    4424:	f2 43 ef 15 	mov.b	#-1,	&0x15ef	;r3 As==11
    4428:	c2 43 28 1d 	mov.b	#0,	&0x1d28	;r3 As==00
    442c:	c2 43 29 1d 	mov.b	#0,	&0x1d29	;r3 As==00
    4430:	c2 43 2a 1d 	mov.b	#0,	&0x1d2a	;r3 As==00
    4434:	c2 43 2b 1d 	mov.b	#0,	&0x1d2b	;r3 As==00
    4438:	c2 43 2c 1d 	mov.b	#0,	&0x1d2c	;r3 As==00
    443c:	e2 d2 1e 00 	bis.b	#4,	&0x001e	;r2 As==10
    4440:	f2 d0 40 00 1e 00 	bis.b	#64,	&0x001e	;#0x0040
    4446:	f2 d0 20 00 1e 00 	bis.b	#32,	&0x001e	;#0x0020
    444c:	92 42 94 11 48 16 	mov	&0x1194,&0x1648	
    4452:	b0 12 cc 5f 	call	#0x5fcc	
    4456:	82 4c 40 1d 	mov	r12,	&0x1d40	
    445a:	82 4d 42 1d 	mov	r13,	&0x1d42	
    445e:	82 4e 44 1d 	mov	r14,	&0x1d44	
    4462:	82 4f 46 1d 	mov	r15,	&0x1d46	
    4466:	d2 42 93 11 be 15 	mov.b	&0x1193,&0x15be	
    446c:	c2 43 bf 15 	mov.b	#0,	&0x15bf	;r3 As==00
    4470:	f2 40 1f 00 26 1d 	mov.b	#31,	&0x1d26	;#0x001f
    4476:	f2 40 10 00 66 1d 	mov.b	#16,	&0x1d66	;#0x0010
    447c:	b0 12 cc 5f 	call	#0x5fcc	
    4480:	82 4c 40 1d 	mov	r12,	&0x1d40	
    4484:	82 4d 42 1d 	mov	r13,	&0x1d42	
    4488:	82 4e 44 1d 	mov	r14,	&0x1d44	
    448c:	82 4f 46 1d 	mov	r15,	&0x1d46	
    4490:	3e 40 40 1d 	mov	#7488,	r14	;#0x1d40
    4494:	0d 4e       	mov	r14,	r13	
    4496:	3d 50 07 00 	add	#7,	r13	;#0x0007
    449a:	0c 43       	clr	r12		
    449c:	6f 4e       	mov.b	@r14,	r15	
    449e:	ee 4d 00 00 	mov.b	@r13,	0(r14)	;0x0000(r14)
    44a2:	cd 4f 00 00 	mov.b	r15,	0(r13)	;0x0000(r13)
    44a6:	1c 53       	inc	r12		
    44a8:	1e 53       	inc	r14		
    44aa:	3d 53       	add	#-1,	r13	;r3 As==11
    44ac:	2c 92       	cmp	#4,	r12	;r2 As==10
    44ae:	f6 23       	jnz	$-18     	;abs 0x449c
    44b0:	d2 43 91 13 	mov.b	#1,	&0x1391	;r3 As==01
    44b4:	d2 43 b2 25 	mov.b	#1,	&0x25b2	;r3 As==01
    44b8:	d2 43 c1 15 	mov.b	#1,	&0x15c1	;r3 As==01
    44bc:	d2 43 3a 1d 	mov.b	#1,	&0x1d3a	;r3 As==01
    44c0:	92 42 a4 11 c6 1b 	mov	&0x11a4,&0x1bc6	
    44c6:	b2 40 22 00 5a 26 	mov	#34,	&0x265a	;#0x0022
    44cc:	b0 12 3a c7 	call	#0xc73a	
    44d0:	4f 93       	tst.b	r15		
    44d2:	fc 23       	jnz	$-6      	;abs 0x44cc
    44d4:	4f 47       	mov.b	r7,	r15	
    44d6:	b0 12 c4 5f 	call	#0x5fc4	
    44da:	32 d2       	eint			
    44dc:	b0 12 b2 5f 	call	#0x5fb2	
    44e0:	4b 4f       	mov.b	r15,	r11	
    44e2:	82 43 ee 25 	mov	#0,	&0x25ee	;r3 As==00
    44e6:	82 43 f0 25 	mov	#0,	&0x25f0	;r3 As==00
    44ea:	82 43 f2 25 	mov	#0,	&0x25f2	;r3 As==00
    44ee:	82 43 f4 25 	mov	#0,	&0x25f4	;r3 As==00
    44f2:	b0 12 78 76 	call	#0x7678	
    44f6:	82 4e c0 13 	mov	r14,	&0x13c0	
    44fa:	82 4f c2 13 	mov	r15,	&0x13c2	
    44fe:	4f 4b       	mov.b	r11,	r15	
    4500:	b0 12 c4 5f 	call	#0x5fc4	
    4504:	c2 43 44 26 	mov.b	#0,	&0x2644	;r3 As==00
    4508:	3d 40 0a 00 	mov	#10,	r13	;#0x000a
    450c:	3e 40 c0 f7 	mov	#-2112,	r14	;#0xf7c0
    4510:	3f 40 3b 26 	mov	#9787,	r15	;#0x263b
    4514:	b0 12 56 e8 	call	#0xe856	
    4518:	3f 40 3a 26 	mov	#9786,	r15	;#0x263a
    451c:	1f 53       	inc	r15		
    451e:	cf 93 00 00 	tst.b	0(r15)		;0x0000(r15)
    4522:	fc 23       	jnz	$-6      	;abs 0x451c
    4524:	3f 80 3b 26 	sub	#9787,	r15	;#0x263b
    4528:	c2 4f 3a 26 	mov.b	r15,	&0x263a	
    452c:	c2 43 50 26 	mov.b	#0,	&0x2650	;r3 As==00
    4530:	3d 40 0a 00 	mov	#10,	r13	;#0x000a
    4534:	3e 40 c4 f7 	mov	#-2108,	r14	;#0xf7c4
    4538:	3f 40 47 26 	mov	#9799,	r15	;#0x2647
    453c:	b0 12 56 e8 	call	#0xe856	
    4540:	3f 40 46 26 	mov	#9798,	r15	;#0x2646
    4544:	1f 53       	inc	r15		
    4546:	cf 93 00 00 	tst.b	0(r15)		;0x0000(r15)
    454a:	fc 23       	jnz	$-6      	;abs 0x4544
    454c:	3f 80 47 26 	sub	#9799,	r15	;#0x2647
    4550:	c2 4f 46 26 	mov.b	r15,	&0x2646	
    4554:	3e 40 d0 07 	mov	#2000,	r14	;#0x07d0
    4558:	7f 40 03 00 	mov.b	#3,	r15	;#0x0003
    455c:	b0 12 12 4c 	call	#0x4c12	
    4560:	3d 40 10 00 	mov	#16,	r13	;#0x0010
    4564:	0e 43       	clr	r14		
    4566:	0f 41       	mov	r1,	r15	
    4568:	2f 53       	incd	r15		
    456a:	b0 12 74 ea 	call	#0xea74	
    456e:	0e 41       	mov	r1,	r14	
    4570:	2e 53       	incd	r14		
    4572:	3f 40 c8 f7 	mov	#-2104,	r15	;#0xf7c8
    4576:	b0 12 66 e3 	call	#0xe366	
    457a:	33 12       	push	#-1		;r3 As==11
    457c:	33 12       	push	#-1		;r3 As==11
    457e:	3c 43       	mov	#-1,	r12	;r3 As==11
    4580:	3d 43       	mov	#-1,	r13	;r3 As==11
    4582:	7e 40 40 00 	mov.b	#64,	r14	;#0x0040
    4586:	0f 41       	mov	r1,	r15	
    4588:	3f 50 06 00 	add	#6,	r15	;#0x0006
    458c:	b0 12 92 4e 	call	#0x4e92	
    4590:	21 52       	add	#4,	r1	;r2 As==10
    4592:	1e 42 a4 11 	mov	&0x11a4,r14	
    4596:	0f 4e       	mov	r14,	r15	
    4598:	8f 10       	swpb	r15		
    459a:	4f 4f       	mov.b	r15,	r15	
    459c:	4e 4e       	mov.b	r14,	r14	
    459e:	8e 10       	swpb	r14		
    45a0:	0e df       	bis	r15,	r14	
    45a2:	81 4e 10 00 	mov	r14,	16(r1)	;0x0010(r1)
    45a6:	c2 93 14 12 	tst.b	&0x1214	
    45aa:	0a 24       	jz	$+22     	;abs 0x45c0
    45ac:	3d 40 10 00 	mov	#16,	r13	;#0x0010
    45b0:	3e 40 ca 1b 	mov	#7114,	r14	;#0x1bca
    45b4:	0f 41       	mov	r1,	r15	
    45b6:	2f 53       	incd	r15		
    45b8:	b0 12 22 e8 	call	#0xe822	
    45bc:	0f 93       	tst	r15		
    45be:	0c 24       	jz	$+26     	;abs 0x45d8
    45c0:	3d 40 10 00 	mov	#16,	r13	;#0x0010
    45c4:	0e 41       	mov	r1,	r14	
    45c6:	2e 53       	incd	r14		
    45c8:	3f 40 ca 1b 	mov	#7114,	r15	;#0x1bca
    45cc:	b0 12 80 e8 	call	#0xe880	
    45d0:	d2 43 14 12 	mov.b	#1,	&0x1214	;r3 As==01
    45d4:	b0 12 92 85 	call	#0x8592	
    45d8:	c2 43 ed 25 	mov.b	#0,	&0x25ed	;r3 As==00
    45dc:	e2 42 ec 25 	mov.b	#4,	&0x25ec	;r2 As==10
    45e0:	c2 43 eb 25 	mov.b	#0,	&0x25eb	;r3 As==00
    45e4:	c2 43 ea 25 	mov.b	#0,	&0x25ea	;r3 As==00
    45e8:	f2 40 14 00 e9 25 	mov.b	#20,	&0x25e9	;#0x0014
    45ee:	c2 43 e8 25 	mov.b	#0,	&0x25e8	;r3 As==00
    45f2:	b2 40 0f a0 9a 25 	mov	#-24561,&0x259a	;#0xa00f
    45f8:	3e 40 9c 25 	mov	#9628,	r14	;#0x259c
    45fc:	3f 40 cf f7 	mov	#-2097,	r15	;#0xf7cf
    4600:	b0 12 66 e3 	call	#0xe366	
    4604:	b2 40 1f 40 ba 25 	mov	#16415,	&0x25ba	;#0x401f
    460a:	3e 40 bc 25 	mov	#9660,	r14	;#0x25bc
    460e:	3f 40 cf f7 	mov	#-2097,	r15	;#0xf7cf
    4612:	b0 12 66 e3 	call	#0xe366	
    4616:	b2 40 1b 58 94 13 	mov	#22555,	&0x1394	;#0x581b
    461c:	3e 40 96 13 	mov	#5014,	r14	;#0x1396
    4620:	3f 40 d7 f7 	mov	#-2089,	r15	;#0xf7d7
    4624:	b0 12 66 e3 	call	#0xe366	
    4628:	3e 40 a0 0f 	mov	#4000,	r14	;#0x0fa0
    462c:	4f 43       	clr.b	r15		
    462e:	b0 12 12 4c 	call	#0x4c12	
    4632:	3e 40 40 1f 	mov	#8000,	r14	;#0x1f40
    4636:	5f 43       	mov.b	#1,	r15	;r3 As==01
    4638:	b0 12 12 4c 	call	#0x4c12	
    463c:	d2 43 ce 25 	mov.b	#1,	&0x25ce	;r3 As==01
    4640:	c2 43 cf 25 	mov.b	#0,	&0x25cf	;r3 As==00
    4644:	3c 40 06 00 	mov	#6,	r12	;#0x0006
    4648:	3d 40 cc 25 	mov	#9676,	r13	;#0x25cc
    464c:	3e 40 ba 25 	mov	#9658,	r14	;#0x25ba
    4650:	4f 43       	clr.b	r15		
    4652:	b0 12 6a 70 	call	#0x706a	
    4656:	b0 12 f2 9f 	call	#0x9ff2	
    465a:	b0 12 b2 5f 	call	#0x5fb2	
    465e:	4a 4f       	mov.b	r15,	r10	
    4660:	86 3c       	jmp	$+270    	;abs 0x476e
    4662:	c2 93 9c 11 	tst.b	&0x119c	
    4666:	77 24       	jz	$+240    	;abs 0x4756
    4668:	b2 b0 10 00 62 01 	bit	#16,	&0x0162	;#0x0010
    466e:	08 20       	jnz	$+18     	;abs 0x4680
    4670:	b2 b0 10 00 64 01 	bit	#16,	&0x0164	;#0x0010
    4676:	04 20       	jnz	$+10     	;abs 0x4680
    4678:	b2 b0 10 00 66 01 	bit	#16,	&0x0166	;#0x0010
    467e:	07 24       	jz	$+16     	;abs 0x468e
    4680:	1e 42 60 01 	mov	&0x0160,r14	
    4684:	3e f0 00 03 	and	#768,	r14	;#0x0300
    4688:	3e 90 00 02 	cmp	#512,	r14	;#0x0200
    468c:	2e 24       	jz	$+94     	;abs 0x46ea
    468e:	5f 42 04 00 	mov.b	&0x0004,r15	
    4692:	3f b0 c0 00 	bit	#192,	r15	;#0x00c0
    4696:	05 24       	jz	$+12     	;abs 0x46a2
    4698:	5f 42 71 00 	mov.b	&0x0071,r15	
    469c:	3f f0 20 00 	and	#32,	r15	;#0x0020
    46a0:	26 20       	jnz	$+78     	;abs 0x46ee
    46a2:	5f 42 05 00 	mov.b	&0x0005,r15	
    46a6:	3f b0 30 00 	bit	#48,	r15	;#0x0030
    46aa:	05 24       	jz	$+12     	;abs 0x46b6
    46ac:	5f 42 79 00 	mov.b	&0x0079,r15	
    46b0:	3f f0 20 00 	and	#32,	r15	;#0x0020
    46b4:	1e 20       	jnz	$+62     	;abs 0x46f2
    46b6:	5f 42 70 00 	mov.b	&0x0070,r15	
    46ba:	1f f3       	and	#1,	r15	;r3 As==01
    46bc:	1c 24       	jz	$+58     	;abs 0x46f6
    46be:	5f 42 71 00 	mov.b	&0x0071,r15	
    46c2:	3f f0 20 00 	and	#32,	r15	;#0x0020
    46c6:	1a 24       	jz	$+54     	;abs 0x46fc
    46c8:	5f 42 72 00 	mov.b	&0x0072,r15	
    46cc:	3f f0 20 00 	and	#32,	r15	;#0x0020
    46d0:	18 24       	jz	$+50     	;abs 0x4702
    46d2:	5f 42 70 00 	mov.b	&0x0070,r15	
    46d6:	2f f2       	and	#4,	r15	;r2 As==10
    46d8:	17 24       	jz	$+48     	;abs 0x4708
    46da:	5f 42 70 00 	mov.b	&0x0070,r15	
    46de:	3f f0 20 00 	and	#32,	r15	;#0x0020
    46e2:	15 20       	jnz	$+44     	;abs 0x470e
    46e4:	7e 40 05 00 	mov.b	#5,	r14	;#0x0005
    46e8:	13 3c       	jmp	$+40     	;abs 0x4710
    46ea:	6e 43       	mov.b	#2,	r14	;r3 As==10
    46ec:	11 3c       	jmp	$+36     	;abs 0x4710
    46ee:	6e 43       	mov.b	#2,	r14	;r3 As==10
    46f0:	0f 3c       	jmp	$+32     	;abs 0x4710
    46f2:	6e 43       	mov.b	#2,	r14	;r3 As==10
    46f4:	0d 3c       	jmp	$+28     	;abs 0x4710
    46f6:	7e 40 05 00 	mov.b	#5,	r14	;#0x0005
    46fa:	0a 3c       	jmp	$+22     	;abs 0x4710
    46fc:	7e 40 05 00 	mov.b	#5,	r14	;#0x0005
    4700:	07 3c       	jmp	$+16     	;abs 0x4710
    4702:	7e 40 05 00 	mov.b	#5,	r14	;#0x0005
    4706:	04 3c       	jmp	$+10     	;abs 0x4710
    4708:	7e 40 05 00 	mov.b	#5,	r14	;#0x0005
    470c:	01 3c       	jmp	$+4      	;abs 0x4710
    470e:	6e 43       	mov.b	#2,	r14	;r3 As==10
    4710:	b2 b0 10 00 a0 01 	bit	#16,	&0x01a0	;#0x0010
    4716:	19 24       	jz	$+52     	;abs 0x474a
    4718:	b2 b0 10 00 a2 01 	bit	#16,	&0x01a2	;#0x0010
    471e:	05 24       	jz	$+12     	;abs 0x472a
    4720:	b2 b2 a2 01 	bit	#8,	&0x01a2	;r2 As==11
    4724:	0f 24       	jz	$+32     	;abs 0x4744
    4726:	6e 43       	mov.b	#2,	r14	;r3 As==10
    4728:	10 3c       	jmp	$+34     	;abs 0x474a
    472a:	1f 42 a2 01 	mov	&0x01a2,r15	
    472e:	3f b0 00 04 	bit	#1024,	r15	;#0x0400
    4732:	0b 24       	jz	$+24     	;abs 0x474a
    4734:	1d 42 60 01 	mov	&0x0160,r13	
    4738:	3d f0 00 03 	and	#768,	r13	;#0x0300
    473c:	3d 90 00 02 	cmp	#512,	r13	;#0x0200
    4740:	04 20       	jnz	$+10     	;abs 0x474a
    4742:	02 3c       	jmp	$+6      	;abs 0x4748
    4744:	4e 43       	clr.b	r14		
    4746:	01 3c       	jmp	$+4      	;abs 0x474a
    4748:	6e 43       	mov.b	#2,	r14	;r3 As==10
    474a:	7e 90 05 00 	cmp.b	#5,	r14	;#0x0005
    474e:	01 28       	jnc	$+4      	;abs 0x4752
    4750:	6e 42       	mov.b	#4,	r14	;r2 As==10
    4752:	c2 4e 26 12 	mov.b	r14,	&0x1226	
    4756:	5e 42 26 12 	mov.b	&0x1226,r14	
    475a:	0e 5e       	rla	r14		
    475c:	1e 4e d0 f8 	mov	-1840(r14),r14	;0xf8d0(r14)
    4760:	3e d2       	bis	#8,	r14	;r2 As==11
    4762:	81 4e 00 00 	mov	r14,	0(r1)	;0x0000(r1)
    4766:	22 d1       	bis	@r1,	r2	
    4768:	32 c2       	dint			
    476a:	03 43       	nop			
    476c:	03 43       	nop			
    476e:	f2 93 f7 24 	cmp.b	#-1,	&0x24f7	;r3 As==11
    4772:	77 27       	jz	$-272    	;abs 0x4662
    4774:	b0 12 fe 4e 	call	#0x4efe	
    4778:	4b 4f       	mov.b	r15,	r11	
    477a:	7f 93       	cmp.b	#-1,	r15	;r3 As==11
    477c:	72 27       	jz	$-282    	;abs 0x4662
    477e:	4f 4a       	mov.b	r10,	r15	
    4780:	b0 12 c4 5f 	call	#0x5fc4	
    4784:	4f 4b       	mov.b	r11,	r15	
    4786:	b0 12 f6 b1 	call	#0xb1f6	
    478a:	67 3f       	jmp	$-304    	;abs 0x465a

0000478c <__stop_progExec__>:
    478c:	32 d0 f0 00 	bis	#240,	r2	;#0x00f0
    4790:	fd 3f       	jmp	$-4      	;abs 0x478c

00004792 <__ctors_end>:
    4792:	30 40 ca f5 	br	#0xf5ca	

00004796 <__nesc_ntoh_uint32>:
    4796:	0b 12       	push	r11		
    4798:	0b 4f       	mov	r15,	r11	
    479a:	6d 4f       	mov.b	@r15,	r13	
    479c:	0e 43       	clr	r14		
    479e:	0f 43       	clr	r15		
    47a0:	0f 4d       	mov	r13,	r15	
    47a2:	8f 10       	swpb	r15		
    47a4:	0c 43       	clr	r12		
    47a6:	0d 43       	clr	r13		
    47a8:	5d 4b 01 00 	mov.b	1(r11),	r13	;0x0001(r11)
    47ac:	0e dc       	bis	r12,	r14	
    47ae:	0f dd       	bis	r13,	r15	
    47b0:	5c 4b 03 00 	mov.b	3(r11),	r12	;0x0003(r11)
    47b4:	0d 43       	clr	r13		
    47b6:	0e dc       	bis	r12,	r14	
    47b8:	0f dd       	bis	r13,	r15	
    47ba:	5c 4b 02 00 	mov.b	2(r11),	r12	;0x0002(r11)
    47be:	4d ec       	xor.b	r12,	r13	
    47c0:	0d ec       	xor	r12,	r13	
    47c2:	8d 10       	swpb	r13		
    47c4:	4c 4c       	mov.b	r12,	r12	
    47c6:	8c 10       	swpb	r12		
    47c8:	0e dc       	bis	r12,	r14	
    47ca:	0f dd       	bis	r13,	r15	
    47cc:	3b 41       	pop	r11		
    47ce:	30 41       	ret			

000047d0 <Msp430Adc12ImplP__TimerA__setMode>:
    47d0:	3d 40 60 01 	mov	#352,	r13	;#0x0160
    47d4:	2e 4d       	mov	@r13,	r14	
    47d6:	0f 5f       	rla	r15		
    47d8:	0f 5f       	rla	r15		
    47da:	0f 5f       	rla	r15		
    47dc:	0f 5f       	rla	r15		
    47de:	3f f0 30 00 	and	#48,	r15	;#0x0030
    47e2:	3e f0 cf ff 	and	#-49,	r14	;#0xffcf
    47e6:	0f de       	bis	r14,	r15	
    47e8:	8d 4f 00 00 	mov	r15,	0(r13)	;0x0000(r13)
    47ec:	30 41       	ret			

000047ee <Msp430RefVoltGeneratorP__HplAdc12__getCtl0>:
    47ee:	1f 42 a0 01 	mov	&0x01a0,r15	
    47f2:	30 41       	ret			

000047f4 <Msp430RefVoltGeneratorP__HplAdc12__setCtl0>:
    47f4:	82 4f a0 01 	mov	r15,	&0x01a0	
    47f8:	30 41       	ret			

000047fa <Msp430Adc12ImplP__HplAdc12__setMCtl>:
    47fa:	4f 4f       	mov.b	r15,	r15	
    47fc:	3f 50 80 00 	add	#128,	r15	;#0x0080
    4800:	4e 4e       	mov.b	r14,	r14	
    4802:	cf 4e 00 00 	mov.b	r14,	0(r15)	;0x0000(r15)
    4806:	30 41       	ret			

00004808 <Msp430Adc12ImplP__HplAdc12__setCtl1>:
    4808:	82 4f a2 01 	mov	r15,	&0x01a2	
    480c:	30 41       	ret			

0000480e <Msp430Adc12ImplP__HplAdc12__setCtl0>:
    480e:	82 4f a0 01 	mov	r15,	&0x01a0	
    4812:	30 41       	ret			

00004814 <Msp430Adc12ImplP__HplAdc12__getCtl0>:
    4814:	1f 42 a0 01 	mov	&0x01a0,r15	
    4818:	30 41       	ret			

0000481a <IPAddressP__IPAddress__getGlobalAddr>:
    481a:	3d 40 10 00 	mov	#16,	r13	;#0x0010
    481e:	3e 40 ca 1b 	mov	#7114,	r14	;#0x1bca
    4822:	b0 12 80 e8 	call	#0xe880	
    4826:	5f 42 14 12 	mov.b	&0x1214,r15	
    482a:	30 41       	ret			

0000482c <RPLDAORoutingEngineP__0__SendPool__get>:
    482c:	5d 42 82 12 	mov.b	&0x1282,r13	
    4830:	4d 93       	tst.b	r13		
    4832:	17 24       	jz	$+48     	;abs 0x4862
    4834:	5c 42 f4 1c 	mov.b	&0x1cf4,r12	
    4838:	4f 4c       	mov.b	r12,	r15	
    483a:	0f 5f       	rla	r15		
    483c:	0e 4f       	mov	r15,	r14	
    483e:	3e 50 c4 13 	add	#5060,	r14	;#0x13c4
    4842:	2f 4e       	mov	@r14,	r15	
    4844:	8e 43 00 00 	mov	#0,	0(r14)	;r3 As==00, 0x0000(r14)
    4848:	7d 53       	add.b	#-1,	r13	;r3 As==11
    484a:	c2 4d 82 12 	mov.b	r13,	&0x1282	
    484e:	4e 4c       	mov.b	r12,	r14	
    4850:	5e 53       	inc.b	r14		
    4852:	c2 4e f4 1c 	mov.b	r14,	&0x1cf4	
    4856:	7e 90 05 00 	cmp.b	#5,	r14	;#0x0005
    485a:	04 20       	jnz	$+10     	;abs 0x4864
    485c:	c2 43 f4 1c 	mov.b	#0,	&0x1cf4	;r3 As==00
    4860:	30 41       	ret			
    4862:	0f 43       	clr	r15		
    4864:	30 41       	ret			

00004866 <OneWireMasterP__BusyWait__wait>:
    4866:	1e 42 70 01 	mov	&0x0170,r14	
    486a:	3f 90 01 80 	cmp	#-32767,r15	;#0x8001
    486e:	0a 28       	jnc	$+22     	;abs 0x4884
    4870:	3f 50 00 80 	add	#-32768,r15	;#0x8000
    4874:	1d 42 70 01 	mov	&0x0170,r13	
    4878:	0d 8e       	sub	r14,	r13	
    487a:	0f 9d       	cmp	r13,	r15	
    487c:	fb 2f       	jc	$-8      	;abs 0x4874
    487e:	0e 5f       	add	r15,	r14	
    4880:	3f 40 00 80 	mov	#-32768,r15	;#0x8000
    4884:	1d 42 70 01 	mov	&0x0170,r13	
    4888:	0d 8e       	sub	r14,	r13	
    488a:	0f 9d       	cmp	r13,	r15	
    488c:	fb 2f       	jc	$-8      	;abs 0x4884
    488e:	30 41       	ret			

00004890 <OneWireMasterP__Pin__makeInput>:
    4890:	f2 f0 ef ff 2a 00 	and.b	#-17,	&0x002a	;#0xffef
    4896:	30 41       	ret			

00004898 <OneWireMasterP__Pin__makeOutput>:
    4898:	f2 d0 10 00 2a 00 	bis.b	#16,	&0x002a	;#0x0010
    489e:	30 41       	ret			

000048a0 <IPDispatchP__setFragDgramTag>:
    48a0:	1d 4f 02 00 	mov	2(r15),	r13	;0x0002(r15)
    48a4:	0d 93       	tst	r13		
    48a6:	15 24       	jz	$+44     	;abs 0x48d2
    48a8:	6f 4d       	mov.b	@r13,	r15	
    48aa:	12 c3       	clrc			
    48ac:	4f 10       	rrc.b	r15		
    48ae:	12 c3       	clrc			
    48b0:	4f 10       	rrc.b	r15		
    48b2:	12 c3       	clrc			
    48b4:	4f 10       	rrc.b	r15		
    48b6:	7f 90 18 00 	cmp.b	#24,	r15	;#0x0018
    48ba:	03 24       	jz	$+8      	;abs 0x48c2
    48bc:	7f 90 1c 00 	cmp.b	#28,	r15	;#0x001c
    48c0:	0a 20       	jnz	$+22     	;abs 0x48d6
    48c2:	0f 4e       	mov	r14,	r15	
    48c4:	8f 10       	swpb	r15		
    48c6:	cd 4f 02 00 	mov.b	r15,	2(r13)	;0x0002(r13)
    48ca:	cd 4e 03 00 	mov.b	r14,	3(r13)	;0x0003(r13)
    48ce:	4f 43       	clr.b	r15		
    48d0:	30 41       	ret			
    48d2:	5f 43       	mov.b	#1,	r15	;r3 As==01
    48d4:	30 41       	ret			
    48d6:	5f 43       	mov.b	#1,	r15	;r3 As==01
    48d8:	30 41       	ret			

000048da <IPDispatchP__setFragDgramSize>:
    48da:	1d 4f 02 00 	mov	2(r15),	r13	;0x0002(r15)
    48de:	0d 93       	tst	r13		
    48e0:	1b 24       	jz	$+56     	;abs 0x4918
    48e2:	6c 4d       	mov.b	@r13,	r12	
    48e4:	4f 4c       	mov.b	r12,	r15	
    48e6:	12 c3       	clrc			
    48e8:	4f 10       	rrc.b	r15		
    48ea:	12 c3       	clrc			
    48ec:	4f 10       	rrc.b	r15		
    48ee:	12 c3       	clrc			
    48f0:	4f 10       	rrc.b	r15		
    48f2:	7f 90 18 00 	cmp.b	#24,	r15	;#0x0018
    48f6:	03 24       	jz	$+8      	;abs 0x48fe
    48f8:	7f 90 1c 00 	cmp.b	#28,	r15	;#0x001c
    48fc:	0f 20       	jnz	$+32     	;abs 0x491c
    48fe:	3e f0 ff 07 	and	#2047,	r14	;#0x07ff
    4902:	0f 4e       	mov	r14,	r15	
    4904:	8f 10       	swpb	r15		
    4906:	7c f0 f8 ff 	and.b	#-8,	r12	;#0xfff8
    490a:	4c df       	bis.b	r15,	r12	
    490c:	cd 4c 00 00 	mov.b	r12,	0(r13)	;0x0000(r13)
    4910:	cd 4e 01 00 	mov.b	r14,	1(r13)	;0x0001(r13)
    4914:	4f 43       	clr.b	r15		
    4916:	30 41       	ret			
    4918:	5f 43       	mov.b	#1,	r15	;r3 As==01
    491a:	30 41       	ret			
    491c:	5f 43       	mov.b	#1,	r15	;r3 As==01
    491e:	30 41       	ret			

00004920 <IPDispatchP__setupHeaders>:
    4920:	0b 12       	push	r11		
    4922:	1d 4f 02 00 	mov	2(r15),	r13	;0x0002(r15)
    4926:	5c 4f 01 00 	mov.b	1(r15),	r12	;0x0001(r15)
    492a:	0d 93       	tst	r13		
    492c:	1a 24       	jz	$+54     	;abs 0x4962
    492e:	4c 4c       	mov.b	r12,	r12	
    4930:	cf 43 00 00 	mov.b	#0,	0(r15)	;r3 As==00, 0x0000(r15)
    4934:	2e b2       	bit	#4,	r14	;r2 As==10
    4936:	09 24       	jz	$+20     	;abs 0x494a
    4938:	2c 92       	cmp	#4,	r12	;r2 As==10
    493a:	13 28       	jnc	$+40     	;abs 0x4962
    493c:	ef 42 00 00 	mov.b	#4,	0(r15)	;r2 As==10, 0x0000(r15)
    4940:	fd 40 c0 ff 00 00 	mov.b	#-64,	0(r13)	;#0xffc0, 0x0000(r13)
    4946:	2d 52       	add	#4,	r13	;r2 As==10
    4948:	2c 82       	sub	#4,	r12	;r2 As==10
    494a:	3e f2       	and	#8,	r14	;r2 As==11
    494c:	08 24       	jz	$+18     	;abs 0x495e
    494e:	3c 90 05 00 	cmp	#5,	r12	;#0x0005
    4952:	07 28       	jnc	$+16     	;abs 0x4962
    4954:	ff d2 00 00 	bis.b	#8,	0(r15)	;r2 As==11, 0x0000(r15)
    4958:	fd 40 e0 ff 00 00 	mov.b	#-32,	0(r13)	;#0xffe0, 0x0000(r13)
    495e:	4f 43       	clr.b	r15		
    4960:	01 3c       	jmp	$+4      	;abs 0x4964
    4962:	5f 43       	mov.b	#1,	r15	;r3 As==01
    4964:	3b 41       	pop	r11		
    4966:	30 41       	ret			

00004968 <IPDispatchP__getLowpanPayload>:
    4968:	6d 4f       	mov.b	@r15,	r13	
    496a:	2d b2       	bit	#4,	r13	;r2 As==10
    496c:	02 24       	jz	$+6      	;abs 0x4972
    496e:	6e 42       	mov.b	#4,	r14	;r2 As==10
    4970:	01 3c       	jmp	$+4      	;abs 0x4974
    4972:	4e 43       	clr.b	r14		
    4974:	3d f2       	and	#8,	r13	;r2 As==11
    4976:	02 24       	jz	$+6      	;abs 0x497c
    4978:	7e 50 05 00 	add.b	#5,	r14	;#0x0005
    497c:	4e 4e       	mov.b	r14,	r14	
    497e:	1f 4f 02 00 	mov	2(r15),	r15	;0x0002(r15)
    4982:	0f 5e       	add	r14,	r15	
    4984:	30 41       	ret			

00004986 <IPDispatchP__getHeaderBitmap>:
    4986:	0b 12       	push	r11		
    4988:	1e 4f 02 00 	mov	2(r15),	r14	;0x0002(r15)
    498c:	5b 4f 01 00 	mov.b	1(r15),	r11	;0x0001(r15)
    4990:	0e 93       	tst	r14		
    4992:	29 24       	jz	$+84     	;abs 0x49e6
    4994:	4b 4b       	mov.b	r11,	r11	
    4996:	0b 93       	tst	r11		
    4998:	26 24       	jz	$+78     	;abs 0x49e6
    499a:	6f 4e       	mov.b	@r14,	r15	
    499c:	4d 4f       	mov.b	r15,	r13	
    499e:	7c 40 06 00 	mov.b	#6,	r12	;#0x0006
    49a2:	12 c3       	clrc			
    49a4:	4d 10       	rrc.b	r13		
    49a6:	7c 53       	add.b	#-1,	r12	;r3 As==11
    49a8:	fc 23       	jnz	$-6      	;abs 0x49a2
    49aa:	4d 93       	tst.b	r13		
    49ac:	1e 24       	jz	$+62     	;abs 0x49ea
    49ae:	12 c3       	clrc			
    49b0:	4f 10       	rrc.b	r15		
    49b2:	12 c3       	clrc			
    49b4:	4f 10       	rrc.b	r15		
    49b6:	12 c3       	clrc			
    49b8:	4f 10       	rrc.b	r15		
    49ba:	7f 90 18 00 	cmp.b	#24,	r15	;#0x0018
    49be:	06 20       	jnz	$+14     	;abs 0x49cc
    49c0:	3b 90 05 00 	cmp	#5,	r11	;#0x0005
    49c4:	15 38       	jl	$+44     	;abs 0x49f0
    49c6:	2e 52       	add	#4,	r14	;r2 As==10
    49c8:	2f 42       	mov	#4,	r15	;r2 As==10
    49ca:	01 3c       	jmp	$+4      	;abs 0x49ce
    49cc:	0f 43       	clr	r15		
    49ce:	6e 4e       	mov.b	@r14,	r14	
    49d0:	12 c3       	clrc			
    49d2:	4e 10       	rrc.b	r14		
    49d4:	12 c3       	clrc			
    49d6:	4e 10       	rrc.b	r14		
    49d8:	12 c3       	clrc			
    49da:	4e 10       	rrc.b	r14		
    49dc:	7e 90 1c 00 	cmp.b	#28,	r14	;#0x001c
    49e0:	08 20       	jnz	$+18     	;abs 0x49f2
    49e2:	3f d2       	bis	#8,	r15	;r2 As==11
    49e4:	06 3c       	jmp	$+14     	;abs 0x49f2
    49e6:	0f 43       	clr	r15		
    49e8:	04 3c       	jmp	$+10     	;abs 0x49f2
    49ea:	3f 40 10 00 	mov	#16,	r15	;#0x0010
    49ee:	01 3c       	jmp	$+4      	;abs 0x49f2
    49f0:	2f 42       	mov	#4,	r15	;r2 As==10
    49f2:	3b 41       	pop	r11		
    49f4:	30 41       	ret			

000049f6 <IPDispatchP__getFragDgramTag>:
    49f6:	1d 4f 02 00 	mov	2(r15),	r13	;0x0002(r15)
    49fa:	0d 93       	tst	r13		
    49fc:	1a 24       	jz	$+54     	;abs 0x4a32
    49fe:	0e 93       	tst	r14		
    4a00:	18 24       	jz	$+50     	;abs 0x4a32
    4a02:	6f 4d       	mov.b	@r13,	r15	
    4a04:	12 c3       	clrc			
    4a06:	4f 10       	rrc.b	r15		
    4a08:	12 c3       	clrc			
    4a0a:	4f 10       	rrc.b	r15		
    4a0c:	12 c3       	clrc			
    4a0e:	4f 10       	rrc.b	r15		
    4a10:	7f 90 18 00 	cmp.b	#24,	r15	;#0x0018
    4a14:	03 24       	jz	$+8      	;abs 0x4a1c
    4a16:	7f 90 1c 00 	cmp.b	#28,	r15	;#0x001c
    4a1a:	0d 20       	jnz	$+28     	;abs 0x4a36
    4a1c:	1d 4d 02 00 	mov	2(r13),	r13	;0x0002(r13)
    4a20:	4f 4d       	mov.b	r13,	r15	
    4a22:	8f 10       	swpb	r15		
    4a24:	8d 10       	swpb	r13		
    4a26:	4d 4d       	mov.b	r13,	r13	
    4a28:	0d df       	bis	r15,	r13	
    4a2a:	8e 4d 00 00 	mov	r13,	0(r14)	;0x0000(r14)
    4a2e:	4f 43       	clr.b	r15		
    4a30:	30 41       	ret			
    4a32:	5f 43       	mov.b	#1,	r15	;r3 As==01
    4a34:	30 41       	ret			
    4a36:	5f 43       	mov.b	#1,	r15	;r3 As==01
    4a38:	30 41       	ret			

00004a3a <Msp430Adc12ImplP__HplAdc12__stopConversion>:
    4a3a:	1f 42 a2 01 	mov	&0x01a2,r15	
    4a3e:	b2 f0 f9 ff a2 01 	and	#-7,	&0x01a2	;#0xfff9
    4a44:	b2 f0 fc ff a0 01 	and	#-4,	&0x01a0	;#0xfffc
    4a4a:	b2 f0 ef ff a0 01 	and	#-17,	&0x01a0	;#0xffef
    4a50:	1e 42 a2 01 	mov	&0x01a2,r14	
    4a54:	3f f0 06 00 	and	#6,	r15	;#0x0006
    4a58:	0f de       	bis	r14,	r15	
    4a5a:	82 4f a2 01 	mov	r15,	&0x01a2	
    4a5e:	30 41       	ret			

00004a60 <Msp430Adc12ImplP__HplAdc12__getMCtl>:
    4a60:	4f 4f       	mov.b	r15,	r15	
    4a62:	3f 50 80 00 	add	#128,	r15	;#0x0080
    4a66:	6f 4f       	mov.b	@r15,	r15	
    4a68:	30 41       	ret			

00004a6a <Msp430TimerP__1__Timer__get>:
    4a6a:	1f 42 90 01 	mov	&0x0190,r15	
    4a6e:	01 3c       	jmp	$+4      	;abs 0x4a72
    4a70:	0f 4e       	mov	r14,	r15	
    4a72:	1e 42 90 01 	mov	&0x0190,r14	
    4a76:	0f 9e       	cmp	r14,	r15	
    4a78:	fb 23       	jnz	$-8      	;abs 0x4a70
    4a7a:	30 41       	ret			

00004a7c <Msp430SpiNoDmaP__0__SpiByte__write>:
    4a7c:	c2 4f 77 00 	mov.b	r15,	&0x0077	
    4a80:	5f 42 02 00 	mov.b	&0x0002,r15	
    4a84:	3f f0 40 00 	and	#64,	r15	;#0x0040
    4a88:	fb 27       	jz	$-8      	;abs 0x4a80
    4a8a:	f2 f0 bf ff 02 00 	and.b	#-65,	&0x0002	;#0xffbf
    4a90:	5f 42 76 00 	mov.b	&0x0076,r15	
    4a94:	30 41       	ret			

00004a96 <GpioCaptureC__0__enableCapture>:
    4a96:	b2 f0 ef ff 84 01 	and	#-17,	&0x0184	;#0xffef
    4a9c:	e2 d3 1f 00 	bis.b	#2,	&0x001f	;r3 As==10
    4aa0:	b2 f0 fe ff 84 01 	and	#-2,	&0x0184	;#0xfffe
    4aa6:	b2 f0 fd ff 84 01 	and	#-3,	&0x0184	;#0xfffd
    4aac:	4f 4f       	mov.b	r15,	r15	
    4aae:	8f 10       	swpb	r15		
    4ab0:	7e 40 06 00 	mov.b	#6,	r14	;#0x0006
    4ab4:	0f 5f       	rla	r15		
    4ab6:	7e 53       	add.b	#-1,	r14	;r3 As==11
    4ab8:	fd 23       	jnz	$-4      	;abs 0x4ab4
    4aba:	3f d0 00 01 	bis	#256,	r15	;#0x0100
    4abe:	82 4f 84 01 	mov	r15,	&0x0184	
    4ac2:	b2 d0 10 00 84 01 	bis	#16,	&0x0184	;#0x0010
    4ac8:	4f 43       	clr.b	r15		
    4aca:	30 41       	ret			

00004acc <MotePlatformC__TOSH_FLASH_M25P_DP_bit>:
    4acc:	4f 93       	tst.b	r15		
    4ace:	04 24       	jz	$+10     	;abs 0x4ad8
    4ad0:	5f 42 19 00 	mov.b	&0x0019,r15	
    4ad4:	6f d3       	bis.b	#2,	r15	;r3 As==10
    4ad6:	04 3c       	jmp	$+10     	;abs 0x4ae0
    4ad8:	5f 42 19 00 	mov.b	&0x0019,r15	
    4adc:	7f f0 fd ff 	and.b	#-3,	r15	;#0xfffd
    4ae0:	c2 4f 19 00 	mov.b	r15,	&0x0019	
    4ae4:	f2 d2 19 00 	bis.b	#8,	&0x0019	;r2 As==11
    4ae8:	f2 f0 f7 ff 19 00 	and.b	#-9,	&0x0019	;#0xfff7
    4aee:	30 41       	ret			

00004af0 <IPDispatchP__iid_eui_cmp>:
    4af0:	5d 4e 07 00 	mov.b	7(r14),	r13	;0x0007(r14)
    4af4:	6d e3       	xor.b	#2,	r13	;r3 As==10
    4af6:	6d 9f       	cmp.b	@r15,	r13	
    4af8:	1f 20       	jnz	$+64     	;abs 0x4b38
    4afa:	df 9e 06 00 01 00 	cmp.b	6(r14),	1(r15)	;0x0006(r14), 0x0001(r15)
    4b00:	1b 20       	jnz	$+56     	;abs 0x4b38
    4b02:	df 9e 05 00 02 00 	cmp.b	5(r14),	2(r15)	;0x0005(r14), 0x0002(r15)
    4b08:	17 20       	jnz	$+48     	;abs 0x4b38
    4b0a:	df 9e 04 00 03 00 	cmp.b	4(r14),	3(r15)	;0x0004(r14), 0x0003(r15)
    4b10:	13 20       	jnz	$+40     	;abs 0x4b38
    4b12:	df 9e 03 00 04 00 	cmp.b	3(r14),	4(r15)	;0x0003(r14), 0x0004(r15)
    4b18:	0f 20       	jnz	$+32     	;abs 0x4b38
    4b1a:	df 9e 02 00 05 00 	cmp.b	2(r14),	5(r15)	;0x0002(r14), 0x0005(r15)
    4b20:	0b 20       	jnz	$+24     	;abs 0x4b38
    4b22:	df 9e 01 00 06 00 	cmp.b	1(r14),	6(r15)	;0x0001(r14), 0x0006(r15)
    4b28:	09 20       	jnz	$+20     	;abs 0x4b3c
    4b2a:	1d 43       	mov	#1,	r13	;r3 As==01
    4b2c:	ef 9e 07 00 	cmp.b	@r14,	7(r15)	;0x0007(r15)
    4b30:	01 24       	jz	$+4      	;abs 0x4b34
    4b32:	0d 43       	clr	r13		
    4b34:	0f 4d       	mov	r13,	r15	
    4b36:	30 41       	ret			
    4b38:	0f 43       	clr	r15		
    4b3a:	30 41       	ret			
    4b3c:	0f 43       	clr	r15		
    4b3e:	30 41       	ret			

00004b40 <IPDispatchP__bit_range_zero_p>:
    4b40:	0b 12       	push	r11		
    4b42:	0a 12       	push	r10		
    4b44:	09 12       	push	r9		
    4b46:	0c 4e       	mov	r14,	r12	
    4b48:	0e 93       	tst	r14		
    4b4a:	02 34       	jge	$+6      	;abs 0x4b50
    4b4c:	3c 50 07 00 	add	#7,	r12	;#0x0007
    4b50:	0c 11       	rra	r12		
    4b52:	0c 11       	rra	r12		
    4b54:	0c 11       	rra	r12		
    4b56:	0a 4f       	mov	r15,	r10	
    4b58:	0a 5c       	add	r12,	r10	
    4b5a:	3e f0 07 80 	and	#-32761,r14	;#0x8007
    4b5e:	04 34       	jge	$+10     	;abs 0x4b68
    4b60:	3e 53       	add	#-1,	r14	;r3 As==11
    4b62:	3e d0 f8 ff 	bis	#-8,	r14	;#0xfff8
    4b66:	1e 53       	inc	r14		
    4b68:	3b 40 ff 00 	mov	#255,	r11	;#0x00ff
    4b6c:	39 42       	mov	#8,	r9	;r2 As==11
    4b6e:	49 8e       	sub.b	r14,	r9	
    4b70:	4e 49       	mov.b	r9,	r14	
    4b72:	7e f0 0f 00 	and.b	#15,	r14	;#0x000f
    4b76:	4e 93       	tst.b	r14		
    4b78:	03 24       	jz	$+8      	;abs 0x4b80
    4b7a:	0b 5b       	rla	r11		
    4b7c:	7e 53       	add.b	#-1,	r14	;r3 As==11
    4b7e:	fb 3f       	jmp	$-8      	;abs 0x4b76
    4b80:	ca bb 00 00 	bit.b	r11,	0(r10)	;0x0000(r10)
    4b84:	2b 20       	jnz	$+88     	;abs 0x4bdc
    4b86:	0e 4d       	mov	r13,	r14	
    4b88:	0d 93       	tst	r13		
    4b8a:	02 34       	jge	$+6      	;abs 0x4b90
    4b8c:	3e 50 07 00 	add	#7,	r14	;#0x0007
    4b90:	0e 11       	rra	r14		
    4b92:	0e 11       	rra	r14		
    4b94:	0e 11       	rra	r14		
    4b96:	0a 4f       	mov	r15,	r10	
    4b98:	0a 5e       	add	r14,	r10	
    4b9a:	3d f0 07 80 	and	#-32761,r13	;#0x8007
    4b9e:	04 34       	jge	$+10     	;abs 0x4ba8
    4ba0:	3d 53       	add	#-1,	r13	;r3 As==11
    4ba2:	3d d0 f8 ff 	bis	#-8,	r13	;#0xfff8
    4ba6:	1d 53       	inc	r13		
    4ba8:	3b 40 ff 00 	mov	#255,	r11	;#0x00ff
    4bac:	39 42       	mov	#8,	r9	;r2 As==11
    4bae:	49 8d       	sub.b	r13,	r9	
    4bb0:	4d 49       	mov.b	r9,	r13	
    4bb2:	7d f0 0f 00 	and.b	#15,	r13	;#0x000f
    4bb6:	4d 93       	tst.b	r13		
    4bb8:	03 24       	jz	$+8      	;abs 0x4bc0
    4bba:	0b 5b       	rla	r11		
    4bbc:	7d 53       	add.b	#-1,	r13	;r3 As==11
    4bbe:	fb 3f       	jmp	$-8      	;abs 0x4bb6
    4bc0:	ca bb 00 00 	bit.b	r11,	0(r10)	;0x0000(r10)
    4bc4:	07 24       	jz	$+16     	;abs 0x4bd4
    4bc6:	0a 3c       	jmp	$+22     	;abs 0x4bdc
    4bc8:	0d 4f       	mov	r15,	r13	
    4bca:	0d 5c       	add	r12,	r13	
    4bcc:	cd 93 00 00 	tst.b	0(r13)		;0x0000(r13)
    4bd0:	05 20       	jnz	$+12     	;abs 0x4bdc
    4bd2:	1c 53       	inc	r12		
    4bd4:	0c 9e       	cmp	r14,	r12	
    4bd6:	f8 3b       	jl	$-14     	;abs 0x4bc8
    4bd8:	0f 43       	clr	r15		
    4bda:	01 3c       	jmp	$+4      	;abs 0x4bde
    4bdc:	3f 43       	mov	#-1,	r15	;r3 As==11
    4bde:	39 41       	pop	r9		
    4be0:	3a 41       	pop	r10		
    4be2:	3b 41       	pop	r11		
    4be4:	30 41       	ret			

00004be6 <RPLRankP__resetValid>:
    4be6:	3f 40 f2 13 	mov	#5106,	r15	;#0x13f2
    4bea:	cf 43 00 00 	mov.b	#0,	0(r15)	;r3 As==00, 0x0000(r15)
    4bee:	3f 50 18 00 	add	#24,	r15	;#0x0018
    4bf2:	3f 90 d2 15 	cmp	#5586,	r15	;#0x15d2
    4bf6:	f9 23       	jnz	$-12     	;abs 0x4bea
    4bf8:	30 41       	ret			

00004bfa <CC2420ReceiveP__reset_state>:
    4bfa:	f2 40 80 ff 8c 12 	mov.b	#-128,	&0x128c	;#0xff80
    4c00:	c2 43 d7 13 	mov.b	#0,	&0x13d7	;r3 As==00
    4c04:	c2 43 16 25 	mov.b	#0,	&0x2516	;r3 As==00
    4c08:	c2 43 f6 24 	mov.b	#0,	&0x24f6	;r3 As==00
    4c0c:	c2 43 92 13 	mov.b	#0,	&0x1392	;r3 As==00
    4c10:	30 41       	ret			

00004c12 <UdpP__UDP__bind>:
    4c12:	0b 12       	push	r11		
    4c14:	4d 4e       	mov.b	r14,	r13	
    4c16:	8d 10       	swpb	r13		
    4c18:	8e 10       	swpb	r14		
    4c1a:	4e 4e       	mov.b	r14,	r14	
    4c1c:	0e dd       	bis	r13,	r14	
    4c1e:	0e 93       	tst	r14		
    4c20:	0c 24       	jz	$+26     	;abs 0x4c3a
    4c22:	3c 40 0c 26 	mov	#9740,	r12	;#0x260c
    4c26:	0d 43       	clr	r13		
    4c28:	4b 4f       	mov.b	r15,	r11	
    4c2a:	0d 9b       	cmp	r11,	r13	
    4c2c:	02 24       	jz	$+6      	;abs 0x4c32
    4c2e:	2e 9c       	cmp	@r12,	r14	
    4c30:	0a 24       	jz	$+22     	;abs 0x4c46
    4c32:	1d 53       	inc	r13		
    4c34:	2c 53       	incd	r12		
    4c36:	2d 92       	cmp	#4,	r13	;r2 As==10
    4c38:	f8 23       	jnz	$-14     	;abs 0x4c2a
    4c3a:	4f 4f       	mov.b	r15,	r15	
    4c3c:	0f 5f       	rla	r15		
    4c3e:	8f 4e 0c 26 	mov	r14,	9740(r15);0x260c(r15)
    4c42:	4f 43       	clr.b	r15		
    4c44:	01 3c       	jmp	$+4      	;abs 0x4c48
    4c46:	5f 43       	mov.b	#1,	r15	;r3 As==01
    4c48:	3b 41       	pop	r11		
    4c4a:	30 41       	ret			

00004c4c <Msp430Adc12ImplP__resetAdcPin>:
    4c4c:	7f 92       	cmp.b	#8,	r15	;r2 As==11
    4c4e:	2c 2c       	jc	$+90     	;abs 0x4ca8
    4c50:	4f 4f       	mov.b	r15,	r15	
    4c52:	0f 5f       	rla	r15		
    4c54:	10 4f cc f5 	br	-2612(r15)	;0xf5cc(r15)
    4c58:	5f 42 37 00 	mov.b	&0x0037,r15	
    4c5c:	7f f0 fe ff 	and.b	#-2,	r15	;#0xfffe
    4c60:	1d 3c       	jmp	$+60     	;abs 0x4c9c
    4c62:	5f 42 37 00 	mov.b	&0x0037,r15	
    4c66:	7f f0 fd ff 	and.b	#-3,	r15	;#0xfffd
    4c6a:	18 3c       	jmp	$+50     	;abs 0x4c9c
    4c6c:	5f 42 37 00 	mov.b	&0x0037,r15	
    4c70:	7f f0 fb ff 	and.b	#-5,	r15	;#0xfffb
    4c74:	13 3c       	jmp	$+40     	;abs 0x4c9c
    4c76:	5f 42 37 00 	mov.b	&0x0037,r15	
    4c7a:	7f f0 f7 ff 	and.b	#-9,	r15	;#0xfff7
    4c7e:	0e 3c       	jmp	$+30     	;abs 0x4c9c
    4c80:	5f 42 37 00 	mov.b	&0x0037,r15	
    4c84:	7f f0 ef ff 	and.b	#-17,	r15	;#0xffef
    4c88:	09 3c       	jmp	$+20     	;abs 0x4c9c
    4c8a:	5f 42 37 00 	mov.b	&0x0037,r15	
    4c8e:	7f f0 df ff 	and.b	#-33,	r15	;#0xffdf
    4c92:	04 3c       	jmp	$+10     	;abs 0x4c9c
    4c94:	5f 42 37 00 	mov.b	&0x0037,r15	
    4c98:	7f f0 bf ff 	and.b	#-65,	r15	;#0xffbf
    4c9c:	c2 4f 37 00 	mov.b	r15,	&0x0037	
    4ca0:	30 41       	ret			
    4ca2:	f2 f0 7f 00 37 00 	and.b	#127,	&0x0037	;#0x007f
    4ca8:	30 41       	ret			

00004caa <Msp430Adc12ImplP__stopConversion>:
    4caa:	0b 12       	push	r11		
    4cac:	5f 42 c4 1b 	mov.b	&0x1bc4,r15	
    4cb0:	3f f0 40 00 	and	#64,	r15	;#0x0040
    4cb4:	03 24       	jz	$+8      	;abs 0x4cbc
    4cb6:	0f 43       	clr	r15		
    4cb8:	b0 12 d0 47 	call	#0x47d0	
    4cbc:	4f 43       	clr.b	r15		
    4cbe:	b0 12 60 4a 	call	#0x4a60	
    4cc2:	7f f0 0f 00 	and.b	#15,	r15	;#0x000f
    4cc6:	b0 12 4c 4c 	call	#0x4c4c	
    4cca:	5f 42 c4 1b 	mov.b	&0x1bc4,r15	
    4cce:	3f f0 10 00 	and	#16,	r15	;#0x0010
    4cd2:	0a 20       	jnz	$+22     	;abs 0x4ce8
    4cd4:	0d 3c       	jmp	$+28     	;abs 0x4cf0
    4cd6:	4f 4b       	mov.b	r11,	r15	
    4cd8:	b0 12 60 4a 	call	#0x4a60	
    4cdc:	7f f0 0f 00 	and.b	#15,	r15	;#0x000f
    4ce0:	b0 12 4c 4c 	call	#0x4c4c	
    4ce4:	5b 53       	inc.b	r11		
    4ce6:	01 3c       	jmp	$+4      	;abs 0x4cea
    4ce8:	5b 43       	mov.b	#1,	r11	;r3 As==01
    4cea:	5b 92 93 13 	cmp.b	&0x1393,r11	
    4cee:	f3 2b       	jnc	$-24     	;abs 0x4cd6
    4cf0:	b0 12 3a 4a 	call	#0x4a3a	
    4cf4:	82 43 a8 01 	mov	#0,	&0x01a8	;r3 As==00
    4cf8:	82 43 a4 01 	mov	#0,	&0x01a4	;r3 As==00
    4cfc:	f2 f0 df ff c4 1b 	and.b	#-33,	&0x1bc4	;#0xffdf
    4d02:	3b 41       	pop	r11		
    4d04:	30 41       	ret			

00004d06 <IPDispatchP__reconstruct_clear>:
    4d06:	0b 12       	push	r11		
    4d08:	0b 4f       	mov	r15,	r11	
    4d0a:	3d 40 0c 00 	mov	#12,	r13	;#0x000c
    4d0e:	0e 43       	clr	r14		
    4d10:	3f 50 10 00 	add	#16,	r15	;#0x0010
    4d14:	b0 12 74 ea 	call	#0xea74	
    4d18:	eb 43 0a 00 	mov.b	#2,	10(r11)	;r3 As==10, 0x000a(r11)
    4d1c:	8b 43 06 00 	mov	#0,	6(r11)	;r3 As==00, 0x0006(r11)
    4d20:	3b 41       	pop	r11		
    4d22:	30 41       	ret			

00004d24 <IPForwardingEngineP__ForwardingTable__lookupRoute>:
    4d24:	0b 12       	push	r11		
    4d26:	0a 12       	push	r10		
    4d28:	09 12       	push	r9		
    4d2a:	08 12       	push	r8		
    4d2c:	08 4f       	mov	r15,	r8	
    4d2e:	09 4e       	mov	r14,	r9	
    4d30:	3a 40 b2 18 	mov	#6322,	r10	;#0x18b2
    4d34:	0b 43       	clr	r11		
    4d36:	02 12       	push	r2		
    4d38:	32 c2       	dint			
    4d3a:	03 43       	nop			
    4d3c:	82 4b 32 01 	mov	r11,	&0x0132	
    4d40:	b2 40 28 00 38 01 	mov	#40,	&0x0138	;#0x0028
    4d46:	1e 42 3a 01 	mov	&0x013a,r14	
    4d4a:	32 41       	pop	r2		
    4d4c:	5d 4e 9e 18 	mov.b	6302(r14),r13	;0x189e(r14)
    4d50:	0d 11       	rra	r13		
    4d52:	0d 43       	clr	r13		
    4d54:	4d 10       	rrc.b	r13		
    4d56:	4d 4d       	mov.b	r13,	r13	
    4d58:	8d 11       	sxt	r13		
    4d5a:	8d 10       	swpb	r13		
    4d5c:	4d 93       	tst.b	r13		
    4d5e:	32 24       	jz	$+102    	;abs 0x4dc4
    4d60:	6d 4a       	mov.b	@r10,	r13	
    4d62:	4d 93       	tst.b	r13		
    4d64:	21 24       	jz	$+68     	;abs 0x4da8
    4d66:	4d 4d       	mov.b	r13,	r13	
    4d68:	09 9d       	cmp	r13,	r9	
    4d6a:	01 34       	jge	$+4      	;abs 0x4d6e
    4d6c:	0d 49       	mov	r9,	r13	
    4d6e:	0d 93       	tst	r13		
    4d70:	02 34       	jge	$+6      	;abs 0x4d76
    4d72:	3d 50 07 00 	add	#7,	r13	;#0x0007
    4d76:	0d 11       	rra	r13		
    4d78:	0d 11       	rra	r13		
    4d7a:	0d 11       	rra	r13		
    4d7c:	02 12       	push	r2		
    4d7e:	32 c2       	dint			
    4d80:	03 43       	nop			
    4d82:	82 4b 32 01 	mov	r11,	&0x0132	
    4d86:	b2 40 28 00 38 01 	mov	#40,	&0x0138	;#0x0028
    4d8c:	1c 42 3a 01 	mov	&0x013a,r12	
    4d90:	32 41       	pop	r2		
    4d92:	2c 52       	add	#4,	r12	;r2 As==10
    4d94:	0e 4c       	mov	r12,	r14	
    4d96:	3e 50 9e 18 	add	#6302,	r14	;#0x189e
    4d9a:	0f 48       	mov	r8,	r15	
    4d9c:	b0 12 22 e8 	call	#0xe822	
    4da0:	0f 93       	tst	r15		
    4da2:	10 20       	jnz	$+34     	;abs 0x4dc4
    4da4:	09 93       	tst	r9		
    4da6:	0e 24       	jz	$+30     	;abs 0x4dc4
    4da8:	02 12       	push	r2		
    4daa:	32 c2       	dint			
    4dac:	03 43       	nop			
    4dae:	82 4b 32 01 	mov	r11,	&0x0132	
    4db2:	b2 40 28 00 38 01 	mov	#40,	&0x0138	;#0x0028
    4db8:	1f 42 3a 01 	mov	&0x013a,r15	
    4dbc:	32 41       	pop	r2		
    4dbe:	3f 50 9e 18 	add	#6302,	r15	;#0x189e
    4dc2:	07 3c       	jmp	$+16     	;abs 0x4dd2
    4dc4:	1b 53       	inc	r11		
    4dc6:	3a 50 28 00 	add	#40,	r10	;#0x0028
    4dca:	3b 90 14 00 	cmp	#20,	r11	;#0x0014
    4dce:	b3 23       	jnz	$-152    	;abs 0x4d36
    4dd0:	0f 43       	clr	r15		
    4dd2:	38 41       	pop	r8		
    4dd4:	39 41       	pop	r9		
    4dd6:	3a 41       	pop	r10		
    4dd8:	3b 41       	pop	r11		
    4dda:	30 41       	ret			

00004ddc <IPDispatchP__lowpan_extern_match_context>:
    4ddc:	0b 12       	push	r11		
    4dde:	0a 12       	push	r10		
    4de0:	31 50 f0 ff 	add	#-16,	r1	;#0xfff0
    4de4:	0a 4f       	mov	r15,	r10	
    4de6:	0b 4e       	mov	r14,	r11	
    4de8:	0f 41       	mov	r1,	r15	
    4dea:	b0 12 1a 48 	call	#0x481a	
    4dee:	4f 93       	tst.b	r15		
    4df0:	0c 24       	jz	$+26     	;abs 0x4e0a
    4df2:	3d 42       	mov	#8,	r13	;r2 As==11
    4df4:	0e 4a       	mov	r10,	r14	
    4df6:	0f 41       	mov	r1,	r15	
    4df8:	b0 12 22 e8 	call	#0xe822	
    4dfc:	0f 93       	tst	r15		
    4dfe:	05 20       	jnz	$+12     	;abs 0x4e0a
    4e00:	cb 43 00 00 	mov.b	#0,	0(r11)	;r3 As==00, 0x0000(r11)
    4e04:	3f 40 40 00 	mov	#64,	r15	;#0x0040
    4e08:	01 3c       	jmp	$+4      	;abs 0x4e0c
    4e0a:	0f 43       	clr	r15		
    4e0c:	31 50 10 00 	add	#16,	r1	;#0x0010
    4e10:	3a 41       	pop	r10		
    4e12:	3b 41       	pop	r11		
    4e14:	30 41       	ret			

00004e16 <IPForwardingEngineP__ForwardingTable__delRoute>:
    4e16:	3e 40 a0 18 	mov	#6304,	r14	;#0x18a0
    4e1a:	0c 43       	clr	r12		
    4e1c:	2f 9e       	cmp	@r14,	r15	
    4e1e:	31 20       	jnz	$+100    	;abs 0x4e82
    4e20:	3f 40 13 00 	mov	#19,	r15	;#0x0013
    4e24:	0f 8c       	sub	r12,	r15	
    4e26:	02 12       	push	r2		
    4e28:	32 c2       	dint			
    4e2a:	03 43       	nop			
    4e2c:	82 4f 32 01 	mov	r15,	&0x0132	
    4e30:	b2 40 28 00 38 01 	mov	#40,	&0x0138	;#0x0028
    4e36:	1d 42 3a 01 	mov	&0x013a,r13	
    4e3a:	32 41       	pop	r2		
    4e3c:	0f 4c       	mov	r12,	r15	
    4e3e:	1f 53       	inc	r15		
    4e40:	02 12       	push	r2		
    4e42:	32 c2       	dint			
    4e44:	03 43       	nop			
    4e46:	82 4f 32 01 	mov	r15,	&0x0132	
    4e4a:	b2 40 28 00 38 01 	mov	#40,	&0x0138	;#0x0028
    4e50:	1e 42 3a 01 	mov	&0x013a,r14	
    4e54:	32 41       	pop	r2		
    4e56:	3e 50 9e 18 	add	#6302,	r14	;#0x189e
    4e5a:	02 12       	push	r2		
    4e5c:	32 c2       	dint			
    4e5e:	03 43       	nop			
    4e60:	82 4c 32 01 	mov	r12,	&0x0132	
    4e64:	b2 40 28 00 38 01 	mov	#40,	&0x0138	;#0x0028
    4e6a:	1f 42 3a 01 	mov	&0x013a,r15	
    4e6e:	32 41       	pop	r2		
    4e70:	3f 50 9e 18 	add	#6302,	r15	;#0x189e
    4e74:	b0 12 7a e9 	call	#0xe97a	
    4e78:	f2 f0 fe ff 96 1b 	and.b	#-2,	&0x1b96	;#0xfffe
    4e7e:	4f 43       	clr.b	r15		
    4e80:	30 41       	ret			
    4e82:	1c 53       	inc	r12		
    4e84:	3e 50 28 00 	add	#40,	r14	;#0x0028
    4e88:	3c 90 14 00 	cmp	#20,	r12	;#0x0014
    4e8c:	c7 23       	jnz	$-112    	;abs 0x4e1c
    4e8e:	5f 43       	mov.b	#1,	r15	;r3 As==01
    4e90:	30 41       	ret			

00004e92 <IPNeighborDiscoveryP__NeighborDiscovery__setPrefix>:
    4e92:	0b 12       	push	r11		
    4e94:	0a 12       	push	r10		
    4e96:	09 12       	push	r9		
    4e98:	08 12       	push	r8		
    4e9a:	08 4f       	mov	r15,	r8	
    4e9c:	49 4e       	mov.b	r14,	r9	
    4e9e:	0a 4c       	mov	r12,	r10	
    4ea0:	0b 4d       	mov	r13,	r11	
    4ea2:	3d 40 10 00 	mov	#16,	r13	;#0x0010
    4ea6:	3e 40 7e 13 	mov	#4990,	r14	;#0x137e
    4eaa:	b0 12 22 e8 	call	#0xe822	
    4eae:	0f 93       	tst	r15		
    4eb0:	03 20       	jnz	$+8      	;abs 0x4eb8
    4eb2:	59 92 22 12 	cmp.b	&0x1222,r9	
    4eb6:	15 24       	jz	$+44     	;abs 0x4ee2
    4eb8:	3d 40 10 00 	mov	#16,	r13	;#0x0010
    4ebc:	0e 48       	mov	r8,	r14	
    4ebe:	3f 40 7e 13 	mov	#4990,	r15	;#0x137e
    4ec2:	b0 12 1a e6 	call	#0xe61a	
    4ec6:	c2 49 22 12 	mov.b	r9,	&0x1222	
    4eca:	82 4a 1e 12 	mov	r10,	&0x121e	
    4ece:	82 4b 20 12 	mov	r11,	&0x1220	
    4ed2:	92 41 0a 00 1a 12 	mov	10(r1),	&0x121a	;0x000a(r1)
    4ed8:	92 41 0c 00 1c 12 	mov	12(r1),	&0x121c	;0x000c(r1)
    4ede:	d2 43 18 12 	mov.b	#1,	&0x1218	;r3 As==01
    4ee2:	38 41       	pop	r8		
    4ee4:	39 41       	pop	r9		
    4ee6:	3a 41       	pop	r10		
    4ee8:	3b 41       	pop	r11		
    4eea:	30 41       	ret			

00004eec <HplMsp430Usart0P__Usart__resetUsart>:
    4eec:	4f 93       	tst.b	r15		
    4eee:	03 24       	jz	$+8      	;abs 0x4ef6
    4ef0:	d2 43 70 00 	mov.b	#1,	&0x0070	;r3 As==01
    4ef4:	30 41       	ret			
    4ef6:	f2 f0 fe ff 70 00 	and.b	#-2,	&0x0070	;#0xfffe
    4efc:	30 41       	ret			

00004efe <SchedulerBasicP__popTask.part.165>:
    4efe:	5f 42 f7 24 	mov.b	&0x24f7,r15	
    4f02:	4e 4f       	mov.b	r15,	r14	
    4f04:	3e 50 44 13 	add	#4932,	r14	;#0x1344
    4f08:	6d 4e       	mov.b	@r14,	r13	
    4f0a:	c2 4d f7 24 	mov.b	r13,	&0x24f7	
    4f0e:	7d 93       	cmp.b	#-1,	r13	;r3 As==11
    4f10:	02 20       	jnz	$+6      	;abs 0x4f16
    4f12:	f2 43 0b 26 	mov.b	#-1,	&0x260b	;r3 As==11
    4f16:	fe 43 00 00 	mov.b	#-1,	0(r14)	;r3 As==11, 0x0000(r14)
    4f1a:	30 41       	ret			

00004f1c <Msp430TimerP__0__Event__fired>:
    4f1c:	5f 93       	cmp.b	#1,	r15	;r3 As==01
    4f1e:	0c 24       	jz	$+26     	;abs 0x4f38
    4f20:	03 28       	jnc	$+8      	;abs 0x4f28
    4f22:	6f 93       	cmp.b	#2,	r15	;r3 As==10
    4f24:	18 20       	jnz	$+50     	;abs 0x4f56
    4f26:	10 3c       	jmp	$+34     	;abs 0x4f48
    4f28:	1f 42 62 01 	mov	&0x0162,r15	
    4f2c:	8f 10       	swpb	r15		
    4f2e:	5f f3       	and.b	#1,	r15	;r3 As==01
    4f30:	12 24       	jz	$+38     	;abs 0x4f56
    4f32:	1f 42 72 01 	mov	&0x0172,r15	
    4f36:	30 41       	ret			
    4f38:	1f 42 64 01 	mov	&0x0164,r15	
    4f3c:	8f 10       	swpb	r15		
    4f3e:	5f f3       	and.b	#1,	r15	;r3 As==01
    4f40:	0a 24       	jz	$+22     	;abs 0x4f56
    4f42:	1f 42 74 01 	mov	&0x0174,r15	
    4f46:	30 41       	ret			
    4f48:	1f 42 66 01 	mov	&0x0166,r15	
    4f4c:	8f 10       	swpb	r15		
    4f4e:	5f f3       	and.b	#1,	r15	;r3 As==01
    4f50:	02 24       	jz	$+6      	;abs 0x4f56
    4f52:	1f 42 76 01 	mov	&0x0176,r15	
    4f56:	30 41       	ret			

00004f58 <Msp430SpiNoDmaP__0__ResourceConfigure__unconfigure.isra.185>:
    4f58:	5f 43       	mov.b	#1,	r15	;r3 As==01
    4f5a:	b0 12 ec 4e 	call	#0x4eec	
    4f5e:	f2 f0 bf ff 04 00 	and.b	#-65,	&0x0004	;#0xffbf
    4f64:	3f 40 1b 00 	mov	#27,	r15	;#0x001b
    4f68:	ff f0 fd ff 00 00 	and.b	#-3,	0(r15)	;#0xfffd, 0x0000(r15)
    4f6e:	ff f0 fb ff 00 00 	and.b	#-5,	0(r15)	;#0xfffb, 0x0000(r15)
    4f74:	ff f0 f7 ff 00 00 	and.b	#-9,	0(r15)	;#0xfff7, 0x0000(r15)
    4f7a:	4f 43       	clr.b	r15		
    4f7c:	b0 12 ec 4e 	call	#0x4eec	
    4f80:	30 41       	ret			

00004f82 <ArbiterP__0__ResourceConfigure__unconfigure>:
    4f82:	4f 93       	tst.b	r15		
    4f84:	03 24       	jz	$+8      	;abs 0x4f8c
    4f86:	5f 93       	cmp.b	#1,	r15	;r3 As==01
    4f88:	06 20       	jnz	$+14     	;abs 0x4f96
    4f8a:	03 3c       	jmp	$+8      	;abs 0x4f92
    4f8c:	b0 12 58 4f 	call	#0x4f58	
    4f90:	30 41       	ret			
    4f92:	b0 12 58 4f 	call	#0x4f58	
    4f96:	30 41       	ret			

00004f98 <RPLDAORoutingEngineP__0__SendPool__put>:
    4f98:	5d 42 82 12 	mov.b	&0x1282,r13	
    4f9c:	7d 90 05 00 	cmp.b	#5,	r13	;#0x0005
    4fa0:	11 2c       	jc	$+36     	;abs 0x4fc4
    4fa2:	5e 42 f4 1c 	mov.b	&0x1cf4,r14	
    4fa6:	4c 4d       	mov.b	r13,	r12	
    4fa8:	0e 5c       	add	r12,	r14	
    4faa:	3e 90 05 00 	cmp	#5,	r14	;#0x0005
    4fae:	02 28       	jnc	$+6      	;abs 0x4fb4
    4fb0:	3e 50 fb ff 	add	#-5,	r14	;#0xfffb
    4fb4:	0e 5e       	rla	r14		
    4fb6:	8e 4f c4 13 	mov	r15,	5060(r14);0x13c4(r14)
    4fba:	5d 53       	inc.b	r13		
    4fbc:	c2 4d 82 12 	mov.b	r13,	&0x1282	
    4fc0:	4f 43       	clr.b	r15		
    4fc2:	30 41       	ret			
    4fc4:	5f 43       	mov.b	#1,	r15	;r3 As==01
    4fc6:	30 41       	ret			

00004fc8 <RPLDAORoutingEngineP__0__SendQueue__enqueue.part.189>:
    4fc8:	5d 42 c0 11 	mov.b	&0x11c0,r13	
    4fcc:	4e 4d       	mov.b	r13,	r14	
    4fce:	0e 5e       	rla	r14		
    4fd0:	8e 4f 4a 1d 	mov	r15,	7498(r14);0x1d4a(r14)
    4fd4:	4f 4d       	mov.b	r13,	r15	
    4fd6:	5f 53       	inc.b	r15		
    4fd8:	c2 4f c0 11 	mov.b	r15,	&0x11c0	
    4fdc:	7f 90 05 00 	cmp.b	#5,	r15	;#0x0005
    4fe0:	02 20       	jnz	$+6      	;abs 0x4fe6
    4fe2:	c2 43 c0 11 	mov.b	#0,	&0x11c0	;r3 As==00
    4fe6:	d2 53 be 11 	inc.b	&0x11be	
    4fea:	4f 43       	clr.b	r15		
    4fec:	30 41       	ret			

00004fee <IPNeighborDiscoveryP__NeighborDiscovery__resolveAddress>:
    4fee:	bf 90 fe 80 00 00 	cmp	#-32514,0(r15)	;#0x80fe, 0x0000(r15)
    4ff4:	29 20       	jnz	$+84     	;abs 0x5048
    4ff6:	6d 4e       	mov.b	@r14,	r13	
    4ff8:	bf 90 00 ff 0a 00 	cmp	#-256,	10(r15)	;#0xff00, 0x000a(r15)
    4ffe:	13 20       	jnz	$+40     	;abs 0x5026
    5000:	bf 90 fe 00 0c 00 	cmp	#254,	12(r15)	;#0x00fe, 0x000c(r15)
    5006:	0f 20       	jnz	$+32     	;abs 0x5026
    5008:	7d f0 fc ff 	and.b	#-4,	r13	;#0xfffc
    500c:	6d d3       	bis.b	#2,	r13	;r3 As==10
    500e:	ce 4d 00 00 	mov.b	r13,	0(r14)	;0x0000(r14)
    5012:	1d 4f 0e 00 	mov	14(r15),r13	;0x000e(r15)
    5016:	4f 4d       	mov.b	r13,	r15	
    5018:	8f 10       	swpb	r15		
    501a:	8d 10       	swpb	r13		
    501c:	4d 4d       	mov.b	r13,	r13	
    501e:	0d df       	bis	r15,	r13	
    5020:	8e 4d 02 00 	mov	r13,	2(r14)	;0x0002(r14)
    5024:	22 3c       	jmp	$+70     	;abs 0x506a
    5026:	7d d0 03 00 	bis.b	#3,	r13	;#0x0003
    502a:	ce 4d 00 00 	mov.b	r13,	0(r14)	;0x0000(r14)
    502e:	0d 43       	clr	r13		
    5030:	0c 4e       	mov	r14,	r12	
    5032:	0c 5d       	add	r13,	r12	
    5034:	dc 4f 0f 00 02 00 	mov.b	15(r15),2(r12)	;0x000f(r15), 0x0002(r12)
    503a:	1d 53       	inc	r13		
    503c:	3f 53       	add	#-1,	r15	;r3 As==11
    503e:	3d 92       	cmp	#8,	r13	;r2 As==11
    5040:	f7 23       	jnz	$-16     	;abs 0x5030
    5042:	ee e3 09 00 	xor.b	#2,	9(r14)	;r3 As==10, 0x0009(r14)
    5046:	11 3c       	jmp	$+36     	;abs 0x506a
    5048:	ff 93 00 00 	cmp.b	#-1,	0(r15)	;r3 As==11, 0x0000(r15)
    504c:	10 20       	jnz	$+34     	;abs 0x506e
    504e:	5f 4f 01 00 	mov.b	1(r15),	r15	;0x0001(r15)
    5052:	3f f0 0f 00 	and	#15,	r15	;#0x000f
    5056:	2f 93       	cmp	#2,	r15	;r3 As==10
    5058:	0c 20       	jnz	$+26     	;abs 0x5072
    505a:	6f 4e       	mov.b	@r14,	r15	
    505c:	7f f0 fc ff 	and.b	#-4,	r15	;#0xfffc
    5060:	6f d3       	bis.b	#2,	r15	;r3 As==10
    5062:	ce 4f 00 00 	mov.b	r15,	0(r14)	;0x0000(r14)
    5066:	be 43 02 00 	mov	#-1,	2(r14)	;r3 As==11, 0x0002(r14)
    506a:	4f 43       	clr.b	r15		
    506c:	30 41       	ret			
    506e:	5f 43       	mov.b	#1,	r15	;r3 As==01
    5070:	30 41       	ret			
    5072:	5f 43       	mov.b	#1,	r15	;r3 As==01
    5074:	30 41       	ret			

00005076 <IPDispatchP__SendEntryPool__put>:
    5076:	5d 42 9a 18 	mov.b	&0x189a,r13	
    507a:	7d 90 0c 00 	cmp.b	#12,	r13	;#0x000c
    507e:	11 2c       	jc	$+36     	;abs 0x50a2
    5080:	5e 42 96 25 	mov.b	&0x2596,r14	
    5084:	4c 4d       	mov.b	r13,	r12	
    5086:	0e 5c       	add	r12,	r14	
    5088:	3e 90 0c 00 	cmp	#12,	r14	;#0x000c
    508c:	02 28       	jnc	$+6      	;abs 0x5092
    508e:	3e 50 f4 ff 	add	#-12,	r14	;#0xfff4
    5092:	0e 5e       	rla	r14		
    5094:	8e 4f 22 26 	mov	r15,	9762(r14);0x2622(r14)
    5098:	5d 53       	inc.b	r13		
    509a:	c2 4d 9a 18 	mov.b	r13,	&0x189a	
    509e:	4f 43       	clr.b	r15		
    50a0:	30 41       	ret			
    50a2:	5f 43       	mov.b	#1,	r15	;r3 As==01
    50a4:	30 41       	ret			

000050a6 <IPDispatchP__FragPool__put>:
    50a6:	5d 42 9b 18 	mov.b	&0x189b,r13	
    50aa:	7d 90 0c 00 	cmp.b	#12,	r13	;#0x000c
    50ae:	11 2c       	jc	$+36     	;abs 0x50d2
    50b0:	5e 42 e2 15 	mov.b	&0x15e2,r14	
    50b4:	4c 4d       	mov.b	r13,	r12	
    50b6:	0e 5c       	add	r12,	r14	
    50b8:	3e 90 0c 00 	cmp	#12,	r14	;#0x000c
    50bc:	02 28       	jnc	$+6      	;abs 0x50c2
    50be:	3e 50 f4 ff 	add	#-12,	r14	;#0xfff4
    50c2:	0e 5e       	rla	r14		
    50c4:	8e 4f 08 1d 	mov	r15,	7432(r14);0x1d08(r14)
    50c8:	5d 53       	inc.b	r13		
    50ca:	c2 4d 9b 18 	mov.b	r13,	&0x189b	
    50ce:	4f 43       	clr.b	r15		
    50d0:	30 41       	ret			
    50d2:	5f 43       	mov.b	#1,	r15	;r3 As==01
    50d4:	30 41       	ret			

000050d6 <IPDispatchP__SENDINFO_DECR>:
    50d6:	5e 4f 06 00 	mov.b	6(r15),	r14	;0x0006(r15)
    50da:	7e 53       	add.b	#-1,	r14	;r3 As==11
    50dc:	cf 4e 06 00 	mov.b	r14,	6(r15)	;0x0006(r15)
    50e0:	14 20       	jnz	$+42     	;abs 0x510a
    50e2:	5d 42 ac 13 	mov.b	&0x13ac,r13	
    50e6:	7d 90 03 00 	cmp.b	#3,	r13	;#0x0003
    50ea:	0f 2c       	jc	$+32     	;abs 0x510a
    50ec:	5e 42 8d 12 	mov.b	&0x128d,r14	
    50f0:	4c 4d       	mov.b	r13,	r12	
    50f2:	0e 5c       	add	r12,	r14	
    50f4:	3e 90 03 00 	cmp	#3,	r14	;#0x0003
    50f8:	02 28       	jnc	$+6      	;abs 0x50fe
    50fa:	3e 50 fd ff 	add	#-3,	r14	;#0xfffd
    50fe:	0e 5e       	rla	r14		
    5100:	8e 4f 10 25 	mov	r15,	9488(r14);0x2510(r14)
    5104:	5d 53       	inc.b	r13		
    5106:	c2 4d ac 13 	mov.b	r13,	&0x13ac	
    510a:	30 41       	ret			

0000510c <IPForwardingEngineP__Pool__put.part.194>:
    510c:	5d 42 8e 13 	mov.b	&0x138e,r13	
    5110:	5e 42 54 26 	mov.b	&0x2654,r14	
    5114:	4c 4d       	mov.b	r13,	r12	
    5116:	0e 5c       	add	r12,	r14	
    5118:	3e 90 03 00 	cmp	#3,	r14	;#0x0003
    511c:	02 28       	jnc	$+6      	;abs 0x5122
    511e:	3e 50 fd ff 	add	#-3,	r14	;#0xfffd
    5122:	0e 5e       	rla	r14		
    5124:	8e 4f 5a 12 	mov	r15,	4698(r14);0x125a(r14)
    5128:	5d 53       	inc.b	r13		
    512a:	c2 4d 8e 13 	mov.b	r13,	&0x138e	
    512e:	4f 43       	clr.b	r15		
    5130:	30 41       	ret			

00005132 <IPDispatchP__SendQueue__dequeue.part.196>:
    5132:	5f 42 f4 11 	mov.b	&0x11f4,r15	
    5136:	5f 53       	inc.b	r15		
    5138:	c2 4f f4 11 	mov.b	r15,	&0x11f4	
    513c:	7f 90 0c 00 	cmp.b	#12,	r15	;#0x000c
    5140:	02 20       	jnz	$+6      	;abs 0x5146
    5142:	c2 43 f4 11 	mov.b	#0,	&0x11f4	;r3 As==00
    5146:	f2 53 f0 11 	add.b	#-1,	&0x11f0	;r3 As==11
    514a:	30 41       	ret			

0000514c <RPLRankP__getParent>:
    514c:	0b 12       	push	r11		
    514e:	0a 12       	push	r10		
    5150:	09 12       	push	r9		
    5152:	08 12       	push	r8		
    5154:	08 4f       	mov	r15,	r8	
    5156:	c2 93 ea 11 	tst.b	&0x11ea	
    515a:	22 24       	jz	$+70     	;abs 0x51a0
    515c:	3a 40 f2 13 	mov	#5106,	r10	;#0x13f2
    5160:	0b 43       	clr	r11		
    5162:	49 4b       	mov.b	r11,	r9	
    5164:	02 12       	push	r2		
    5166:	32 c2       	dint			
    5168:	03 43       	nop			
    516a:	82 4b 32 01 	mov	r11,	&0x0132	
    516e:	b2 40 18 00 38 01 	mov	#24,	&0x0138	;#0x0018
    5174:	1c 42 3a 01 	mov	&0x013a,r12	
    5178:	32 41       	pop	r2		
    517a:	3d 40 10 00 	mov	#16,	r13	;#0x0010
    517e:	0e 48       	mov	r8,	r14	
    5180:	0f 4c       	mov	r12,	r15	
    5182:	3f 50 dc 13 	add	#5084,	r15	;#0x13dc
    5186:	b0 12 22 e8 	call	#0xe822	
    518a:	0f 93       	tst	r15		
    518c:	03 20       	jnz	$+8      	;abs 0x5194
    518e:	ca 93 00 00 	tst.b	0(r10)		;0x0000(r10)
    5192:	08 20       	jnz	$+18     	;abs 0x51a4
    5194:	1b 53       	inc	r11		
    5196:	3a 50 18 00 	add	#24,	r10	;#0x0018
    519a:	3b 90 14 00 	cmp	#20,	r11	;#0x0014
    519e:	e1 23       	jnz	$-60     	;abs 0x5162
    51a0:	79 40 14 00 	mov.b	#20,	r9	;#0x0014
    51a4:	4f 49       	mov.b	r9,	r15	
    51a6:	38 41       	pop	r8		
    51a8:	39 41       	pop	r9		
    51aa:	3a 41       	pop	r10		
    51ac:	3b 41       	pop	r11		
    51ae:	30 41       	ret			

000051b0 <IPDispatchP__pack_address.isra.199>:
    51b0:	0b 12       	push	r11		
    51b2:	0a 12       	push	r10		
    51b4:	09 12       	push	r9		
    51b6:	08 12       	push	r8		
    51b8:	07 12       	push	r7		
    51ba:	0a 4f       	mov	r15,	r10	
    51bc:	0b 4e       	mov	r14,	r11	
    51be:	07 4d       	mov	r13,	r7	
    51c0:	08 4c       	mov	r12,	r8	
    51c2:	19 41 0c 00 	mov	12(r1),	r9	;0x000c(r1)
    51c6:	c9 43 00 00 	mov.b	#0,	0(r9)	;r3 As==00, 0x0000(r9)
    51ca:	2f 4e       	mov	@r14,	r15	
    51cc:	3f 90 fe 80 	cmp	#-32514,r15	;#0x80fe
    51d0:	51 20       	jnz	$+164    	;abs 0x5274
    51d2:	8e 93 02 00 	tst	2(r14)		;0x0002(r14)
    51d6:	4e 20       	jnz	$+158    	;abs 0x5274
    51d8:	8e 93 04 00 	tst	4(r14)		;0x0004(r14)
    51dc:	4b 20       	jnz	$+152    	;abs 0x5274
    51de:	8e 93 06 00 	tst	6(r14)		;0x0006(r14)
    51e2:	48 20       	jnz	$+146    	;abs 0x5274
    51e4:	8e 93 08 00 	tst	8(r14)		;0x0008(r14)
    51e8:	11 20       	jnz	$+36     	;abs 0x520c
    51ea:	8e 93 0a 00 	tst	10(r14)	;0x000a(r14)
    51ee:	0e 20       	jnz	$+30     	;abs 0x520c
    51f0:	8e 93 0c 00 	tst	12(r14)	;0x000c(r14)
    51f4:	0b 20       	jnz	$+24     	;abs 0x520c
    51f6:	e9 43 00 00 	mov.b	#2,	0(r9)	;r3 As==10, 0x0000(r9)
    51fa:	3b 50 0e 00 	add	#14,	r11	;#0x000e
    51fe:	ea 4b 00 00 	mov.b	@r11,	0(r10)	;0x0000(r10)
    5202:	da 4b 01 00 01 00 	mov.b	1(r11),	1(r10)	;0x0001(r11), 0x0001(r10)
    5208:	2a 53       	incd	r10		
    520a:	a3 3c       	jmp	$+328    	;abs 0x5352
    520c:	bb 90 00 ff 0a 00 	cmp	#-256,	10(r11)	;#0xff00, 0x000a(r11)
    5212:	14 20       	jnz	$+42     	;abs 0x523c
    5214:	bb 90 fe 00 0c 00 	cmp	#254,	12(r11)	;#0x00fe, 0x000c(r11)
    521a:	10 20       	jnz	$+34     	;abs 0x523c
    521c:	6f 48       	mov.b	@r8,	r15	
    521e:	7f f0 03 00 	and.b	#3,	r15	;#0x0003
    5222:	6f 93       	cmp.b	#2,	r15	;r3 As==10
    5224:	0b 20       	jnz	$+24     	;abs 0x523c
    5226:	1e 48 02 00 	mov	2(r8),	r14	;0x0002(r8)
    522a:	0f 4e       	mov	r14,	r15	
    522c:	8f 10       	swpb	r15		
    522e:	4f 4f       	mov.b	r15,	r15	
    5230:	4e 4e       	mov.b	r14,	r14	
    5232:	8e 10       	swpb	r14		
    5234:	0f de       	bis	r14,	r15	
    5236:	8b 9f 0e 00 	cmp	r15,	14(r11)	;0x000e(r11)
    523a:	0e 24       	jz	$+30     	;abs 0x5258
    523c:	6f 48       	mov.b	@r8,	r15	
    523e:	7f f0 03 00 	and.b	#3,	r15	;#0x0003
    5242:	7f 90 03 00 	cmp.b	#3,	r15	;#0x0003
    5246:	0c 20       	jnz	$+26     	;abs 0x5260
    5248:	0e 48       	mov	r8,	r14	
    524a:	2e 53       	incd	r14		
    524c:	0f 4b       	mov	r11,	r15	
    524e:	3f 52       	add	#8,	r15	;r2 As==11
    5250:	b0 12 f0 4a 	call	#0x4af0	
    5254:	0f 93       	tst	r15		
    5256:	04 24       	jz	$+10     	;abs 0x5260
    5258:	f9 40 03 00 00 00 	mov.b	#3,	0(r9)	;#0x0003, 0x0000(r9)
    525e:	79 3c       	jmp	$+244    	;abs 0x5352
    5260:	d9 43 00 00 	mov.b	#1,	0(r9)	;r3 As==01, 0x0000(r9)
    5264:	3d 42       	mov	#8,	r13	;r2 As==11
    5266:	0e 4b       	mov	r11,	r14	
    5268:	3e 52       	add	#8,	r14	;r2 As==11
    526a:	0f 4a       	mov	r10,	r15	
    526c:	b0 12 80 e8 	call	#0xe880	
    5270:	3a 52       	add	#8,	r10	;r2 As==11
    5272:	6f 3c       	jmp	$+224    	;abs 0x5352
    5274:	17 93       	cmp	#1,	r7	;r3 As==01
    5276:	4b 38       	jl	$+152    	;abs 0x530e
    5278:	e9 42 00 00 	mov.b	#4,	0(r9)	;r2 As==10, 0x0000(r9)
    527c:	37 90 80 00 	cmp	#128,	r7	;#0x0080
    5280:	2a 24       	jz	$+86     	;abs 0x52d6
    5282:	3d 40 70 00 	mov	#112,	r13	;#0x0070
    5286:	0e 47       	mov	r7,	r14	
    5288:	0f 4b       	mov	r11,	r15	
    528a:	b0 12 40 4b 	call	#0x4b40	
    528e:	0f 93       	tst	r15		
    5290:	0c 20       	jnz	$+26     	;abs 0x52aa
    5292:	f9 40 06 00 00 00 	mov.b	#6,	0(r9)	;#0x0006, 0x0000(r9)
    5298:	3b 50 0e 00 	add	#14,	r11	;#0x000e
    529c:	ea 4b 00 00 	mov.b	@r11,	0(r10)	;0x0000(r10)
    52a0:	da 4b 01 00 01 00 	mov.b	1(r11),	1(r10)	;0x0001(r11), 0x0001(r10)
    52a6:	2f 43       	mov	#2,	r15	;r3 As==10
    52a8:	30 3c       	jmp	$+98     	;abs 0x530a
    52aa:	3d 40 40 00 	mov	#64,	r13	;#0x0040
    52ae:	0e 47       	mov	r7,	r14	
    52b0:	0f 4b       	mov	r11,	r15	
    52b2:	b0 12 40 4b 	call	#0x4b40	
    52b6:	0f 93       	tst	r15		
    52b8:	1e 20       	jnz	$+62     	;abs 0x52f6
    52ba:	6f 48       	mov.b	@r8,	r15	
    52bc:	7f f0 03 00 	and.b	#3,	r15	;#0x0003
    52c0:	7f 90 03 00 	cmp.b	#3,	r15	;#0x0003
    52c4:	0d 20       	jnz	$+28     	;abs 0x52e0
    52c6:	0e 48       	mov	r8,	r14	
    52c8:	2e 53       	incd	r14		
    52ca:	0f 4b       	mov	r11,	r15	
    52cc:	3f 52       	add	#8,	r15	;r2 As==11
    52ce:	b0 12 f0 4a 	call	#0x4af0	
    52d2:	0f 93       	tst	r15		
    52d4:	05 24       	jz	$+12     	;abs 0x52e0
    52d6:	f9 40 07 00 00 00 	mov.b	#7,	0(r9)	;#0x0007, 0x0000(r9)
    52dc:	0f 43       	clr	r15		
    52de:	15 3c       	jmp	$+44     	;abs 0x530a
    52e0:	f9 40 05 00 00 00 	mov.b	#5,	0(r9)	;#0x0005, 0x0000(r9)
    52e6:	3d 42       	mov	#8,	r13	;r2 As==11
    52e8:	0e 4b       	mov	r11,	r14	
    52ea:	3e 52       	add	#8,	r14	;r2 As==11
    52ec:	0f 4a       	mov	r10,	r15	
    52ee:	b0 12 80 e8 	call	#0xe880	
    52f2:	3f 42       	mov	#8,	r15	;r2 As==11
    52f4:	0a 3c       	jmp	$+22     	;abs 0x530a
    52f6:	c9 43 00 00 	mov.b	#0,	0(r9)	;r3 As==00, 0x0000(r9)
    52fa:	3d 40 10 00 	mov	#16,	r13	;#0x0010
    52fe:	0e 4b       	mov	r11,	r14	
    5300:	0f 4a       	mov	r10,	r15	
    5302:	b0 12 80 e8 	call	#0xe880	
    5306:	3f 40 10 00 	mov	#16,	r15	;#0x0010
    530a:	0a 5f       	add	r15,	r10	
    530c:	22 3c       	jmp	$+70     	;abs 0x5352
    530e:	0f 93       	tst	r15		
    5310:	18 20       	jnz	$+50     	;abs 0x5342
    5312:	8b 93 02 00 	tst	2(r11)		;0x0002(r11)
    5316:	15 20       	jnz	$+44     	;abs 0x5342
    5318:	8b 93 04 00 	tst	4(r11)		;0x0004(r11)
    531c:	12 20       	jnz	$+38     	;abs 0x5342
    531e:	8b 93 06 00 	tst	6(r11)		;0x0006(r11)
    5322:	0f 20       	jnz	$+32     	;abs 0x5342
    5324:	8b 93 08 00 	tst	8(r11)		;0x0008(r11)
    5328:	0c 20       	jnz	$+26     	;abs 0x5342
    532a:	8b 93 0a 00 	tst	10(r11)	;0x000a(r11)
    532e:	09 20       	jnz	$+20     	;abs 0x5342
    5330:	8b 93 0c 00 	tst	12(r11)	;0x000c(r11)
    5334:	06 20       	jnz	$+14     	;abs 0x5342
    5336:	8b 93 0e 00 	tst	14(r11)	;0x000e(r11)
    533a:	03 20       	jnz	$+8      	;abs 0x5342
    533c:	e9 42 00 00 	mov.b	#4,	0(r9)	;r2 As==10, 0x0000(r9)
    5340:	08 3c       	jmp	$+18     	;abs 0x5352
    5342:	3d 40 10 00 	mov	#16,	r13	;#0x0010
    5346:	0e 4b       	mov	r11,	r14	
    5348:	0f 4a       	mov	r10,	r15	
    534a:	b0 12 80 e8 	call	#0xe880	
    534e:	3a 50 10 00 	add	#16,	r10	;#0x0010
    5352:	0f 4a       	mov	r10,	r15	
    5354:	37 41       	pop	r7		
    5356:	38 41       	pop	r8		
    5358:	39 41       	pop	r9		
    535a:	3a 41       	pop	r10		
    535c:	3b 41       	pop	r11		
    535e:	30 41       	ret			

00005360 <IPDispatchP__pack_ieee154_header.isra.201>:
    5360:	0b 12       	push	r11		
    5362:	0a 12       	push	r10		
    5364:	09 12       	push	r9		
    5366:	21 83       	decd	r1		
    5368:	0a 4f       	mov	r15,	r10	
    536a:	0b 4e       	mov	r14,	r11	
    536c:	3f 50 06 00 	add	#6,	r15	;#0x0006
    5370:	5e 4e 0a 00 	mov.b	10(r14),r14	;0x000a(r14)
    5374:	7e f0 03 00 	and.b	#3,	r14	;#0x0003
    5378:	6e 93       	cmp.b	#2,	r14	;r3 As==10
    537a:	0b 20       	jnz	$+24     	;abs 0x5392
    537c:	91 4b 0c 00 00 00 	mov	12(r11),0(r1)	;0x000c(r11), 0x0000(r1)
    5382:	ef 41 00 00 	mov.b	@r1,	0(r15)	;0x0000(r15)
    5386:	df 41 01 00 01 00 	mov.b	1(r1),	1(r15)	;0x0001(r1), 0x0001(r15)
    538c:	09 4a       	mov	r10,	r9	
    538e:	39 52       	add	#8,	r9	;r2 As==11
    5390:	09 3c       	jmp	$+20     	;abs 0x53a4
    5392:	3d 42       	mov	#8,	r13	;r2 As==11
    5394:	0e 4b       	mov	r11,	r14	
    5396:	3e 50 0c 00 	add	#12,	r14	;#0x000c
    539a:	b0 12 80 e8 	call	#0xe880	
    539e:	09 4a       	mov	r10,	r9	
    53a0:	39 50 0e 00 	add	#14,	r9	;#0x000e
    53a4:	6f 4b       	mov.b	@r11,	r15	
    53a6:	7f f0 03 00 	and.b	#3,	r15	;#0x0003
    53aa:	6f 93       	cmp.b	#2,	r15	;r3 As==10
    53ac:	0b 20       	jnz	$+24     	;abs 0x53c4
    53ae:	91 4b 02 00 00 00 	mov	2(r11),	0(r1)	;0x0002(r11), 0x0000(r1)
    53b4:	e9 41 00 00 	mov.b	@r1,	0(r9)	;0x0000(r9)
    53b8:	d9 41 01 00 01 00 	mov.b	1(r1),	1(r9)	;0x0001(r1), 0x0001(r9)
    53be:	0f 49       	mov	r9,	r15	
    53c0:	2f 53       	incd	r15		
    53c2:	08 3c       	jmp	$+18     	;abs 0x53d4
    53c4:	3d 42       	mov	#8,	r13	;r2 As==11
    53c6:	0e 4b       	mov	r11,	r14	
    53c8:	2e 53       	incd	r14		
    53ca:	0f 49       	mov	r9,	r15	
    53cc:	b0 12 80 e8 	call	#0xe880	
    53d0:	0f 49       	mov	r9,	r15	
    53d2:	3f 52       	add	#8,	r15	;r2 As==11
    53d4:	6d 4b       	mov.b	@r11,	r13	
    53d6:	3d f0 03 00 	and	#3,	r13	;#0x0003
    53da:	8d 10       	swpb	r13		
    53dc:	7e 40 06 00 	mov.b	#6,	r14	;#0x0006
    53e0:	0d 5d       	rla	r13		
    53e2:	7e 53       	add.b	#-1,	r14	;r3 As==11
    53e4:	fd 23       	jnz	$-4      	;abs 0x53e0
    53e6:	5e 4b 0a 00 	mov.b	10(r11),r14	;0x000a(r11)
    53ea:	3e f0 03 00 	and	#3,	r14	;#0x0003
    53ee:	8e 10       	swpb	r14		
    53f0:	0e 5e       	rla	r14		
    53f2:	0e 5e       	rla	r14		
    53f4:	0e dd       	bis	r13,	r14	
    53f6:	fa 40 41 00 01 00 	mov.b	#65,	1(r10)	;#0x0041, 0x0001(r10)
    53fc:	3e d0 41 00 	bis	#65,	r14	;#0x0041
    5400:	8e 10       	swpb	r14		
    5402:	ca 4e 02 00 	mov.b	r14,	2(r10)	;0x0002(r10)
    5406:	da 4b 14 00 04 00 	mov.b	20(r11),4(r10)	;0x0014(r11), 0x0004(r10)
    540c:	1e 4b 14 00 	mov	20(r11),r14	;0x0014(r11)
    5410:	8e 10       	swpb	r14		
    5412:	ca 4e 05 00 	mov.b	r14,	5(r10)	;0x0005(r10)
    5416:	21 53       	incd	r1		
    5418:	39 41       	pop	r9		
    541a:	3a 41       	pop	r10		
    541c:	3b 41       	pop	r11		
    541e:	30 41       	ret			

00005420 <IPDispatchP__unpack_address.isra.203>:
    5420:	0b 12       	push	r11		
    5422:	0a 12       	push	r10		
    5424:	09 12       	push	r9		
    5426:	08 12       	push	r8		
    5428:	07 12       	push	r7		
    542a:	06 12       	push	r6		
    542c:	31 50 f0 ff 	add	#-16,	r1	;#0xfff0
    5430:	0b 4f       	mov	r15,	r11	
    5432:	47 4e       	mov.b	r14,	r7	
    5434:	06 4d       	mov	r13,	r6	
    5436:	0a 4c       	mov	r12,	r10	
    5438:	19 41 1e 00 	mov	30(r1),	r9	;0x001e(r1)
    543c:	18 41 20 00 	mov	32(r1),	r8	;0x0020(r1)
    5440:	3d 40 10 00 	mov	#16,	r13	;#0x0010
    5444:	0e 43       	clr	r14		
    5446:	b0 12 74 ea 	call	#0xea74	
    544a:	47 47       	mov.b	r7,	r7	
    544c:	0f 47       	mov	r7,	r15	
    544e:	2f f2       	and	#4,	r15	;r2 As==10
    5450:	37 f0 03 00 	and	#3,	r7	;#0x0003
    5454:	0f 93       	tst	r15		
    5456:	3f 20       	jnz	$+128    	;abs 0x54d6
    5458:	17 93       	cmp	#1,	r7	;r3 As==01
    545a:	15 24       	jz	$+44     	;abs 0x5486
    545c:	27 93       	cmp	#2,	r7	;r3 As==10
    545e:	1a 24       	jz	$+54     	;abs 0x5494
    5460:	07 93       	tst	r7		
    5462:	1f 20       	jnz	$+64     	;abs 0x54a2
    5464:	b9 90 10 00 00 00 	cmp	#16,	0(r9)	;#0x0010, 0x0000(r9)
    546a:	8f 28       	jnc	$+288    	;abs 0x558a
    546c:	3d 40 10 00 	mov	#16,	r13	;#0x0010
    5470:	2e 4a       	mov	@r10,	r14	
    5472:	0f 4b       	mov	r11,	r15	
    5474:	b0 12 80 e8 	call	#0xe880	
    5478:	ba 50 10 00 00 00 	add	#16,	0(r10)	;#0x0010, 0x0000(r10)
    547e:	b9 50 f0 ff 00 00 	add	#-16,	0(r9)	;#0xfff0, 0x0000(r9)
    5484:	80 3c       	jmp	$+258    	;abs 0x5586
    5486:	b9 92 00 00 	cmp	#8,	0(r9)	;r2 As==11, 0x0000(r9)
    548a:	7f 28       	jnc	$+256    	;abs 0x558a
    548c:	bb 40 fe 80 00 00 	mov	#-32514,0(r11)	;#0x80fe, 0x0000(r11)
    5492:	3b 3c       	jmp	$+120    	;abs 0x550a
    5494:	a9 93 00 00 	cmp	#2,	0(r9)	;r3 As==10, 0x0000(r9)
    5498:	78 28       	jnc	$+242    	;abs 0x558a
    549a:	bb 40 fe 80 00 00 	mov	#-32514,0(r11)	;#0x80fe, 0x0000(r11)
    54a0:	42 3c       	jmp	$+134    	;abs 0x5526
    54a2:	bb 40 fe 80 00 00 	mov	#-32514,0(r11)	;#0x80fe, 0x0000(r11)
    54a8:	6f 48       	mov.b	@r8,	r15	
    54aa:	7f f0 03 00 	and.b	#3,	r15	;#0x0003
    54ae:	7f 90 03 00 	cmp.b	#3,	r15	;#0x0003
    54b2:	0b 20       	jnz	$+24     	;abs 0x54ca
    54b4:	0f 43       	clr	r15		
    54b6:	0e 4b       	mov	r11,	r14	
    54b8:	0e 5f       	add	r15,	r14	
    54ba:	de 48 09 00 08 00 	mov.b	9(r8),	8(r14)	;0x0009(r8), 0x0008(r14)
    54c0:	1f 53       	inc	r15		
    54c2:	38 53       	add	#-1,	r8	;r3 As==11
    54c4:	3f 92       	cmp	#8,	r15	;r2 As==11
    54c6:	f7 23       	jnz	$-16     	;abs 0x54b6
    54c8:	4b 3c       	jmp	$+152    	;abs 0x5560
    54ca:	fb 43 0b 00 	mov.b	#-1,	11(r11)	;r3 As==11, 0x000b(r11)
    54ce:	fb 40 fe ff 0c 00 	mov.b	#-2,	12(r11)	;#0xfffe, 0x000c(r11)
    54d4:	4e 3c       	jmp	$+158    	;abs 0x5572
    54d6:	07 93       	tst	r7		
    54d8:	56 24       	jz	$+174    	;abs 0x5586
    54da:	0f 41       	mov	r1,	r15	
    54dc:	b0 12 1a 48 	call	#0x481a	
    54e0:	4f 93       	tst.b	r15		
    54e2:	07 24       	jz	$+16     	;abs 0x54f2
    54e4:	46 93       	tst.b	r6		
    54e6:	05 20       	jnz	$+12     	;abs 0x54f2
    54e8:	3d 42       	mov	#8,	r13	;r2 As==11
    54ea:	0e 41       	mov	r1,	r14	
    54ec:	0f 4b       	mov	r11,	r15	
    54ee:	b0 12 80 e8 	call	#0xe880	
    54f2:	1f 41 22 00 	mov	34(r1),	r15	;0x0022(r1)
    54f6:	df 43 00 00 	mov.b	#1,	0(r15)	;r3 As==01, 0x0000(r15)
    54fa:	27 93       	cmp	#2,	r7	;r3 As==10
    54fc:	11 24       	jz	$+36     	;abs 0x5520
    54fe:	37 90 03 00 	cmp	#3,	r7	;#0x0003
    5502:	1e 24       	jz	$+62     	;abs 0x5540
    5504:	b9 92 00 00 	cmp	#8,	0(r9)	;r2 As==11, 0x0000(r9)
    5508:	40 28       	jnc	$+130    	;abs 0x558a
    550a:	3d 42       	mov	#8,	r13	;r2 As==11
    550c:	2e 4a       	mov	@r10,	r14	
    550e:	0f 4b       	mov	r11,	r15	
    5510:	3f 52       	add	#8,	r15	;r2 As==11
    5512:	b0 12 80 e8 	call	#0xe880	
    5516:	ba 52 00 00 	add	#8,	0(r10)	;r2 As==11, 0x0000(r10)
    551a:	b9 82 00 00 	sub	#8,	0(r9)	;r2 As==11, 0x0000(r9)
    551e:	33 3c       	jmp	$+104    	;abs 0x5586
    5520:	a9 93 00 00 	cmp	#2,	0(r9)	;r3 As==10, 0x0000(r9)
    5524:	32 28       	jnc	$+102    	;abs 0x558a
    5526:	3b 50 0e 00 	add	#14,	r11	;#0x000e
    552a:	2f 4a       	mov	@r10,	r15	
    552c:	eb 4f 00 00 	mov.b	@r15,	0(r11)	;0x0000(r11)
    5530:	db 4f 01 00 01 00 	mov.b	1(r15),	1(r11)	;0x0001(r15), 0x0001(r11)
    5536:	aa 53 00 00 	incd	0(r10)		;0x0000(r10)
    553a:	a9 83 00 00 	decd	0(r9)		;0x0000(r9)
    553e:	23 3c       	jmp	$+72     	;abs 0x5586
    5540:	6f 48       	mov.b	@r8,	r15	
    5542:	7f f0 03 00 	and.b	#3,	r15	;#0x0003
    5546:	7f 90 03 00 	cmp.b	#3,	r15	;#0x0003
    554a:	0d 20       	jnz	$+28     	;abs 0x5566
    554c:	0f 43       	clr	r15		
    554e:	0e 4b       	mov	r11,	r14	
    5550:	0e 5f       	add	r15,	r14	
    5552:	de 48 09 00 08 00 	mov.b	9(r8),	8(r14)	;0x0009(r8), 0x0008(r14)
    5558:	1f 53       	inc	r15		
    555a:	38 53       	add	#-1,	r8	;r3 As==11
    555c:	3f 92       	cmp	#8,	r15	;r2 As==11
    555e:	f7 23       	jnz	$-16     	;abs 0x554e
    5560:	eb e3 08 00 	xor.b	#2,	8(r11)	;r3 As==10, 0x0008(r11)
    5564:	10 3c       	jmp	$+34     	;abs 0x5586
    5566:	3d 42       	mov	#8,	r13	;r2 As==11
    5568:	0e 43       	clr	r14		
    556a:	0f 4b       	mov	r11,	r15	
    556c:	3f 52       	add	#8,	r15	;r2 As==11
    556e:	b0 12 74 ea 	call	#0xea74	
    5572:	1e 48 02 00 	mov	2(r8),	r14	;0x0002(r8)
    5576:	0f 4e       	mov	r14,	r15	
    5578:	8f 10       	swpb	r15		
    557a:	4f 4f       	mov.b	r15,	r15	
    557c:	4e 4e       	mov.b	r14,	r14	
    557e:	8e 10       	swpb	r14		
    5580:	0e df       	bis	r15,	r14	
    5582:	8b 4e 0e 00 	mov	r14,	14(r11)	;0x000e(r11)
    5586:	0f 43       	clr	r15		
    5588:	01 3c       	jmp	$+4      	;abs 0x558c
    558a:	3f 43       	mov	#-1,	r15	;r3 As==11
    558c:	31 50 10 00 	add	#16,	r1	;#0x0010
    5590:	36 41       	pop	r6		
    5592:	37 41       	pop	r7		
    5594:	38 41       	pop	r8		
    5596:	39 41       	pop	r9		
    5598:	3a 41       	pop	r10		
    559a:	3b 41       	pop	r11		
    559c:	30 41       	ret			

0000559e <IPDispatchP__lowpan_recon_start>:
    559e:	0b 12       	push	r11		
    55a0:	0a 12       	push	r10		
    55a2:	09 12       	push	r9		
    55a4:	08 12       	push	r8		
    55a6:	07 12       	push	r7		
    55a8:	06 12       	push	r6		
    55aa:	05 12       	push	r5		
    55ac:	04 12       	push	r4		
    55ae:	04 41       	mov	r1,	r4	
    55b0:	34 50 10 00 	add	#16,	r4	;#0x0010
    55b4:	31 50 da ff 	add	#-38,	r1	;#0xffda
    55b8:	84 4f ec ff 	mov	r15,	-20(r4)	;0xffec(r4)
    55bc:	84 4e e0 ff 	mov	r14,	-32(r4)	;0xffe0(r4)
    55c0:	0b 4d       	mov	r13,	r11	
    55c2:	84 4c de ff 	mov	r12,	-34(r4)	;0xffde(r4)
    55c6:	c4 43 ca ff 	mov.b	#0,	-54(r4)	;r3 As==00, 0xffca(r4)
    55ca:	84 4d d0 ff 	mov	r13,	-48(r4)	;0xffd0(r4)
    55ce:	06 4c       	mov	r12,	r6	
    55d0:	c4 4c cf ff 	mov.b	r12,	-49(r4)	;0xffcf(r4)
    55d4:	0f 44       	mov	r4,	r15	
    55d6:	3f 50 ce ff 	add	#-50,	r15	;#0xffce
    55da:	b0 12 86 49 	call	#0x4986	
    55de:	45 4f       	mov.b	r15,	r5	
    55e0:	c4 4f ce ff 	mov.b	r15,	-50(r4)	;0xffce(r4)
    55e4:	75 90 10 00 	cmp.b	#16,	r5	;#0x0010
    55e8:	02 20       	jnz	$+6      	;abs 0x55ee
    55ea:	30 40 3a 5f 	br	#0x5f3a	
    55ee:	0f 44       	mov	r4,	r15	
    55f0:	3f 50 ce ff 	add	#-50,	r15	;#0xffce
    55f4:	b0 12 68 49 	call	#0x4968	
    55f8:	84 4f cc ff 	mov	r15,	-52(r4)	;0xffcc(r4)
    55fc:	08 4b       	mov	r11,	r8	
    55fe:	8b 10       	swpb	r11		
    5600:	8b 11       	sxt	r11		
    5602:	8b 10       	swpb	r11		
    5604:	8b 11       	sxt	r11		
    5606:	09 4b       	mov	r11,	r9	
    5608:	0a 4f       	mov	r15,	r10	
    560a:	0d 4f       	mov	r15,	r13	
    560c:	8d 10       	swpb	r13		
    560e:	8d 11       	sxt	r13		
    5610:	8d 10       	swpb	r13		
    5612:	8d 11       	sxt	r13		
    5614:	0b 4d       	mov	r13,	r11	
    5616:	08 8a       	sub	r10,	r8	
    5618:	09 7b       	subc	r11,	r9	
    561a:	08 56       	add	r6,	r8	
    561c:	84 48 de ff 	mov	r8,	-34(r4)	;0xffde(r4)
    5620:	02 20       	jnz	$+6      	;abs 0x5626
    5622:	30 40 3e 5f 	br	#0x5f3e	
    5626:	65 f2       	and.b	#4,	r5	;r2 As==10
    5628:	29 24       	jz	$+84     	;abs 0x567c
    562a:	1e 44 e0 ff 	mov	-32(r4),r14	;0xffe0(r4)
    562e:	0f 44       	mov	r4,	r15	
    5630:	3f 50 ce ff 	add	#-50,	r15	;#0xffce
    5634:	b0 12 f6 49 	call	#0x49f6	
    5638:	1c 44 d0 ff 	mov	-48(r4),r12	;0xffd0(r4)
    563c:	0c 93       	tst	r12		
    563e:	23 24       	jz	$+72     	;abs 0x5686
    5640:	b4 90 fc ff e0 ff 	cmp	#-4,	-32(r4)	;#0xfffc, 0xffe0(r4)
    5646:	1f 24       	jz	$+64     	;abs 0x5686
    5648:	6b 4c       	mov.b	@r12,	r11	
    564a:	4d 4b       	mov.b	r11,	r13	
    564c:	12 c3       	clrc			
    564e:	4d 10       	rrc.b	r13		
    5650:	12 c3       	clrc			
    5652:	4d 10       	rrc.b	r13		
    5654:	12 c3       	clrc			
    5656:	4d 10       	rrc.b	r13		
    5658:	7d 90 18 00 	cmp.b	#24,	r13	;#0x0018
    565c:	03 24       	jz	$+8      	;abs 0x5664
    565e:	7d 90 1c 00 	cmp.b	#28,	r13	;#0x001c
    5662:	11 20       	jnz	$+36     	;abs 0x5686
    5664:	0d 4b       	mov	r11,	r13	
    5666:	3d f0 07 00 	and	#7,	r13	;#0x0007
    566a:	8d 10       	swpb	r13		
    566c:	5c 4c 01 00 	mov.b	1(r12),	r12	;0x0001(r12)
    5670:	0d dc       	bis	r12,	r13	
    5672:	1e 44 e0 ff 	mov	-32(r4),r14	;0xffe0(r4)
    5676:	8e 4d 04 00 	mov	r13,	4(r14)	;0x0004(r14)
    567a:	05 3c       	jmp	$+12     	;abs 0x5686
    567c:	1f 44 e0 ff 	mov	-32(r4),r15	;0xffe0(r4)
    5680:	bf 40 d1 00 04 00 	mov	#209,	4(r15)	;#0x00d1, 0x0004(r15)
    5686:	1e 44 e0 ff 	mov	-32(r4),r14	;0xffe0(r4)
    568a:	1f 4e 04 00 	mov	4(r14),	r15	;0x0004(r14)
    568e:	b0 12 9a e1 	call	#0xe19a	
    5692:	1e 44 e0 ff 	mov	-32(r4),r14	;0xffe0(r4)
    5696:	8e 4f 06 00 	mov	r15,	6(r14)	;0x0006(r14)
    569a:	0f 93       	tst	r15		
    569c:	02 20       	jnz	$+6      	;abs 0x56a2
    569e:	30 40 44 5f 	br	#0x5f44	
    56a2:	1d 4e 04 00 	mov	4(r14),	r13	;0x0004(r14)
    56a6:	0e 43       	clr	r14		
    56a8:	b0 12 74 ea 	call	#0xea74	
    56ac:	1f 44 e0 ff 	mov	-32(r4),r15	;0xffe0(r4)
    56b0:	8f 43 0c 00 	mov	#0,	12(r15)	;r3 As==00, 0x000c(r15)
    56b4:	1a 44 de ff 	mov	-34(r4),r10	;0xffde(r4)
    56b8:	94 4f 06 00 e2 ff 	mov	6(r15),	-30(r4)	;0x0006(r15), 0xffe2(r4)
    56be:	0a 93       	tst	r10		
    56c0:	08 20       	jnz	$+18     	;abs 0x56d2
    56c2:	1f 44 e2 ff 	mov	-30(r4),r15	;0xffe2(r4)
    56c6:	b0 12 30 e2 	call	#0xe230	
    56ca:	3f 40 fb ff 	mov	#-5,	r15	;#0xfffb
    56ce:	30 40 4c 5f 	br	#0x5f4c	
    56d2:	1b 44 cc ff 	mov	-52(r4),r11	;0xffcc(r4)
    56d6:	fb 90 41 00 00 00 	cmp.b	#65,	0(r11)	;#0x0041, 0x0000(r11)
    56dc:	28 20       	jnz	$+82     	;abs 0x572e
    56de:	1b 53       	inc	r11		
    56e0:	84 4b cc ff 	mov	r11,	-52(r4)	;0xffcc(r4)
    56e4:	0d 4a       	mov	r10,	r13	
    56e6:	3d 53       	add	#-1,	r13	;r3 As==11
    56e8:	84 4d de ff 	mov	r13,	-34(r4)	;0xffde(r4)
    56ec:	3d 90 28 00 	cmp	#40,	r13	;#0x0028
    56f0:	08 2c       	jc	$+18     	;abs 0x5702
    56f2:	1f 44 e2 ff 	mov	-30(r4),r15	;0xffe2(r4)
    56f6:	b0 12 30 e2 	call	#0xe230	
    56fa:	3f 40 f9 ff 	mov	#-7,	r15	;#0xfff9
    56fe:	30 40 4c 5f 	br	#0x5f4c	
    5702:	1e 44 e0 ff 	mov	-32(r4),r14	;0xffe0(r4)
    5706:	8e 9d 04 00 	cmp	r13,	4(r14)	;0x0004(r14)
    570a:	08 2c       	jc	$+18     	;abs 0x571c
    570c:	1f 44 e2 ff 	mov	-30(r4),r15	;0xffe2(r4)
    5710:	b0 12 30 e2 	call	#0xe230	
    5714:	3f 40 fa ff 	mov	#-6,	r15	;#0xfffa
    5718:	30 40 4c 5f 	br	#0x5f4c	
    571c:	0e 4b       	mov	r11,	r14	
    571e:	1f 44 e2 ff 	mov	-30(r4),r15	;0xffe2(r4)
    5722:	b0 12 80 e8 	call	#0xe880	
    5726:	1a 44 de ff 	mov	-34(r4),r10	;0xffde(r4)
    572a:	30 40 3c 5e 	br	#0x5e3c	
    572e:	1f 44 e0 ff 	mov	-32(r4),r15	;0xffe0(r4)
    5732:	94 4f 04 00 e8 ff 	mov	4(r15),	-24(r4)	;0x0004(r15), 0xffe8(r4)
    5738:	c4 43 ca ff 	mov.b	#0,	-54(r4)	;r3 As==00, 0xffca(r4)
    573c:	2a 93       	cmp	#2,	r10	;r3 As==10
    573e:	02 2c       	jc	$+6      	;abs 0x5744
    5740:	30 40 2a 5e 	br	#0x5e2a	
    5744:	69 4b       	mov.b	@r11,	r9	
    5746:	d4 4b 01 00 e4 ff 	mov.b	1(r11),	-28(r4)	;0x0001(r11), 0xffe4(r4)
    574c:	0e 4b       	mov	r11,	r14	
    574e:	2e 53       	incd	r14		
    5750:	84 4e cc ff 	mov	r14,	-52(r4)	;0xffcc(r4)
    5754:	0d 4a       	mov	r10,	r13	
    5756:	2d 83       	decd	r13		
    5758:	84 4d de ff 	mov	r13,	-34(r4)	;0xffde(r4)
    575c:	b4 90 28 00 e8 ff 	cmp	#40,	-24(r4)	;#0x0028, 0xffe8(r4)
    5762:	02 2c       	jc	$+6      	;abs 0x5768
    5764:	30 40 2a 5e 	br	#0x5e2a	
    5768:	49 49       	mov.b	r9,	r9	
    576a:	84 49 e6 ff 	mov	r9,	-26(r4)	;0xffe6(r4)
    576e:	39 f0 e0 00 	and	#224,	r9	;#0x00e0
    5772:	39 90 60 00 	cmp	#96,	r9	;#0x0060
    5776:	02 24       	jz	$+6      	;abs 0x577c
    5778:	30 40 2a 5e 	br	#0x5e2a	
    577c:	c4 93 e4 ff 	tst.b	-28(r4)	;0xffe4(r4)
    5780:	20 34       	jge	$+66     	;abs 0x57c2
    5782:	0d 93       	tst	r13		
    5784:	02 20       	jnz	$+6      	;abs 0x578a
    5786:	30 40 2a 5e 	br	#0x5e2a	
    578a:	58 4b 02 00 	mov.b	2(r11),	r8	;0x0002(r11)
    578e:	4c 48       	mov.b	r8,	r12	
    5790:	12 c3       	clrc			
    5792:	4c 10       	rrc.b	r12		
    5794:	12 c3       	clrc			
    5796:	4c 10       	rrc.b	r12		
    5798:	12 c3       	clrc			
    579a:	4c 10       	rrc.b	r12		
    579c:	12 c3       	clrc			
    579e:	4c 10       	rrc.b	r12		
    57a0:	0d 4c       	mov	r12,	r13	
    57a2:	3d f0 0f 00 	and	#15,	r13	;#0x000f
    57a6:	0f 48       	mov	r8,	r15	
    57a8:	3f f0 0f 00 	and	#15,	r15	;#0x000f
    57ac:	84 4f ea ff 	mov	r15,	-22(r4)	;0xffea(r4)
    57b0:	3b 50 03 00 	add	#3,	r11	;#0x0003
    57b4:	84 4b cc ff 	mov	r11,	-52(r4)	;0xffcc(r4)
    57b8:	3a 50 fd ff 	add	#-3,	r10	;#0xfffd
    57bc:	84 4a de ff 	mov	r10,	-34(r4)	;0xffde(r4)
    57c0:	03 3c       	jmp	$+8      	;abs 0x57c8
    57c2:	84 43 ea ff 	mov	#0,	-22(r4)	;r3 As==00, 0xffea(r4)
    57c6:	0d 43       	clr	r13		
    57c8:	19 44 e6 ff 	mov	-26(r4),r9	;0xffe6(r4)
    57cc:	39 f0 18 00 	and	#24,	r9	;#0x0018
    57d0:	39 92       	cmp	#8,	r9	;r2 As==11
    57d2:	24 24       	jz	$+74     	;abs 0x581c
    57d4:	39 90 10 00 	cmp	#16,	r9	;#0x0010
    57d8:	03 24       	jz	$+8      	;abs 0x57e0
    57da:	09 93       	tst	r9		
    57dc:	3e 24       	jz	$+126    	;abs 0x585a
    57de:	60 3c       	jmp	$+194    	;abs 0x58a0
    57e0:	1f 44 de ff 	mov	-34(r4),r15	;0xffde(r4)
    57e4:	0f 93       	tst	r15		
    57e6:	02 20       	jnz	$+6      	;abs 0x57ec
    57e8:	30 40 2a 5e 	br	#0x5e2a	
    57ec:	15 44 cc ff 	mov	-52(r4),r5	;0xffcc(r4)
    57f0:	67 45       	mov.b	@r5,	r7	
    57f2:	08 47       	mov	r7,	r8	
    57f4:	07 57       	rla	r7		
    57f6:	07 57       	rla	r7		
    57f8:	49 48       	mov.b	r8,	r9	
    57fa:	76 40 06 00 	mov.b	#6,	r6	;#0x0006
    57fe:	12 c3       	clrc			
    5800:	49 10       	rrc.b	r9		
    5802:	76 53       	add.b	#-1,	r6	;r3 As==11
    5804:	fc 23       	jnz	$-6      	;abs 0x57fe
    5806:	49 d7       	bis.b	r7,	r9	
    5808:	15 53       	inc	r5		
    580a:	84 45 cc ff 	mov	r5,	-52(r4)	;0xffcc(r4)
    580e:	3f 53       	add	#-1,	r15	;r3 As==11
    5810:	84 4f de ff 	mov	r15,	-34(r4)	;0xffde(r4)
    5814:	4a 43       	clr.b	r10		
    5816:	4f 43       	clr.b	r15		
    5818:	4b 43       	clr.b	r11		
    581a:	46 3c       	jmp	$+142    	;abs 0x58a8
    581c:	1e 44 de ff 	mov	-34(r4),r14	;0xffde(r4)
    5820:	3e 90 03 00 	cmp	#3,	r14	;#0x0003
    5824:	02 2c       	jc	$+6      	;abs 0x582a
    5826:	30 40 2a 5e 	br	#0x5e2a	
    582a:	16 44 cc ff 	mov	-52(r4),r6	;0xffcc(r4)
    582e:	67 46       	mov.b	@r6,	r7	
    5830:	49 47       	mov.b	r7,	r9	
    5832:	75 40 06 00 	mov.b	#6,	r5	;#0x0006
    5836:	12 c3       	clrc			
    5838:	49 10       	rrc.b	r9		
    583a:	75 53       	add.b	#-1,	r5	;r3 As==11
    583c:	fc 23       	jnz	$-6      	;abs 0x5836
    583e:	4a 47       	mov.b	r7,	r10	
    5840:	7a f0 0f 00 	and.b	#15,	r10	;#0x000f
    5844:	5f 46 01 00 	mov.b	1(r6),	r15	;0x0001(r6)
    5848:	5b 46 02 00 	mov.b	2(r6),	r11	;0x0002(r6)
    584c:	36 50 03 00 	add	#3,	r6	;#0x0003
    5850:	84 46 cc ff 	mov	r6,	-52(r4)	;0xffcc(r4)
    5854:	3e 50 fd ff 	add	#-3,	r14	;#0xfffd
    5858:	20 3c       	jmp	$+66     	;abs 0x589a
    585a:	1e 44 de ff 	mov	-34(r4),r14	;0xffde(r4)
    585e:	2e 92       	cmp	#4,	r14	;r2 As==10
    5860:	02 2c       	jc	$+6      	;abs 0x5866
    5862:	30 40 2a 5e 	br	#0x5e2a	
    5866:	16 44 cc ff 	mov	-52(r4),r6	;0xffcc(r4)
    586a:	67 46       	mov.b	@r6,	r7	
    586c:	09 47       	mov	r7,	r9	
    586e:	07 57       	rla	r7		
    5870:	07 57       	rla	r7		
    5872:	49 49       	mov.b	r9,	r9	
    5874:	75 40 06 00 	mov.b	#6,	r5	;#0x0006
    5878:	12 c3       	clrc			
    587a:	49 10       	rrc.b	r9		
    587c:	75 53       	add.b	#-1,	r5	;r3 As==11
    587e:	fc 23       	jnz	$-6      	;abs 0x5878
    5880:	49 d7       	bis.b	r7,	r9	
    5882:	5a 46 01 00 	mov.b	1(r6),	r10	;0x0001(r6)
    5886:	7a f0 0f 00 	and.b	#15,	r10	;#0x000f
    588a:	5f 46 02 00 	mov.b	2(r6),	r15	;0x0002(r6)
    588e:	5b 46 03 00 	mov.b	3(r6),	r11	;0x0003(r6)
    5892:	26 52       	add	#4,	r6	;r2 As==10
    5894:	84 46 cc ff 	mov	r6,	-52(r4)	;0xffcc(r4)
    5898:	2e 82       	sub	#4,	r14	;r2 As==10
    589a:	84 4e de ff 	mov	r14,	-34(r4)	;0xffde(r4)
    589e:	04 3c       	jmp	$+10     	;abs 0x58a8
    58a0:	4a 43       	clr.b	r10		
    58a2:	4f 43       	clr.b	r15		
    58a4:	4b 43       	clr.b	r11		
    58a6:	49 43       	clr.b	r9		
    58a8:	46 4b       	mov.b	r11,	r6	
    58aa:	07 43       	clr	r7		
    58ac:	0b 46       	mov	r6,	r11	
    58ae:	0c 47       	mov	r7,	r12	
    58b0:	0b d3       	bis	#0,	r11	;r3 As==00
    58b2:	3c d0 00 60 	bis	#24576,	r12	;#0x6000
    58b6:	06 43       	clr	r6		
    58b8:	07 43       	clr	r7		
    58ba:	47 49       	mov.b	r9,	r7	
    58bc:	69 42       	mov.b	#4,	r9	;r2 As==10
    58be:	06 56       	rla	r6		
    58c0:	07 67       	rlc	r7		
    58c2:	79 53       	add.b	#-1,	r9	;r3 As==11
    58c4:	fc 23       	jnz	$-6      	;abs 0x58be
    58c6:	06 db       	bis	r11,	r6	
    58c8:	07 dc       	bis	r12,	r7	
    58ca:	08 43       	clr	r8		
    58cc:	09 43       	clr	r9		
    58ce:	09 4a       	mov	r10,	r9	
    58d0:	39 f0 0f 00 	and	#15,	r9	;#0x000f
    58d4:	06 d8       	bis	r8,	r6	
    58d6:	07 d9       	bis	r9,	r7	
    58d8:	48 4f       	mov.b	r15,	r8	
    58da:	09 43       	clr	r9		
    58dc:	49 e8       	xor.b	r8,	r9	
    58de:	09 e8       	xor	r8,	r9	
    58e0:	89 10       	swpb	r9		
    58e2:	48 48       	mov.b	r8,	r8	
    58e4:	88 10       	swpb	r8		
    58e6:	0e 46       	mov	r6,	r14	
    58e8:	0f 47       	mov	r7,	r15	
    58ea:	0e d8       	bis	r8,	r14	
    58ec:	0f d9       	bis	r9,	r15	
    58ee:	84 4d ee ff 	mov	r13,	-18(r4)	;0xffee(r4)
    58f2:	b0 12 ec e5 	call	#0xe5ec	
    58f6:	08 4e       	mov	r14,	r8	
    58f8:	09 4f       	mov	r15,	r9	
    58fa:	1e 44 e2 ff 	mov	-30(r4),r14	;0xffe2(r4)
    58fe:	ce 48 00 00 	mov.b	r8,	0(r14)	;0x0000(r14)
    5902:	88 10       	swpb	r8		
    5904:	ce 48 01 00 	mov.b	r8,	1(r14)	;0x0001(r14)
    5908:	ce 4f 02 00 	mov.b	r15,	2(r14)	;0x0002(r14)
    590c:	89 10       	swpb	r9		
    590e:	ce 49 03 00 	mov.b	r9,	3(r14)	;0x0003(r14)
    5912:	18 44 e6 ff 	mov	-26(r4),r8	;0xffe6(r4)
    5916:	28 f2       	and	#4,	r8	;r2 As==10
    5918:	1d 44 ee ff 	mov	-18(r4),r13	;0xffee(r4)
    591c:	10 20       	jnz	$+34     	;abs 0x593e
    591e:	19 44 de ff 	mov	-34(r4),r9	;0xffde(r4)
    5922:	09 93       	tst	r9		
    5924:	02 20       	jnz	$+6      	;abs 0x592a
    5926:	30 40 2a 5e 	br	#0x5e2a	
    592a:	17 44 cc ff 	mov	-52(r4),r7	;0xffcc(r4)
    592e:	ee 47 06 00 	mov.b	@r7,	6(r14)	;0x0006(r14)
    5932:	17 53       	inc	r7		
    5934:	84 47 cc ff 	mov	r7,	-52(r4)	;0xffcc(r4)
    5938:	39 53       	add	#-1,	r9	;r3 As==11
    593a:	84 49 de ff 	mov	r9,	-34(r4)	;0xffde(r4)
    593e:	1a 44 e6 ff 	mov	-26(r4),r10	;0xffe6(r4)
    5942:	3a f0 03 00 	and	#3,	r10	;#0x0003
    5946:	2a 93       	cmp	#2,	r10	;r3 As==10
    5948:	0a 24       	jz	$+22     	;abs 0x595e
    594a:	3a 90 03 00 	cmp	#3,	r10	;#0x0003
    594e:	0d 24       	jz	$+28     	;abs 0x596a
    5950:	1a 93       	cmp	#1,	r10	;r3 As==01
    5952:	10 20       	jnz	$+34     	;abs 0x5974
    5954:	1f 44 e2 ff 	mov	-30(r4),r15	;0xffe2(r4)
    5958:	df 43 07 00 	mov.b	#1,	7(r15)	;r3 As==01, 0x0007(r15)
    595c:	1d 3c       	jmp	$+60     	;abs 0x5998
    595e:	1e 44 e2 ff 	mov	-30(r4),r14	;0xffe2(r4)
    5962:	fe 40 40 00 07 00 	mov.b	#64,	7(r14)	;#0x0040, 0x0007(r14)
    5968:	17 3c       	jmp	$+48     	;abs 0x5998
    596a:	1f 44 e2 ff 	mov	-30(r4),r15	;0xffe2(r4)
    596e:	ff 43 07 00 	mov.b	#-1,	7(r15)	;r3 As==11, 0x0007(r15)
    5972:	12 3c       	jmp	$+38     	;abs 0x5998
    5974:	1a 44 de ff 	mov	-34(r4),r10	;0xffde(r4)
    5978:	0a 93       	tst	r10		
    597a:	02 20       	jnz	$+6      	;abs 0x5980
    597c:	30 40 2a 5e 	br	#0x5e2a	
    5980:	19 44 cc ff 	mov	-52(r4),r9	;0xffcc(r4)
    5984:	1e 44 e2 ff 	mov	-30(r4),r14	;0xffe2(r4)
    5988:	ee 49 07 00 	mov.b	@r9,	7(r14)	;0x0007(r14)
    598c:	19 53       	inc	r9		
    598e:	84 49 cc ff 	mov	r9,	-52(r4)	;0xffcc(r4)
    5992:	3a 53       	add	#-1,	r10	;r3 As==11
    5994:	84 4a de ff 	mov	r10,	-34(r4)	;0xffde(r4)
    5998:	59 44 e4 ff 	mov.b	-28(r4),r9	;0xffe4(r4)
    599c:	5b 44 e4 ff 	mov.b	-28(r4),r11	;0xffe4(r4)
    59a0:	12 c3       	clrc			
    59a2:	4b 10       	rrc.b	r11		
    59a4:	12 c3       	clrc			
    59a6:	4b 10       	rrc.b	r11		
    59a8:	12 c3       	clrc			
    59aa:	4b 10       	rrc.b	r11		
    59ac:	12 c3       	clrc			
    59ae:	4b 10       	rrc.b	r11		
    59b0:	3f 40 ca ff 	mov	#-54,	r15	;#0xffca
    59b4:	0f 54       	add	r4,	r15	
    59b6:	0f 12       	push	r15		
    59b8:	14 12 ec ff 	push	-20(r4)	;0xffec(r4)
    59bc:	3e 40 de ff 	mov	#-34,	r14	;#0xffde
    59c0:	0e 54       	add	r4,	r14	
    59c2:	0e 12       	push	r14		
    59c4:	0c 44       	mov	r4,	r12	
    59c6:	3c 50 cc ff 	add	#-52,	r12	;#0xffcc
    59ca:	4e 4b       	mov.b	r11,	r14	
    59cc:	1f 44 e2 ff 	mov	-30(r4),r15	;0xffe2(r4)
    59d0:	3f 52       	add	#8,	r15	;r2 As==11
    59d2:	b0 12 20 54 	call	#0x5420	
    59d6:	31 50 06 00 	add	#6,	r1	;#0x0006
    59da:	0f 93       	tst	r15		
    59dc:	02 34       	jge	$+6      	;abs 0x59e2
    59de:	30 40 2a 5e 	br	#0x5e2a	
    59e2:	07 49       	mov	r9,	r7	
    59e4:	37 f2       	and	#8,	r7	;r2 As==11
    59e6:	1a 44 e2 ff 	mov	-30(r4),r10	;0xffe2(r4)
    59ea:	3a 50 18 00 	add	#24,	r10	;#0x0018
    59ee:	07 93       	tst	r7		
    59f0:	60 24       	jz	$+194    	;abs 0x5ab2
    59f2:	3d 40 10 00 	mov	#16,	r13	;#0x0010
    59f6:	0e 43       	clr	r14		
    59f8:	0f 4a       	mov	r10,	r15	
    59fa:	b0 12 74 ea 	call	#0xea74	
    59fe:	29 b2       	bit	#4,	r9	;r2 As==10
    5a00:	02 24       	jz	$+6      	;abs 0x5a06
    5a02:	30 40 2a 5e 	br	#0x5e2a	
    5a06:	39 f0 03 00 	and	#3,	r9	;#0x0003
    5a0a:	29 93       	cmp	#2,	r9	;r3 As==10
    5a0c:	1c 24       	jz	$+58     	;abs 0x5a46
    5a0e:	39 90 03 00 	cmp	#3,	r9	;#0x0003
    5a12:	39 24       	jz	$+116    	;abs 0x5a86
    5a14:	19 93       	cmp	#1,	r9	;r3 As==01
    5a16:	03 20       	jnz	$+8      	;abs 0x5a1e
    5a18:	3a 40 05 00 	mov	#5,	r10	;#0x0005
    5a1c:	16 3c       	jmp	$+46     	;abs 0x5a4a
    5a1e:	b4 90 10 00 de ff 	cmp	#16,	-34(r4)	;#0x0010, 0xffde(r4)
    5a24:	02 2c       	jc	$+6      	;abs 0x5a2a
    5a26:	30 40 2a 5e 	br	#0x5e2a	
    5a2a:	3d 40 10 00 	mov	#16,	r13	;#0x0010
    5a2e:	1e 44 cc ff 	mov	-52(r4),r14	;0xffcc(r4)
    5a32:	0f 4a       	mov	r10,	r15	
    5a34:	b0 12 80 e8 	call	#0xe880	
    5a38:	b4 50 10 00 cc ff 	add	#16,	-52(r4)	;#0x0010, 0xffcc(r4)
    5a3e:	b4 50 f0 ff de ff 	add	#-16,	-34(r4)	;#0xfff0, 0xffde(r4)
    5a44:	53 3c       	jmp	$+168    	;abs 0x5aec
    5a46:	3a 40 03 00 	mov	#3,	r10	;#0x0003
    5a4a:	09 4a       	mov	r10,	r9	
    5a4c:	19 53       	inc	r9		
    5a4e:	84 99 de ff 	cmp	r9,	-34(r4)	;0xffde(r4)
    5a52:	02 2c       	jc	$+6      	;abs 0x5a58
    5a54:	30 40 2a 5e 	br	#0x5e2a	
    5a58:	1f 44 e2 ff 	mov	-30(r4),r15	;0xffe2(r4)
    5a5c:	ff 43 18 00 	mov.b	#-1,	24(r15)	;r3 As==11, 0x0018(r15)
    5a60:	1c 44 cc ff 	mov	-52(r4),r12	;0xffcc(r4)
    5a64:	ff 4c 19 00 	mov.b	@r12+,	25(r15)	;0x0019(r15)
    5a68:	07 4f       	mov	r15,	r7	
    5a6a:	07 8a       	sub	r10,	r7	
    5a6c:	0d 4a       	mov	r10,	r13	
    5a6e:	0e 4c       	mov	r12,	r14	
    5a70:	0f 47       	mov	r7,	r15	
    5a72:	3f 50 28 00 	add	#40,	r15	;#0x0028
    5a76:	b0 12 80 e8 	call	#0xe880	
    5a7a:	84 59 cc ff 	add	r9,	-52(r4)	;0xffcc(r4)
    5a7e:	3a e3       	inv	r10		
    5a80:	84 5a de ff 	add	r10,	-34(r4)	;0xffde(r4)
    5a84:	33 3c       	jmp	$+104    	;abs 0x5aec
    5a86:	1d 44 de ff 	mov	-34(r4),r13	;0xffde(r4)
    5a8a:	0d 93       	tst	r13		
    5a8c:	02 20       	jnz	$+6      	;abs 0x5a92
    5a8e:	30 40 2a 5e 	br	#0x5e2a	
    5a92:	1e 44 e2 ff 	mov	-30(r4),r14	;0xffe2(r4)
    5a96:	be 40 ff 02 18 00 	mov	#767,	24(r14)	;#0x02ff, 0x0018(r14)
    5a9c:	1c 44 cc ff 	mov	-52(r4),r12	;0xffcc(r4)
    5aa0:	ee 4c 27 00 	mov.b	@r12,	39(r14)	;0x0027(r14)
    5aa4:	1c 53       	inc	r12		
    5aa6:	84 4c cc ff 	mov	r12,	-52(r4)	;0xffcc(r4)
    5aaa:	3d 53       	add	#-1,	r13	;r3 As==11
    5aac:	84 4d de ff 	mov	r13,	-34(r4)	;0xffde(r4)
    5ab0:	1d 3c       	jmp	$+60     	;abs 0x5aec
    5ab2:	3f 40 ca ff 	mov	#-54,	r15	;#0xffca
    5ab6:	0f 54       	add	r4,	r15	
    5ab8:	0f 12       	push	r15		
    5aba:	1c 44 ec ff 	mov	-20(r4),r12	;0xffec(r4)
    5abe:	3c 50 0a 00 	add	#10,	r12	;#0x000a
    5ac2:	0c 12       	push	r12		
    5ac4:	3e 40 de ff 	mov	#-34,	r14	;#0xffde
    5ac8:	0e 54       	add	r4,	r14	
    5aca:	0e 12       	push	r14		
    5acc:	0c 44       	mov	r4,	r12	
    5ace:	3c 50 cc ff 	add	#-52,	r12	;#0xffcc
    5ad2:	1d 44 ea ff 	mov	-22(r4),r13	;0xffea(r4)
    5ad6:	5e 44 e4 ff 	mov.b	-28(r4),r14	;0xffe4(r4)
    5ada:	0f 4a       	mov	r10,	r15	
    5adc:	b0 12 20 54 	call	#0x5420	
    5ae0:	31 50 06 00 	add	#6,	r1	;#0x0006
    5ae4:	0f 93       	tst	r15		
    5ae6:	02 34       	jge	$+6      	;abs 0x5aec
    5ae8:	30 40 2a 5e 	br	#0x5e2a	
    5aec:	19 44 e2 ff 	mov	-30(r4),r9	;0xffe2(r4)
    5af0:	39 50 28 00 	add	#40,	r9	;#0x0028
    5af4:	1b 44 e8 ff 	mov	-24(r4),r11	;0xffe8(r4)
    5af8:	3b 50 d8 ff 	add	#-40,	r11	;#0xffd8
    5afc:	08 93       	tst	r8		
    5afe:	02 20       	jnz	$+6      	;abs 0x5b04
    5b00:	30 40 e8 5d 	br	#0x5de8	
    5b04:	16 44 e2 ff 	mov	-30(r4),r6	;0xffe2(r4)
    5b08:	36 50 06 00 	add	#6,	r6	;#0x0006
    5b0c:	1f 44 e0 ff 	mov	-32(r4),r15	;0xffe0(r4)
    5b10:	8f 49 0e 00 	mov	r9,	14(r15)	;0x000e(r15)
    5b14:	1f 44 de ff 	mov	-34(r4),r15	;0xffde(r4)
    5b18:	0f 93       	tst	r15		
    5b1a:	02 20       	jnz	$+6      	;abs 0x5b20
    5b1c:	30 40 2a 5e 	br	#0x5e2a	
    5b20:	1e 44 cc ff 	mov	-52(r4),r14	;0xffcc(r4)
    5b24:	68 4e       	mov.b	@r14,	r8	
    5b26:	1e 53       	inc	r14		
    5b28:	84 4e cc ff 	mov	r14,	-52(r4)	;0xffcc(r4)
    5b2c:	3f 53       	add	#-1,	r15	;r3 As==11
    5b2e:	84 4f de ff 	mov	r15,	-34(r4)	;0xffde(r4)
    5b32:	0f 48       	mov	r8,	r15	
    5b34:	3f f0 f0 00 	and	#240,	r15	;#0x00f0
    5b38:	3f 90 e0 00 	cmp	#224,	r15	;#0x00e0
    5b3c:	8c 20       	jnz	$+282    	;abs 0x5c56
    5b3e:	2b 93       	cmp	#2,	r11	;r3 As==10
    5b40:	02 2c       	jc	$+6      	;abs 0x5b46
    5b42:	30 40 2a 5e 	br	#0x5e2a	
    5b46:	0f 48       	mov	r8,	r15	
    5b48:	3f f0 0e 00 	and	#14,	r15	;#0x000e
    5b4c:	0f 5f       	rla	r15		
    5b4e:	10 4f dc f5 	br	-2596(r15)	;0xf5dc(r15)
    5b52:	c6 43 00 00 	mov.b	#0,	0(r6)	;r3 As==00, 0x0000(r6)
    5b56:	13 3c       	jmp	$+40     	;abs 0x5b7e
    5b58:	f6 40 2b 00 00 00 	mov.b	#43,	0(r6)	;#0x002b, 0x0000(r6)
    5b5e:	0f 3c       	jmp	$+32     	;abs 0x5b7e
    5b60:	f6 40 2c 00 00 00 	mov.b	#44,	0(r6)	;#0x002c, 0x0000(r6)
    5b66:	0b 3c       	jmp	$+24     	;abs 0x5b7e
    5b68:	f6 40 3c 00 00 00 	mov.b	#60,	0(r6)	;#0x003c, 0x0000(r6)
    5b6e:	07 3c       	jmp	$+16     	;abs 0x5b7e
    5b70:	f6 40 87 ff 00 00 	mov.b	#-121,	0(r6)	;#0xff87, 0x0000(r6)
    5b76:	03 3c       	jmp	$+8      	;abs 0x5b7e
    5b78:	f6 40 29 00 00 00 	mov.b	#41,	0(r6)	;#0x0029, 0x0000(r6)
    5b7e:	18 f3       	and	#1,	r8	;r3 As==01
    5b80:	0d 20       	jnz	$+28     	;abs 0x5b9c
    5b82:	84 93 de ff 	tst	-34(r4)	;0xffde(r4)
    5b86:	02 20       	jnz	$+6      	;abs 0x5b8c
    5b88:	30 40 2a 5e 	br	#0x5e2a	
    5b8c:	1f 44 cc ff 	mov	-52(r4),r15	;0xffcc(r4)
    5b90:	e9 4f 00 00 	mov.b	@r15,	0(r9)	;0x0000(r9)
    5b94:	94 53 cc ff 	inc	-52(r4)	;0xffcc(r4)
    5b98:	b4 53 de ff 	add	#-1,	-34(r4)	;r3 As==11, 0xffde(r4)
    5b9c:	1c 44 de ff 	mov	-34(r4),r12	;0xffde(r4)
    5ba0:	0c 93       	tst	r12		
    5ba2:	02 20       	jnz	$+6      	;abs 0x5ba8
    5ba4:	30 40 2a 5e 	br	#0x5e2a	
    5ba8:	2b 83       	decd	r11		
    5baa:	1e 44 cc ff 	mov	-52(r4),r14	;0xffcc(r4)
    5bae:	7d 4e       	mov.b	@r14+,	r13	
    5bb0:	84 4e cc ff 	mov	r14,	-52(r4)	;0xffcc(r4)
    5bb4:	3c 53       	add	#-1,	r12	;r3 As==11
    5bb6:	84 4c de ff 	mov	r12,	-34(r4)	;0xffde(r4)
    5bba:	0a 4d       	mov	r13,	r10	
    5bbc:	0f 4d       	mov	r13,	r15	
    5bbe:	2f 53       	incd	r15		
    5bc0:	84 4f e2 ff 	mov	r15,	-30(r4)	;0xffe2(r4)
    5bc4:	0d 4f       	mov	r15,	r13	
    5bc6:	3d f0 07 00 	and	#7,	r13	;#0x0007
    5bca:	3f 42       	mov	#8,	r15	;r2 As==11
    5bcc:	0f 8d       	sub	r13,	r15	
    5bce:	47 4f       	mov.b	r15,	r7	
    5bd0:	77 f0 07 00 	and.b	#7,	r7	;#0x0007
    5bd4:	45 47       	mov.b	r7,	r5	
    5bd6:	0d 4a       	mov	r10,	r13	
    5bd8:	0d 55       	add	r5,	r13	
    5bda:	0b 9d       	cmp	r13,	r11	
    5bdc:	02 2c       	jc	$+6      	;abs 0x5be2
    5bde:	30 40 2a 5e 	br	#0x5e2a	
    5be2:	0c 9a       	cmp	r10,	r12	
    5be4:	02 2c       	jc	$+6      	;abs 0x5bea
    5be6:	30 40 2a 5e 	br	#0x5e2a	
    5bea:	0c 49       	mov	r9,	r12	
    5bec:	2c 53       	incd	r12		
    5bee:	0d 4a       	mov	r10,	r13	
    5bf0:	0f 4c       	mov	r12,	r15	
    5bf2:	84 4c ee ff 	mov	r12,	-18(r4)	;0xffee(r4)
    5bf6:	b0 12 80 e8 	call	#0xe880	
    5bfa:	1c 44 ee ff 	mov	-18(r4),r12	;0xffee(r4)
    5bfe:	0c 5a       	add	r10,	r12	
    5c00:	0b 8a       	sub	r10,	r11	
    5c02:	84 5a cc ff 	add	r10,	-52(r4)	;0xffcc(r4)
    5c06:	84 8a de ff 	sub	r10,	-34(r4)	;0xffde(r4)
    5c0a:	6d 46       	mov.b	@r6,	r13	
    5c0c:	4d 93       	tst.b	r13		
    5c0e:	03 24       	jz	$+8      	;abs 0x5c16
    5c10:	7d 90 3c 00 	cmp.b	#60,	r13	;#0x003c
    5c14:	12 20       	jnz	$+38     	;abs 0x5c3a
    5c16:	57 93       	cmp.b	#1,	r7	;r3 As==01
    5c18:	05 20       	jnz	$+12     	;abs 0x5c24
    5c1a:	cc 43 00 00 	mov.b	#0,	0(r12)	;r3 As==00, 0x0000(r12)
    5c1e:	1c 53       	inc	r12		
    5c20:	3b 53       	add	#-1,	r11	;r3 As==11
    5c22:	0b 3c       	jmp	$+24     	;abs 0x5c3a
    5c24:	67 93       	cmp.b	#2,	r7	;r3 As==10
    5c26:	09 28       	jnc	$+20     	;abs 0x5c3a
    5c28:	dc 43 00 00 	mov.b	#1,	0(r12)	;r3 As==01, 0x0000(r12)
    5c2c:	4e 47       	mov.b	r7,	r14	
    5c2e:	6e 83       	decd.b	r14		
    5c30:	cc 4e 01 00 	mov.b	r14,	1(r12)	;0x0001(r12)
    5c34:	4f 47       	mov.b	r7,	r15	
    5c36:	0c 5f       	add	r15,	r12	
    5c38:	0b 8f       	sub	r15,	r11	
    5c3a:	1e 44 e2 ff 	mov	-30(r4),r14	;0xffe2(r4)
    5c3e:	0e 55       	add	r5,	r14	
    5c40:	0e 11       	rra	r14		
    5c42:	0e 11       	rra	r14		
    5c44:	0e 11       	rra	r14		
    5c46:	7e 53       	add.b	#-1,	r14	;r3 As==11
    5c48:	c9 4e 01 00 	mov.b	r14,	1(r9)	;0x0001(r9)
    5c4c:	06 49       	mov	r9,	r6	
    5c4e:	09 4c       	mov	r12,	r9	
    5c50:	08 93       	tst	r8		
    5c52:	5c 23       	jnz	$-326    	;abs 0x5b0c
    5c54:	c9 3c       	jmp	$+404    	;abs 0x5de8
    5c56:	07 49       	mov	r9,	r7	
    5c58:	0f 48       	mov	r8,	r15	
    5c5a:	3f f0 f8 00 	and	#248,	r15	;#0x00f8
    5c5e:	3f 90 f0 00 	cmp	#240,	r15	;#0x00f0
    5c62:	c2 20       	jnz	$+390    	;abs 0x5de8
    5c64:	3b 92       	cmp	#8,	r11	;r2 As==11
    5c66:	e1 28       	jnc	$+452    	;abs 0x5e2a
    5c68:	f6 40 11 00 00 00 	mov.b	#17,	0(r6)	;#0x0011, 0x0000(r6)
    5c6e:	89 43 04 00 	mov	#0,	4(r9)	;r3 As==00, 0x0004(r9)
    5c72:	89 43 06 00 	mov	#0,	6(r9)	;r3 As==00, 0x0006(r9)
    5c76:	0f 48       	mov	r8,	r15	
    5c78:	3f f0 03 00 	and	#3,	r15	;#0x0003
    5c7c:	1c 44 de ff 	mov	-34(r4),r12	;0xffde(r4)
    5c80:	2f 93       	cmp	#2,	r15	;r3 As==10
    5c82:	40 24       	jz	$+130    	;abs 0x5d04
    5c84:	3f 90 03 00 	cmp	#3,	r15	;#0x0003
    5c88:	62 24       	jz	$+198    	;abs 0x5d4e
    5c8a:	1f 93       	cmp	#1,	r15	;r3 As==01
    5c8c:	24 24       	jz	$+74     	;abs 0x5cd6
    5c8e:	2c 92       	cmp	#4,	r12	;r2 As==10
    5c90:	cc 28       	jnc	$+410    	;abs 0x5e2a
    5c92:	1d 44 cc ff 	mov	-52(r4),r13	;0xffcc(r4)
    5c96:	6a 4d       	mov.b	@r13,	r10	
    5c98:	8a 10       	swpb	r10		
    5c9a:	5f 4d 01 00 	mov.b	1(r13),	r15	;0x0001(r13)
    5c9e:	0a df       	bis	r15,	r10	
    5ca0:	0f 4a       	mov	r10,	r15	
    5ca2:	8f 10       	swpb	r15		
    5ca4:	4f 4f       	mov.b	r15,	r15	
    5ca6:	4a 4a       	mov.b	r10,	r10	
    5ca8:	8a 10       	swpb	r10		
    5caa:	0a df       	bis	r15,	r10	
    5cac:	89 4a 00 00 	mov	r10,	0(r9)	;0x0000(r9)
    5cb0:	5a 4d 02 00 	mov.b	2(r13),	r10	;0x0002(r13)
    5cb4:	8a 10       	swpb	r10		
    5cb6:	5f 4d 03 00 	mov.b	3(r13),	r15	;0x0003(r13)
    5cba:	0a df       	bis	r15,	r10	
    5cbc:	0f 4a       	mov	r10,	r15	
    5cbe:	8f 10       	swpb	r15		
    5cc0:	4f 4f       	mov.b	r15,	r15	
    5cc2:	4a 4a       	mov.b	r10,	r10	
    5cc4:	8a 10       	swpb	r10		
    5cc6:	0a df       	bis	r15,	r10	
    5cc8:	89 4a 02 00 	mov	r10,	2(r9)	;0x0002(r9)
    5ccc:	2d 52       	add	#4,	r13	;r2 As==10
    5cce:	84 4d cc ff 	mov	r13,	-52(r4)	;0xffcc(r4)
    5cd2:	2c 82       	sub	#4,	r12	;r2 As==10
    5cd4:	65 3c       	jmp	$+204    	;abs 0x5da0
    5cd6:	3c 90 03 00 	cmp	#3,	r12	;#0x0003
    5cda:	a7 28       	jnc	$+336    	;abs 0x5e2a
    5cdc:	1f 44 cc ff 	mov	-52(r4),r15	;0xffcc(r4)
    5ce0:	6d 4f       	mov.b	@r15,	r13	
    5ce2:	8d 10       	swpb	r13		
    5ce4:	5a 4f 01 00 	mov.b	1(r15),	r10	;0x0001(r15)
    5ce8:	0d da       	bis	r10,	r13	
    5cea:	0a 4d       	mov	r13,	r10	
    5cec:	8a 10       	swpb	r10		
    5cee:	4a 4a       	mov.b	r10,	r10	
    5cf0:	4d 4d       	mov.b	r13,	r13	
    5cf2:	8d 10       	swpb	r13		
    5cf4:	0d da       	bis	r10,	r13	
    5cf6:	89 4d 00 00 	mov	r13,	0(r9)	;0x0000(r9)
    5cfa:	5d 4f 02 00 	mov.b	2(r15),	r13	;0x0002(r15)
    5cfe:	3d d0 00 f0 	bis	#-4096,	r13	;#0xf000
    5d02:	16 3c       	jmp	$+46     	;abs 0x5d30
    5d04:	3c 90 03 00 	cmp	#3,	r12	;#0x0003
    5d08:	90 28       	jnc	$+290    	;abs 0x5e2a
    5d0a:	1f 44 cc ff 	mov	-52(r4),r15	;0xffcc(r4)
    5d0e:	6d 4f       	mov.b	@r15,	r13	
    5d10:	3d d0 00 f0 	bis	#-4096,	r13	;#0xf000
    5d14:	0a 4d       	mov	r13,	r10	
    5d16:	8a 10       	swpb	r10		
    5d18:	4a 4a       	mov.b	r10,	r10	
    5d1a:	4d 4d       	mov.b	r13,	r13	
    5d1c:	8d 10       	swpb	r13		
    5d1e:	0d da       	bis	r10,	r13	
    5d20:	89 4d 00 00 	mov	r13,	0(r9)	;0x0000(r9)
    5d24:	5d 4f 01 00 	mov.b	1(r15),	r13	;0x0001(r15)
    5d28:	8d 10       	swpb	r13		
    5d2a:	5a 4f 02 00 	mov.b	2(r15),	r10	;0x0002(r15)
    5d2e:	0d da       	bis	r10,	r13	
    5d30:	0a 4d       	mov	r13,	r10	
    5d32:	8a 10       	swpb	r10		
    5d34:	4a 4a       	mov.b	r10,	r10	
    5d36:	4d 4d       	mov.b	r13,	r13	
    5d38:	8d 10       	swpb	r13		
    5d3a:	0d da       	bis	r10,	r13	
    5d3c:	89 4d 02 00 	mov	r13,	2(r9)	;0x0002(r9)
    5d40:	3f 50 03 00 	add	#3,	r15	;#0x0003
    5d44:	84 4f cc ff 	mov	r15,	-52(r4)	;0xffcc(r4)
    5d48:	3c 50 fd ff 	add	#-3,	r12	;#0xfffd
    5d4c:	29 3c       	jmp	$+84     	;abs 0x5da0
    5d4e:	0c 93       	tst	r12		
    5d50:	6c 24       	jz	$+218    	;abs 0x5e2a
    5d52:	1a 44 cc ff 	mov	-52(r4),r10	;0xffcc(r4)
    5d56:	6d 4a       	mov.b	@r10,	r13	
    5d58:	12 c3       	clrc			
    5d5a:	4d 10       	rrc.b	r13		
    5d5c:	12 c3       	clrc			
    5d5e:	4d 10       	rrc.b	r13		
    5d60:	12 c3       	clrc			
    5d62:	4d 10       	rrc.b	r13		
    5d64:	12 c3       	clrc			
    5d66:	4d 10       	rrc.b	r13		
    5d68:	4d 4d       	mov.b	r13,	r13	
    5d6a:	3d d0 b0 f0 	bis	#-3920,	r13	;#0xf0b0
    5d6e:	0f 4d       	mov	r13,	r15	
    5d70:	8f 10       	swpb	r15		
    5d72:	4f 4f       	mov.b	r15,	r15	
    5d74:	4d 4d       	mov.b	r13,	r13	
    5d76:	8d 10       	swpb	r13		
    5d78:	0d df       	bis	r15,	r13	
    5d7a:	89 4d 00 00 	mov	r13,	0(r9)	;0x0000(r9)
    5d7e:	6d 4a       	mov.b	@r10,	r13	
    5d80:	3d f0 0f 00 	and	#15,	r13	;#0x000f
    5d84:	3d d0 b0 f0 	bis	#-3920,	r13	;#0xf0b0
    5d88:	0f 4d       	mov	r13,	r15	
    5d8a:	8f 10       	swpb	r15		
    5d8c:	4f 4f       	mov.b	r15,	r15	
    5d8e:	4d 4d       	mov.b	r13,	r13	
    5d90:	8d 10       	swpb	r13		
    5d92:	0d df       	bis	r15,	r13	
    5d94:	89 4d 02 00 	mov	r13,	2(r9)	;0x0002(r9)
    5d98:	1a 53       	inc	r10		
    5d9a:	84 4a cc ff 	mov	r10,	-52(r4)	;0xffcc(r4)
    5d9e:	3c 53       	add	#-1,	r12	;r3 As==11
    5da0:	84 4c de ff 	mov	r12,	-34(r4)	;0xffde(r4)
    5da4:	28 f2       	and	#4,	r8	;r2 As==10
    5da6:	19 20       	jnz	$+52     	;abs 0x5dda
    5da8:	1a 44 de ff 	mov	-34(r4),r10	;0xffde(r4)
    5dac:	2a 93       	cmp	#2,	r10	;r3 As==10
    5dae:	3d 28       	jnc	$+124    	;abs 0x5e2a
    5db0:	1c 44 cc ff 	mov	-52(r4),r12	;0xffcc(r4)
    5db4:	6d 4c       	mov.b	@r12,	r13	
    5db6:	8d 10       	swpb	r13		
    5db8:	5f 4c 01 00 	mov.b	1(r12),	r15	;0x0001(r12)
    5dbc:	0d df       	bis	r15,	r13	
    5dbe:	0f 4d       	mov	r13,	r15	
    5dc0:	8f 10       	swpb	r15		
    5dc2:	4f 4f       	mov.b	r15,	r15	
    5dc4:	4d 4d       	mov.b	r13,	r13	
    5dc6:	8d 10       	swpb	r13		
    5dc8:	0d df       	bis	r15,	r13	
    5dca:	89 4d 06 00 	mov	r13,	6(r9)	;0x0006(r9)
    5dce:	2c 53       	incd	r12		
    5dd0:	84 4c cc ff 	mov	r12,	-52(r4)	;0xffcc(r4)
    5dd4:	2a 83       	decd	r10		
    5dd6:	84 4a de ff 	mov	r10,	-34(r4)	;0xffde(r4)
    5dda:	39 52       	add	#8,	r9	;r2 As==11
    5ddc:	3b 82       	sub	#8,	r11	;r2 As==11
    5dde:	27 52       	add	#4,	r7	;r2 As==10
    5de0:	1f 44 e0 ff 	mov	-32(r4),r15	;0xffe0(r4)
    5de4:	8f 47 0c 00 	mov	r7,	12(r15)	;0x000c(r15)
    5de8:	1d 44 de ff 	mov	-34(r4),r13	;0xffde(r4)
    5dec:	0b 9d       	cmp	r13,	r11	
    5dee:	1d 28       	jnc	$+60     	;abs 0x5e2a
    5df0:	1e 44 cc ff 	mov	-52(r4),r14	;0xffcc(r4)
    5df4:	0f 49       	mov	r9,	r15	
    5df6:	b0 12 80 e8 	call	#0xe880	
    5dfa:	0f 49       	mov	r9,	r15	
    5dfc:	1f 54 de ff 	add	-34(r4),r15	;0xffde(r4)
    5e00:	84 43 de ff 	mov	#0,	-34(r4)	;r3 As==00, 0xffde(r4)
    5e04:	0a 4f       	mov	r15,	r10	
    5e06:	8f 10       	swpb	r15		
    5e08:	8f 11       	sxt	r15		
    5e0a:	8f 10       	swpb	r15		
    5e0c:	8f 11       	sxt	r15		
    5e0e:	0b 4f       	mov	r15,	r11	
    5e10:	1e 44 e0 ff 	mov	-32(r4),r14	;0xffe0(r4)
    5e14:	1c 4e 06 00 	mov	6(r14),	r12	;0x0006(r14)
    5e18:	0f 4c       	mov	r12,	r15	
    5e1a:	8f 10       	swpb	r15		
    5e1c:	8f 11       	sxt	r15		
    5e1e:	8f 10       	swpb	r15		
    5e20:	8f 11       	sxt	r15		
    5e22:	0d 4f       	mov	r15,	r13	
    5e24:	0a 8c       	sub	r12,	r10	
    5e26:	0b 7d       	subc	r13,	r11	
    5e28:	09 3c       	jmp	$+20     	;abs 0x5e3c
    5e2a:	1e 44 e0 ff 	mov	-32(r4),r14	;0xffe0(r4)
    5e2e:	1f 4e 06 00 	mov	6(r14),	r15	;0x0006(r14)
    5e32:	b0 12 30 e2 	call	#0xe230	
    5e36:	3f 40 fd ff 	mov	#-3,	r15	;#0xfffd
    5e3a:	88 3c       	jmp	$+274    	;abs 0x5f4c
    5e3c:	e4 b2 ce ff 	bit.b	#4,	-50(r4)	;r2 As==10, 0xffce(r4)
    5e40:	04 20       	jnz	$+10     	;abs 0x5e4a
    5e42:	1f 44 e0 ff 	mov	-32(r4),r15	;0xffe0(r4)
    5e46:	8f 4a 04 00 	mov	r10,	4(r15)	;0x0004(r15)
    5e4a:	1e 44 e0 ff 	mov	-32(r4),r14	;0xffe0(r4)
    5e4e:	8e 4a 08 00 	mov	r10,	8(r14)	;0x0008(r14)
    5e52:	1c 4e 06 00 	mov	6(r14),	r12	;0x0006(r14)
    5e56:	1d 4e 04 00 	mov	4(r14),	r13	;0x0004(r14)
    5e5a:	3d 50 d8 ff 	add	#-40,	r13	;#0xffd8
    5e5e:	4f 4d       	mov.b	r13,	r15	
    5e60:	8f 10       	swpb	r15		
    5e62:	8d 10       	swpb	r13		
    5e64:	4d 4d       	mov.b	r13,	r13	
    5e66:	0f dd       	bis	r13,	r15	
    5e68:	cc 4f 04 00 	mov.b	r15,	4(r12)	;0x0004(r12)
    5e6c:	8f 10       	swpb	r15		
    5e6e:	cc 4f 05 00 	mov.b	r15,	5(r12)	;0x0005(r12)
    5e72:	19 4e 0c 00 	mov	12(r14),r9	;0x000c(r14)
    5e76:	09 93       	tst	r9		
    5e78:	1d 24       	jz	$+60     	;abs 0x5eb4
    5e7a:	1a 4e 0e 00 	mov	14(r14),r10	;0x000e(r14)
    5e7e:	0f 4a       	mov	r10,	r15	
    5e80:	8f 10       	swpb	r15		
    5e82:	8f 11       	sxt	r15		
    5e84:	8f 10       	swpb	r15		
    5e86:	8f 11       	sxt	r15		
    5e88:	0b 4f       	mov	r15,	r11	
    5e8a:	1c 4e 06 00 	mov	6(r14),	r12	;0x0006(r14)
    5e8e:	0f 4c       	mov	r12,	r15	
    5e90:	8f 10       	swpb	r15		
    5e92:	8f 11       	sxt	r15		
    5e94:	8f 10       	swpb	r15		
    5e96:	8f 11       	sxt	r15		
    5e98:	0d 4f       	mov	r15,	r13	
    5e9a:	0a 8c       	sub	r12,	r10	
    5e9c:	0b 7d       	subc	r13,	r11	
    5e9e:	1f 4e 04 00 	mov	4(r14),	r15	;0x0004(r14)
    5ea2:	0f 8a       	sub	r10,	r15	
    5ea4:	0a 4f       	mov	r15,	r10	
    5ea6:	4f 4f       	mov.b	r15,	r15	
    5ea8:	8f 10       	swpb	r15		
    5eaa:	8a 10       	swpb	r10		
    5eac:	4a 4a       	mov.b	r10,	r10	
    5eae:	0a df       	bis	r15,	r10	
    5eb0:	89 4a 00 00 	mov	r10,	0(r9)	;0x0000(r9)
    5eb4:	c4 93 ca ff 	tst.b	-54(r4)	;0xffca(r4)
    5eb8:	48 24       	jz	$+146    	;abs 0x5f4a
    5eba:	1e 44 e0 ff 	mov	-32(r4),r14	;0xffe0(r4)
    5ebe:	1a 4e 06 00 	mov	6(r14),	r10	;0x0006(r14)
    5ec2:	fa 90 11 00 06 00 	cmp.b	#17,	6(r10)	;#0x0011, 0x0006(r10)
    5ec8:	40 20       	jnz	$+130    	;abs 0x5f4a
    5eca:	1b 4e 0e 00 	mov	14(r14),r11	;0x000e(r14)
    5ece:	8b 43 06 00 	mov	#0,	6(r11)	;r3 As==00, 0x0006(r11)
    5ed2:	84 4b d2 ff 	mov	r11,	-46(r4)	;0xffd2(r4)
    5ed6:	b4 42 d4 ff 	mov	#8,	-44(r4)	;r2 As==11, 0xffd4(r4)
    5eda:	3f 40 ca ff 	mov	#-54,	r15	;#0xffca
    5ede:	0f 54       	add	r4,	r15	
    5ee0:	3f 50 0e 00 	add	#14,	r15	;#0x000e
    5ee4:	84 4f d6 ff 	mov	r15,	-42(r4)	;0xffd6(r4)
    5ee8:	0e 4b       	mov	r11,	r14	
    5eea:	3e 52       	add	#8,	r14	;r2 As==11
    5eec:	84 4e d8 ff 	mov	r14,	-40(r4)	;0xffd8(r4)
    5ef0:	2f 49       	mov	@r9,	r15	
    5ef2:	4e 4f       	mov.b	r15,	r14	
    5ef4:	8e 10       	swpb	r14		
    5ef6:	8f 10       	swpb	r15		
    5ef8:	4f 4f       	mov.b	r15,	r15	
    5efa:	0e df       	bis	r15,	r14	
    5efc:	3e 82       	sub	#8,	r14	;r2 As==11
    5efe:	84 4e da ff 	mov	r14,	-38(r4)	;0xffda(r4)
    5f02:	84 43 dc ff 	mov	#0,	-36(r4)	;r3 As==00, 0xffdc(r4)
    5f06:	7d 40 11 00 	mov.b	#17,	r13	;#0x0011
    5f0a:	0e 44       	mov	r4,	r14	
    5f0c:	3e 50 d2 ff 	add	#-46,	r14	;#0xffd2
    5f10:	0f 4a       	mov	r10,	r15	
    5f12:	b0 12 08 e1 	call	#0xe108	
    5f16:	09 4f       	mov	r15,	r9	
    5f18:	7d 40 11 00 	mov.b	#17,	r13	;#0x0011
    5f1c:	0e 44       	mov	r4,	r14	
    5f1e:	3e 50 d2 ff 	add	#-46,	r14	;#0xffd2
    5f22:	0f 4a       	mov	r10,	r15	
    5f24:	b0 12 08 e1 	call	#0xe108	
    5f28:	0e 4f       	mov	r15,	r14	
    5f2a:	8e 10       	swpb	r14		
    5f2c:	4e 4e       	mov.b	r14,	r14	
    5f2e:	4f 49       	mov.b	r9,	r15	
    5f30:	8f 10       	swpb	r15		
    5f32:	0e df       	bis	r15,	r14	
    5f34:	8b 4e 06 00 	mov	r14,	6(r11)	;0x0006(r11)
    5f38:	08 3c       	jmp	$+18     	;abs 0x5f4a
    5f3a:	3f 43       	mov	#-1,	r15	;r3 As==11
    5f3c:	07 3c       	jmp	$+16     	;abs 0x5f4c
    5f3e:	3f 40 fc ff 	mov	#-4,	r15	;#0xfffc
    5f42:	04 3c       	jmp	$+10     	;abs 0x5f4c
    5f44:	3f 40 fe ff 	mov	#-2,	r15	;#0xfffe
    5f48:	01 3c       	jmp	$+4      	;abs 0x5f4c
    5f4a:	0f 43       	clr	r15		
    5f4c:	31 50 26 00 	add	#38,	r1	;#0x0026
    5f50:	34 41       	pop	r4		
    5f52:	35 41       	pop	r5		
    5f54:	36 41       	pop	r6		
    5f56:	37 41       	pop	r7		
    5f58:	38 41       	pop	r8		
    5f5a:	39 41       	pop	r9		
    5f5c:	3a 41       	pop	r10		
    5f5e:	3b 41       	pop	r11		
    5f60:	30 41       	ret			

00005f62 <IPDispatchP__reconstruct_age>:
    5f62:	0b 12       	push	r11		
    5f64:	0b 4f       	mov	r15,	r11	
    5f66:	5f 4f 0a 00 	mov.b	10(r15),r15	;0x000a(r15)
    5f6a:	5f 93       	cmp.b	#1,	r15	;r3 As==01
    5f6c:	0d 24       	jz	$+28     	;abs 0x5f88
    5f6e:	09 28       	jnc	$+20     	;abs 0x5f82
    5f70:	7f 90 03 00 	cmp.b	#3,	r15	;#0x0003
    5f74:	03 24       	jz	$+8      	;abs 0x5f7c
    5f76:	6f 92       	cmp.b	#4,	r15	;r2 As==10
    5f78:	11 20       	jnz	$+36     	;abs 0x5f9c
    5f7a:	06 3c       	jmp	$+14     	;abs 0x5f88
    5f7c:	eb 42 0a 00 	mov.b	#4,	10(r11)	;r2 As==10, 0x000a(r11)
    5f80:	0d 3c       	jmp	$+28     	;abs 0x5f9c
    5f82:	db 43 0a 00 	mov.b	#1,	10(r11)	;r3 As==01, 0x000a(r11)
    5f86:	0a 3c       	jmp	$+22     	;abs 0x5f9c
    5f88:	1f 4b 06 00 	mov	6(r11),	r15	;0x0006(r11)
    5f8c:	0f 93       	tst	r15		
    5f8e:	02 24       	jz	$+6      	;abs 0x5f94
    5f90:	b0 12 30 e2 	call	#0xe230	
    5f94:	eb 43 0a 00 	mov.b	#2,	10(r11)	;r3 As==10, 0x000a(r11)
    5f98:	8b 43 06 00 	mov	#0,	6(r11)	;r3 As==00, 0x0006(r11)
    5f9c:	3b 41       	pop	r11		
    5f9e:	30 41       	ret			

00005fa0 <RPLRoutingEngineP__0__RPLRankInfo__getRank.constprop.354>:
    5fa0:	c2 93 e4 11 	tst.b	&0x11e4	
    5fa4:	03 24       	jz	$+8      	;abs 0x5fac
    5fa6:	1f 42 9e 11 	mov	&0x119e,r15	
    5faa:	30 41       	ret			
    5fac:	1f 42 8c 11 	mov	&0x118c,r15	
    5fb0:	30 41       	ret			

00005fb2 <__nesc_atomic_start>:
    5fb2:	0e 42       	mov	r2,	r14	
    5fb4:	32 c2       	dint			
    5fb6:	03 43       	nop			
    5fb8:	03 43       	nop			
    5fba:	3e f2       	and	#8,	r14	;r2 As==11
    5fbc:	5f 43       	mov.b	#1,	r15	;r3 As==01
    5fbe:	01 20       	jnz	$+4      	;abs 0x5fc2
    5fc0:	4f 43       	clr.b	r15		
    5fc2:	30 41       	ret			

00005fc4 <__nesc_atomic_end>:
    5fc4:	4f 93       	tst.b	r15		
    5fc6:	01 24       	jz	$+4      	;abs 0x5fca
    5fc8:	32 d2       	eint			
    5fca:	30 41       	ret			

00005fcc <LocalIeeeEui64P__LocalIeeeEui64__getId>:
    5fcc:	0b 12       	push	r11		
    5fce:	0a 12       	push	r10		
    5fd0:	09 12       	push	r9		
    5fd2:	08 12       	push	r8		
    5fd4:	07 12       	push	r7		
    5fd6:	c2 93 08 12 	tst.b	&0x1208	
    5fda:	b9 20       	jnz	$+372    	;abs 0x614e
    5fdc:	c2 93 06 12 	tst.b	&0x1206	
    5fe0:	8d 20       	jnz	$+284    	;abs 0x60fc
    5fe2:	b0 12 b2 5f 	call	#0x5fb2	
    5fe6:	48 4f       	mov.b	r15,	r8	
    5fe8:	b0 12 90 48 	call	#0x4890	
    5fec:	f2 f0 ef ff 29 00 	and.b	#-17,	&0x0029	;#0xffef
    5ff2:	b0 12 98 48 	call	#0x4898	
    5ff6:	3f 40 30 02 	mov	#560,	r15	;#0x0230
    5ffa:	b0 12 66 48 	call	#0x4866	
    5ffe:	b0 12 90 48 	call	#0x4890	
    6002:	3f 40 3c 00 	mov	#60,	r15	;#0x003c
    6006:	b0 12 66 48 	call	#0x4866	
    600a:	0b 43       	clr	r11		
    600c:	f2 b0 10 00 28 00 	bit.b	#16,	&0x0028	;#0x0010
    6012:	09 24       	jz	$+20     	;abs 0x6026
    6014:	3b 50 05 00 	add	#5,	r11	;#0x0005
    6018:	3f 40 05 00 	mov	#5,	r15	;#0x0005
    601c:	b0 12 66 48 	call	#0x4866	
    6020:	3b 90 f0 00 	cmp	#240,	r11	;#0x00f0
    6024:	f3 23       	jnz	$-24     	;abs 0x600c
    6026:	3f 40 a4 01 	mov	#420,	r15	;#0x01a4
    602a:	b0 12 66 48 	call	#0x4866	
    602e:	3b 90 f0 00 	cmp	#240,	r11	;#0x00f0
    6032:	47 2c       	jc	$+144    	;abs 0x60c2
    6034:	7a 42       	mov.b	#8,	r10	;r2 As==11
    6036:	7b 40 33 00 	mov.b	#51,	r11	;#0x0033
    603a:	1b b3       	bit	#1,	r11	;r3 As==01
    603c:	0b 24       	jz	$+24     	;abs 0x6054
    603e:	b0 12 98 48 	call	#0x4898	
    6042:	3f 40 05 00 	mov	#5,	r15	;#0x0005
    6046:	b0 12 66 48 	call	#0x4866	
    604a:	b0 12 90 48 	call	#0x4890	
    604e:	3f 40 41 00 	mov	#65,	r15	;#0x0041
    6052:	0a 3c       	jmp	$+22     	;abs 0x6068
    6054:	b0 12 98 48 	call	#0x4898	
    6058:	3f 40 3c 00 	mov	#60,	r15	;#0x003c
    605c:	b0 12 66 48 	call	#0x4866	
    6060:	b0 12 90 48 	call	#0x4890	
    6064:	3f 40 05 00 	mov	#5,	r15	;#0x0005
    6068:	b0 12 66 48 	call	#0x4866	
    606c:	12 c3       	clrc			
    606e:	4b 10       	rrc.b	r11		
    6070:	7a 53       	add.b	#-1,	r10	;r3 As==11
    6072:	e3 23       	jnz	$-56     	;abs 0x603a
    6074:	3a 40 30 1d 	mov	#7472,	r10	;#0x1d30
    6078:	79 42       	mov.b	#8,	r9	;r2 As==11
    607a:	4b 43       	clr.b	r11		
    607c:	12 c3       	clrc			
    607e:	4b 10       	rrc.b	r11		
    6080:	b0 12 98 48 	call	#0x4898	
    6084:	3f 40 05 00 	mov	#5,	r15	;#0x0005
    6088:	b0 12 66 48 	call	#0x4866	
    608c:	b0 12 90 48 	call	#0x4890	
    6090:	3f 40 05 00 	mov	#5,	r15	;#0x0005
    6094:	b0 12 66 48 	call	#0x4866	
    6098:	57 42 28 00 	mov.b	&0x0028,r7	
    609c:	3f 40 41 00 	mov	#65,	r15	;#0x0041
    60a0:	b0 12 66 48 	call	#0x4866	
    60a4:	77 b0 10 00 	bit.b	#16,	r7	;#0x0010
    60a8:	02 24       	jz	$+6      	;abs 0x60ae
    60aa:	7b d0 80 ff 	bis.b	#-128,	r11	;#0xff80
    60ae:	79 53       	add.b	#-1,	r9	;r3 As==11
    60b0:	e5 23       	jnz	$-52     	;abs 0x607c
    60b2:	ca 4b 00 00 	mov.b	r11,	0(r10)	;0x0000(r10)
    60b6:	1a 53       	inc	r10		
    60b8:	3a 90 38 1d 	cmp	#7480,	r10	;#0x1d38
    60bc:	dd 23       	jnz	$-68     	;abs 0x6078
    60be:	4b 43       	clr.b	r11		
    60c0:	01 3c       	jmp	$+4      	;abs 0x60c4
    60c2:	6b 42       	mov.b	#4,	r11	;r2 As==10
    60c4:	4f 48       	mov.b	r8,	r15	
    60c6:	b0 12 c4 5f 	call	#0x5fc4	
    60ca:	4b 93       	tst.b	r11		
    60cc:	1b 20       	jnz	$+56     	;abs 0x6104
    60ce:	0e 43       	clr	r14		
    60d0:	4f 43       	clr.b	r15		
    60d2:	5f ee 30 1d 	xor.b	7472(r14),r15	;0x1d30(r14)
    60d6:	7d 42       	mov.b	#8,	r13	;r2 As==11
    60d8:	0c 4f       	mov	r15,	r12	
    60da:	1c f3       	and	#1,	r12	;r3 As==01
    60dc:	12 c3       	clrc			
    60de:	4f 10       	rrc.b	r15		
    60e0:	0c 93       	tst	r12		
    60e2:	02 24       	jz	$+6      	;abs 0x60e8
    60e4:	7f e0 8c ff 	xor.b	#-116,	r15	;#0xff8c
    60e8:	7d 53       	add.b	#-1,	r13	;r3 As==11
    60ea:	f6 23       	jnz	$-18     	;abs 0x60d8
    60ec:	1e 53       	inc	r14		
    60ee:	3e 92       	cmp	#8,	r14	;r2 As==11
    60f0:	f0 23       	jnz	$-30     	;abs 0x60d2
    60f2:	4f 93       	tst.b	r15		
    60f4:	05 20       	jnz	$+12     	;abs 0x6100
    60f6:	d2 43 06 12 	mov.b	#1,	&0x1206	;r3 As==01
    60fa:	04 3c       	jmp	$+10     	;abs 0x6104
    60fc:	4b 43       	clr.b	r11		
    60fe:	02 3c       	jmp	$+6      	;abs 0x6104
    6100:	7b 40 06 00 	mov.b	#6,	r11	;#0x0006
    6104:	c2 93 06 12 	tst.b	&0x1206	
    6108:	07 24       	jz	$+16     	;abs 0x6118
    610a:	5f 42 31 1d 	mov.b	&0x1d31,r15	
    610e:	5e 42 32 1d 	mov.b	&0x1d32,r14	
    6112:	5d 42 33 1d 	mov.b	&0x1d33,r13	
    6116:	03 3c       	jmp	$+8      	;abs 0x611e
    6118:	4d 43       	clr.b	r13		
    611a:	4e 43       	clr.b	r14		
    611c:	4f 43       	clr.b	r15		
    611e:	4b 93       	tst.b	r11		
    6120:	16 20       	jnz	$+46     	;abs 0x614e
    6122:	c2 43 0a 12 	mov.b	#0,	&0x120a	;r3 As==00
    6126:	f2 40 12 00 0b 12 	mov.b	#18,	&0x120b	;#0x0012
    612c:	f2 40 6d 00 0c 12 	mov.b	#109,	&0x120c	;#0x006d
    6132:	f2 40 45 00 0d 12 	mov.b	#69,	&0x120d	;#0x0045
    6138:	f2 40 50 00 0e 12 	mov.b	#80,	&0x120e	;#0x0050
    613e:	c2 4d 0f 12 	mov.b	r13,	&0x120f	
    6142:	c2 4e 10 12 	mov.b	r14,	&0x1210	
    6146:	c2 4f 11 12 	mov.b	r15,	&0x1211	
    614a:	d2 43 08 12 	mov.b	#1,	&0x1208	;r3 As==01
    614e:	1c 42 0a 12 	mov	&0x120a,r12	
    6152:	1d 42 0c 12 	mov	&0x120c,r13	
    6156:	1e 42 0e 12 	mov	&0x120e,r14	
    615a:	1f 42 10 12 	mov	&0x1210,r15	
    615e:	37 41       	pop	r7		
    6160:	38 41       	pop	r8		
    6162:	39 41       	pop	r9		
    6164:	3a 41       	pop	r10		
    6166:	3b 41       	pop	r11		
    6168:	30 41       	ret			

0000616a <Ieee154AddressP__Ieee154Address__getExtAddr>:
    616a:	31 82       	sub	#8,	r1	;r2 As==11
    616c:	b0 12 cc 5f 	call	#0x5fcc	
    6170:	81 4c 00 00 	mov	r12,	0(r1)	;0x0000(r1)
    6174:	81 4d 02 00 	mov	r13,	2(r1)	;0x0002(r1)
    6178:	81 4e 04 00 	mov	r14,	4(r1)	;0x0004(r1)
    617c:	81 4f 06 00 	mov	r15,	6(r1)	;0x0006(r1)
    6180:	0f 41       	mov	r1,	r15	
    6182:	3f 50 07 00 	add	#7,	r15	;#0x0007
    6186:	0e 43       	clr	r14		
    6188:	0d 41       	mov	r1,	r13	
    618a:	0d 5e       	add	r14,	r13	
    618c:	6c 4d       	mov.b	@r13,	r12	
    618e:	ed 4f 00 00 	mov.b	@r15,	0(r13)	;0x0000(r13)
    6192:	cf 4c 00 00 	mov.b	r12,	0(r15)	;0x0000(r15)
    6196:	1e 53       	inc	r14		
    6198:	3f 53       	add	#-1,	r15	;r3 As==11
    619a:	2e 92       	cmp	#4,	r14	;r2 As==10
    619c:	f5 23       	jnz	$-20     	;abs 0x6188
    619e:	2c 41       	mov	@r1,	r12	
    61a0:	1d 41 02 00 	mov	2(r1),	r13	;0x0002(r1)
    61a4:	1e 41 04 00 	mov	4(r1),	r14	;0x0004(r1)
    61a8:	1f 41 06 00 	mov	6(r1),	r15	;0x0006(r1)
    61ac:	31 52       	add	#8,	r1	;r2 As==11
    61ae:	30 41       	ret			

000061b0 <IPAddressP__IPAddress__getLLAddr>:
    61b0:	0b 12       	push	r11		
    61b2:	0a 12       	push	r10		
    61b4:	31 82       	sub	#8,	r1	;r2 As==11
    61b6:	0b 4f       	mov	r15,	r11	
    61b8:	1a 42 c6 1b 	mov	&0x1bc6,r10	
    61bc:	b0 12 6a 61 	call	#0x616a	
    61c0:	81 4c 00 00 	mov	r12,	0(r1)	;0x0000(r1)
    61c4:	81 4d 02 00 	mov	r13,	2(r1)	;0x0002(r1)
    61c8:	81 4e 04 00 	mov	r14,	4(r1)	;0x0004(r1)
    61cc:	81 4f 06 00 	mov	r15,	6(r1)	;0x0006(r1)
    61d0:	3d 40 10 00 	mov	#16,	r13	;#0x0010
    61d4:	0e 43       	clr	r14		
    61d6:	0f 4b       	mov	r11,	r15	
    61d8:	b0 12 74 ea 	call	#0xea74	
    61dc:	bb 40 fe 80 00 00 	mov	#-32514,0(r11)	;#0x80fe, 0x0000(r11)
    61e2:	c2 93 12 12 	tst.b	&0x1212	
    61e6:	12 24       	jz	$+38     	;abs 0x620c
    61e8:	bb 40 00 ff 0a 00 	mov	#-256,	10(r11)	;#0xff00, 0x000a(r11)
    61ee:	bb 40 fe 00 0c 00 	mov	#254,	12(r11)	;#0x00fe, 0x000c(r11)
    61f4:	0f 4a       	mov	r10,	r15	
    61f6:	8f 10       	swpb	r15		
    61f8:	4f 4f       	mov.b	r15,	r15	
    61fa:	4e 4a       	mov.b	r10,	r14	
    61fc:	8e 10       	swpb	r14		
    61fe:	0e df       	bis	r15,	r14	
    6200:	8b 4e 0e 00 	mov	r14,	14(r11)	;0x000e(r11)
    6204:	fb f0 fd ff 08 00 	and.b	#-3,	8(r11)	;#0xfffd, 0x0008(r11)
    620a:	0d 3c       	jmp	$+28     	;abs 0x6226
    620c:	0f 4b       	mov	r11,	r15	
    620e:	3e 40 07 00 	mov	#7,	r14	;#0x0007
    6212:	0d 41       	mov	r1,	r13	
    6214:	0d 5e       	add	r14,	r13	
    6216:	ef 4d 08 00 	mov.b	@r13,	8(r15)	;0x0008(r15)
    621a:	3e 53       	add	#-1,	r14	;r3 As==11
    621c:	1f 53       	inc	r15		
    621e:	3e 93       	cmp	#-1,	r14	;r3 As==11
    6220:	f8 23       	jnz	$-14     	;abs 0x6212
    6222:	eb e3 08 00 	xor.b	#2,	8(r11)	;r3 As==10, 0x0008(r11)
    6226:	5f 43       	mov.b	#1,	r15	;r3 As==01
    6228:	31 52       	add	#8,	r1	;r2 As==11
    622a:	3a 41       	pop	r10		
    622c:	3b 41       	pop	r11		
    622e:	30 41       	ret			

00006230 <IPAddressP__IPAddress__setSource>:
    6230:	5e 4f 18 00 	mov.b	24(r15),r14	;0x0018(r15)
    6234:	7e 93       	cmp.b	#-1,	r14	;r3 As==11
    6236:	08 20       	jnz	$+18     	;abs 0x6248
    6238:	5e 4f 19 00 	mov.b	25(r15),r14	;0x0019(r15)
    623c:	3e f0 0f 00 	and	#15,	r14	;#0x000f
    6240:	3e 90 03 00 	cmp	#3,	r14	;#0x0003
    6244:	0b 38       	jl	$+24     	;abs 0x625c
    6246:	0e 3c       	jmp	$+30     	;abs 0x6264
    6248:	7e 90 fe ff 	cmp.b	#-2,	r14	;#0xfffe
    624c:	0b 20       	jnz	$+24     	;abs 0x6264
    624e:	5e 4f 19 00 	mov.b	25(r15),r14	;0x0019(r15)
    6252:	3e f0 f0 00 	and	#240,	r14	;#0x00f0
    6256:	3e 90 81 00 	cmp	#129,	r14	;#0x0081
    625a:	04 34       	jge	$+10     	;abs 0x6264
    625c:	3f 52       	add	#8,	r15	;r2 As==11
    625e:	b0 12 b0 61 	call	#0x61b0	
    6262:	30 41       	ret			
    6264:	3f 52       	add	#8,	r15	;r2 As==11
    6266:	b0 12 1a 48 	call	#0x481a	
    626a:	30 41       	ret			

0000626c <IPAddressP__IPAddress__isLocalAddress>:
    626c:	0b 12       	push	r11		
    626e:	0a 12       	push	r10		
    6270:	09 12       	push	r9		
    6272:	08 12       	push	r8		
    6274:	07 12       	push	r7		
    6276:	06 12       	push	r6		
    6278:	0b 4f       	mov	r15,	r11	
    627a:	16 42 c6 1b 	mov	&0x1bc6,r6	
    627e:	b0 12 6a 61 	call	#0x616a	
    6282:	4a 4c       	mov.b	r12,	r10	
    6284:	8c 10       	swpb	r12		
    6286:	49 4d       	mov.b	r13,	r9	
    6288:	8d 10       	swpb	r13		
    628a:	48 4e       	mov.b	r14,	r8	
    628c:	8e 10       	swpb	r14		
    628e:	47 4f       	mov.b	r15,	r7	
    6290:	8f 10       	swpb	r15		
    6292:	bb 90 fe 80 00 00 	cmp	#-32514,0(r11)	;#0x80fe, 0x0000(r11)
    6298:	33 20       	jnz	$+104    	;abs 0x6300
    629a:	c2 93 12 12 	tst.b	&0x1212	
    629e:	13 24       	jz	$+40     	;abs 0x62c6
    62a0:	bb 90 00 ff 0a 00 	cmp	#-256,	10(r11)	;#0xff00, 0x000a(r11)
    62a6:	0f 20       	jnz	$+32     	;abs 0x62c6
    62a8:	bb 90 fe 00 0c 00 	cmp	#254,	12(r11)	;#0x00fe, 0x000c(r11)
    62ae:	0b 20       	jnz	$+24     	;abs 0x62c6
    62b0:	1e 4b 0e 00 	mov	14(r11),r14	;0x000e(r11)
    62b4:	4f 4e       	mov.b	r14,	r15	
    62b6:	8f 10       	swpb	r15		
    62b8:	8e 10       	swpb	r14		
    62ba:	4e 4e       	mov.b	r14,	r14	
    62bc:	0f de       	bis	r14,	r15	
    62be:	5e 43       	mov.b	#1,	r14	;r3 As==01
    62c0:	0f 96       	cmp	r6,	r15	
    62c2:	34 20       	jnz	$+106    	;abs 0x632c
    62c4:	34 3c       	jmp	$+106    	;abs 0x632e
    62c6:	6f e3       	xor.b	#2,	r15	;r3 As==10
    62c8:	cb 9f 08 00 	cmp.b	r15,	8(r11)	;0x0008(r11)
    62cc:	16 20       	jnz	$+46     	;abs 0x62fa
    62ce:	cb 97 09 00 	cmp.b	r7,	9(r11)	;0x0009(r11)
    62d2:	13 20       	jnz	$+40     	;abs 0x62fa
    62d4:	cb 9e 0a 00 	cmp.b	r14,	10(r11)	;0x000a(r11)
    62d8:	10 20       	jnz	$+34     	;abs 0x62fa
    62da:	cb 98 0b 00 	cmp.b	r8,	11(r11)	;0x000b(r11)
    62de:	0d 20       	jnz	$+28     	;abs 0x62fa
    62e0:	cb 9d 0c 00 	cmp.b	r13,	12(r11)	;0x000c(r11)
    62e4:	0a 20       	jnz	$+22     	;abs 0x62fa
    62e6:	cb 99 0d 00 	cmp.b	r9,	13(r11)	;0x000d(r11)
    62ea:	07 20       	jnz	$+16     	;abs 0x62fa
    62ec:	cb 9c 0e 00 	cmp.b	r12,	14(r11)	;0x000e(r11)
    62f0:	04 20       	jnz	$+10     	;abs 0x62fa
    62f2:	1e 43       	mov	#1,	r14	;r3 As==01
    62f4:	cb 9a 0f 00 	cmp.b	r10,	15(r11)	;0x000f(r11)
    62f8:	01 24       	jz	$+4      	;abs 0x62fc
    62fa:	0e 43       	clr	r14		
    62fc:	4e 4e       	mov.b	r14,	r14	
    62fe:	17 3c       	jmp	$+48     	;abs 0x632e
    6300:	fb 93 00 00 	cmp.b	#-1,	0(r11)	;r3 As==11, 0x0000(r11)
    6304:	09 20       	jnz	$+20     	;abs 0x6318
    6306:	5f 4b 01 00 	mov.b	1(r11),	r15	;0x0001(r11)
    630a:	3f f0 0f 00 	and	#15,	r15	;#0x000f
    630e:	5e 43       	mov.b	#1,	r14	;r3 As==01
    6310:	3f 90 03 00 	cmp	#3,	r15	;#0x0003
    6314:	0c 38       	jl	$+26     	;abs 0x632e
    6316:	0a 3c       	jmp	$+22     	;abs 0x632c
    6318:	3d 40 10 00 	mov	#16,	r13	;#0x0010
    631c:	3e 40 ca 1b 	mov	#7114,	r14	;#0x1bca
    6320:	0f 4b       	mov	r11,	r15	
    6322:	b0 12 22 e8 	call	#0xe822	
    6326:	5e 43       	mov.b	#1,	r14	;r3 As==01
    6328:	0f 93       	tst	r15		
    632a:	01 24       	jz	$+4      	;abs 0x632e
    632c:	4e 43       	clr.b	r14		
    632e:	4f 4e       	mov.b	r14,	r15	
    6330:	36 41       	pop	r6		
    6332:	37 41       	pop	r7		
    6334:	38 41       	pop	r8		
    6336:	39 41       	pop	r9		
    6338:	3a 41       	pop	r10		
    633a:	3b 41       	pop	r11		
    633c:	30 41       	ret			

0000633e <IPNeighborDiscoveryP__add_sllao>:
    633e:	0b 12       	push	r11		
    6340:	31 50 f6 ff 	add	#-10,	r1	;#0xfff6
    6344:	0b 4f       	mov	r15,	r11	
    6346:	d1 43 00 00 	mov.b	#1,	0(r1)	;r3 As==01, 0x0000(r1)
    634a:	e1 43 01 00 	mov.b	#2,	1(r1)	;r3 As==10, 0x0001(r1)
    634e:	b0 12 6a 61 	call	#0x616a	
    6352:	81 4c 02 00 	mov	r12,	2(r1)	;0x0002(r1)
    6356:	81 4d 04 00 	mov	r13,	4(r1)	;0x0004(r1)
    635a:	81 4e 06 00 	mov	r14,	6(r1)	;0x0006(r1)
    635e:	81 4f 08 00 	mov	r15,	8(r1)	;0x0008(r1)
    6362:	3d 40 0a 00 	mov	#10,	r13	;#0x000a
    6366:	0e 41       	mov	r1,	r14	
    6368:	0f 4b       	mov	r11,	r15	
    636a:	b0 12 1a e6 	call	#0xe61a	
    636e:	3d 40 06 00 	mov	#6,	r13	;#0x0006
    6372:	0e 43       	clr	r14		
    6374:	0f 4b       	mov	r11,	r15	
    6376:	3f 50 0a 00 	add	#10,	r15	;#0x000a
    637a:	b0 12 74 ea 	call	#0xea74	
    637e:	7f 40 10 00 	mov.b	#16,	r15	;#0x0010
    6382:	31 50 0a 00 	add	#10,	r1	;#0x000a
    6386:	3b 41       	pop	r11		
    6388:	30 41       	ret			

0000638a <SchedulerBasicP__TaskBasic__postTask>:
    638a:	0b 12       	push	r11		
    638c:	4b 4f       	mov.b	r15,	r11	
    638e:	b0 12 b2 5f 	call	#0x5fb2	
    6392:	4e 4b       	mov.b	r11,	r14	
    6394:	fe 93 44 13 	cmp.b	#-1,	4932(r14);r3 As==11, 0x1344(r14)
    6398:	06 20       	jnz	$+14     	;abs 0x63a6
    639a:	1e 43       	mov	#1,	r14	;r3 As==01
    639c:	c2 9b 0b 26 	cmp.b	r11,	&0x260b	
    63a0:	03 24       	jz	$+8      	;abs 0x63a8
    63a2:	0e 43       	clr	r14		
    63a4:	01 3c       	jmp	$+4      	;abs 0x63a8
    63a6:	1e 43       	mov	#1,	r14	;r3 As==01
    63a8:	0e 93       	tst	r14		
    63aa:	0e 20       	jnz	$+30     	;abs 0x63c8
    63ac:	f2 93 f7 24 	cmp.b	#-1,	&0x24f7	;r3 As==11
    63b0:	03 20       	jnz	$+8      	;abs 0x63b8
    63b2:	c2 4b f7 24 	mov.b	r11,	&0x24f7	
    63b6:	04 3c       	jmp	$+10     	;abs 0x63c0
    63b8:	5e 42 0b 26 	mov.b	&0x260b,r14	
    63bc:	ce 4b 44 13 	mov.b	r11,	4932(r14);0x1344(r14)
    63c0:	c2 4b 0b 26 	mov.b	r11,	&0x260b	
    63c4:	4b 43       	clr.b	r11		
    63c6:	02 3c       	jmp	$+6      	;abs 0x63cc
    63c8:	7b 40 05 00 	mov.b	#5,	r11	;#0x0005
    63cc:	b0 12 c4 5f 	call	#0x5fc4	
    63d0:	4f 4b       	mov.b	r11,	r15	
    63d2:	3b 41       	pop	r11		
    63d4:	30 41       	ret			

000063d6 <IPNeighborDiscoveryP__IPForward__send>:
    63d6:	0b 12       	push	r11		
    63d8:	0a 12       	push	r10		
    63da:	09 12       	push	r9		
    63dc:	08 12       	push	r8		
    63de:	07 12       	push	r7		
    63e0:	06 12       	push	r6		
    63e2:	05 12       	push	r5		
    63e4:	04 12       	push	r4		
    63e6:	04 41       	mov	r1,	r4	
    63e8:	34 50 10 00 	add	#16,	r4	;#0x0010
    63ec:	31 50 8a ff 	add	#-118,	r1	;#0xff8a
    63f0:	0b 4f       	mov	r15,	r11	
    63f2:	84 4e b6 ff 	mov	r14,	-74(r4)	;0xffb6(r4)
    63f6:	09 4d       	mov	r13,	r9	
    63f8:	94 42 5a 26 b2 ff 	mov	&0x265a,-78(r4)	;0xffb2(r4)
    63fe:	0f 44       	mov	r4,	r15	
    6400:	3f 50 8e ff 	add	#-114,	r15	;#0xff8e
    6404:	b0 12 b0 61 	call	#0x61b0	
    6408:	0e 44       	mov	r4,	r14	
    640a:	3e 50 9e ff 	add	#-98,	r14	;#0xff9e
    640e:	0f 44       	mov	r4,	r15	
    6410:	3f 50 8e ff 	add	#-114,	r15	;#0xff8e
    6414:	b0 12 ee 4f 	call	#0x4fee	
    6418:	4f 93       	tst.b	r15		
    641a:	02 24       	jz	$+6      	;abs 0x6420
    641c:	30 40 b0 6e 	br	#0x6eb0	
    6420:	0e 44       	mov	r4,	r14	
    6422:	3e 50 a8 ff 	add	#-88,	r14	;#0xffa8
    6426:	0f 4b       	mov	r11,	r15	
    6428:	b0 12 ee 4f 	call	#0x4fee	
    642c:	4f 93       	tst.b	r15		
    642e:	02 24       	jz	$+6      	;abs 0x6434
    6430:	30 40 b0 6e 	br	#0x6eb0	
    6434:	c2 93 92 11 	tst.b	&0x1192	
    6438:	02 24       	jz	$+6      	;abs 0x643e
    643a:	30 40 b4 6e 	br	#0x6eb4	
    643e:	b4 93 aa ff 	cmp	#-1,	-86(r4)	;r3 As==11, 0xffaa(r4)
    6442:	03 20       	jnz	$+8      	;abs 0x644a
    6444:	c2 43 91 11 	mov.b	#0,	&0x1191	;r3 As==00
    6448:	02 3c       	jmp	$+6      	;abs 0x644e
    644a:	d2 43 91 11 	mov.b	#1,	&0x1191	;r3 As==01
    644e:	1b 44 b6 ff 	mov	-74(r4),r11	;0xffb6(r4)
    6452:	5c 4b 04 00 	mov.b	4(r11),	r12	;0x0004(r11)
    6456:	7c f0 0f 00 	and.b	#15,	r12	;#0x000f
    645a:	7c d0 60 00 	bis.b	#96,	r12	;#0x0060
    645e:	cb 4c 04 00 	mov.b	r12,	4(r11)	;0x0004(r11)
    6462:	5c 42 fe 11 	mov.b	&0x11fe,r12	
    6466:	4b 4c       	mov.b	r12,	r11	
    6468:	84 4b d4 ff 	mov	r11,	-44(r4)	;0xffd4(r4)
    646c:	5c 53       	inc.b	r12		
    646e:	c2 4c fe 11 	mov.b	r12,	&0x11fe	
    6472:	5b 42 ac 13 	mov.b	&0x13ac,r11	
    6476:	4b 93       	tst.b	r11		
    6478:	02 20       	jnz	$+6      	;abs 0x647e
    647a:	30 40 b8 6e 	br	#0x6eb8	
    647e:	5a 42 8d 12 	mov.b	&0x128d,r10	
    6482:	4c 4a       	mov.b	r10,	r12	
    6484:	0c 5c       	rla	r12		
    6486:	3c 50 10 25 	add	#9488,	r12	;#0x2510
    648a:	a4 4c ba ff 	mov	@r12,	-70(r4)	;0xffba(r4)
    648e:	8c 43 00 00 	mov	#0,	0(r12)	;r3 As==00, 0x0000(r12)
    6492:	7b 53       	add.b	#-1,	r11	;r3 As==11
    6494:	c2 4b ac 13 	mov.b	r11,	&0x13ac	
    6498:	4c 4a       	mov.b	r10,	r12	
    649a:	5c 53       	inc.b	r12		
    649c:	c2 4c 8d 12 	mov.b	r12,	&0x128d	
    64a0:	7c 90 03 00 	cmp.b	#3,	r12	;#0x0003
    64a4:	02 20       	jnz	$+6      	;abs 0x64aa
    64a6:	c2 43 8d 12 	mov.b	#0,	&0x128d	;r3 As==00
    64aa:	84 93 ba ff 	tst	-70(r4)	;0xffba(r4)
    64ae:	02 20       	jnz	$+6      	;abs 0x64b4
    64b0:	30 40 b8 6e 	br	#0x6eb8	
    64b4:	1b 44 ba ff 	mov	-70(r4),r11	;0xffba(r4)
    64b8:	db 43 06 00 	mov.b	#1,	6(r11)	;r3 As==01, 0x0006(r11)
    64bc:	cb 43 05 00 	mov.b	#0,	5(r11)	;r3 As==00, 0x0005(r11)
    64c0:	cb 43 03 00 	mov.b	#0,	3(r11)	;r3 As==00, 0x0003(r11)
    64c4:	cb 43 02 00 	mov.b	#0,	2(r11)	;r3 As==00, 0x0002(r11)
    64c8:	cb 43 04 00 	mov.b	#0,	4(r11)	;r3 As==00, 0x0004(r11)
    64cc:	8b 49 00 00 	mov	r9,	0(r11)	;0x0000(r11)
    64d0:	84 43 be ff 	mov	#0,	-66(r4)	;r3 As==00, 0xffbe(r4)
    64d4:	19 44 b6 ff 	mov	-74(r4),r9	;0xffb6(r4)
    64d8:	39 50 0c 00 	add	#12,	r9	;#0x000c
    64dc:	84 49 ee ff 	mov	r9,	-18(r4)	;0xffee(r4)
    64e0:	1b 44 b6 ff 	mov	-74(r4),r11	;0xffb6(r4)
    64e4:	3b 50 1c 00 	add	#28,	r11	;#0x001c
    64e8:	84 4b c0 ff 	mov	r11,	-64(r4)	;0xffc0(r4)
    64ec:	5c 42 9a 18 	mov.b	&0x189a,r12	
    64f0:	4c 93       	tst.b	r12		
    64f2:	17 24       	jz	$+48     	;abs 0x6522
    64f4:	5d 42 96 25 	mov.b	&0x2596,r13	
    64f8:	0d 5d       	rla	r13		
    64fa:	3d 50 22 26 	add	#9762,	r13	;#0x2622
    64fe:	a4 4d bc ff 	mov	@r13,	-68(r4)	;0xffbc(r4)
    6502:	8d 43 00 00 	mov	#0,	0(r13)	;r3 As==00, 0x0000(r13)
    6506:	7c 53       	add.b	#-1,	r12	;r3 As==11
    6508:	c2 4c 9a 18 	mov.b	r12,	&0x189a	
    650c:	5d 42 96 25 	mov.b	&0x2596,r13	
    6510:	5d 53       	inc.b	r13		
    6512:	c2 4d 96 25 	mov.b	r13,	&0x2596	
    6516:	7d 90 0c 00 	cmp.b	#12,	r13	;#0x000c
    651a:	05 20       	jnz	$+12     	;abs 0x6526
    651c:	c2 43 96 25 	mov.b	#0,	&0x2596	;r3 As==00
    6520:	02 3c       	jmp	$+6      	;abs 0x6526
    6522:	84 43 bc ff 	mov	#0,	-68(r4)	;r3 As==00, 0xffbc(r4)
    6526:	5c 42 9b 18 	mov.b	&0x189b,r12	
    652a:	4c 93       	tst.b	r12		
    652c:	17 24       	jz	$+48     	;abs 0x655c
    652e:	5b 42 e2 15 	mov.b	&0x15e2,r11	
    6532:	4d 4b       	mov.b	r11,	r13	
    6534:	0d 5d       	rla	r13		
    6536:	3d 50 08 1d 	add	#7432,	r13	;#0x1d08
    653a:	a4 4d b8 ff 	mov	@r13,	-72(r4)	;0xffb8(r4)
    653e:	8d 43 00 00 	mov	#0,	0(r13)	;r3 As==00, 0x0000(r13)
    6542:	7c 53       	add.b	#-1,	r12	;r3 As==11
    6544:	c2 4c 9b 18 	mov.b	r12,	&0x189b	
    6548:	4d 4b       	mov.b	r11,	r13	
    654a:	5d 53       	inc.b	r13		
    654c:	c2 4d e2 15 	mov.b	r13,	&0x15e2	
    6550:	7d 90 0c 00 	cmp.b	#12,	r13	;#0x000c
    6554:	05 20       	jnz	$+12     	;abs 0x6560
    6556:	c2 43 e2 15 	mov.b	#0,	&0x15e2	;r3 As==00
    655a:	02 3c       	jmp	$+6      	;abs 0x6560
    655c:	84 43 b8 ff 	mov	#0,	-72(r4)	;r3 As==00, 0xffb8(r4)
    6560:	84 93 bc ff 	tst	-68(r4)	;0xffbc(r4)
    6564:	05 24       	jz	$+12     	;abs 0x6570
    6566:	84 93 b8 ff 	tst	-72(r4)	;0xffb8(r4)
    656a:	11 20       	jnz	$+36     	;abs 0x658e
    656c:	30 40 36 6f 	br	#0x6f36	
    6570:	84 93 b8 ff 	tst	-72(r4)	;0xffb8(r4)
    6574:	04 24       	jz	$+10     	;abs 0x657e
    6576:	1f 44 b8 ff 	mov	-72(r4),r15	;0xffb8(r4)
    657a:	b0 12 a6 50 	call	#0x50a6	
    657e:	19 44 ba ff 	mov	-70(r4),r9	;0xffba(r4)
    6582:	d9 43 05 00 	mov.b	#1,	5(r9)	;r3 As==01, 0x0005(r9)
    6586:	7b 40 07 00 	mov.b	#7,	r11	;#0x0007
    658a:	30 40 9e 6e 	br	#0x6e9e	
    658e:	3d 40 8c 00 	mov	#140,	r13	;#0x008c
    6592:	0e 43       	clr	r14		
    6594:	1f 44 b8 ff 	mov	-72(r4),r15	;0xffb8(r4)
    6598:	b0 12 74 ea 	call	#0xea74	
    659c:	0e 44       	mov	r4,	r14	
    659e:	3e 50 9e ff 	add	#-98,	r14	;#0xff9e
    65a2:	1f 44 b8 ff 	mov	-72(r4),r15	;0xffb8(r4)
    65a6:	b0 12 60 53 	call	#0x5360	
    65aa:	84 4f b4 ff 	mov	r15,	-76(r4)	;0xffb4(r4)
    65ae:	84 93 be ff 	tst	-66(r4)	;0xffbe(r4)
    65b2:	02 24       	jz	$+6      	;abs 0x65b8
    65b4:	30 40 5c 6c 	br	#0x6c5c	
    65b8:	1b 44 b6 ff 	mov	-74(r4),r11	;0xffb6(r4)
    65bc:	5d 4b 04 00 	mov.b	4(r11),	r13	;0x0004(r11)
    65c0:	3d f0 f0 00 	and	#240,	r13	;#0x00f0
    65c4:	3d 90 60 00 	cmp	#96,	r13	;#0x0060
    65c8:	02 24       	jz	$+6      	;abs 0x65ce
    65ca:	30 40 b6 6d 	br	#0x6db6	
    65ce:	ff 40 60 00 00 00 	mov.b	#96,	0(r15)	;#0x0060, 0x0000(r15)
    65d4:	cf 43 01 00 	mov.b	#0,	1(r15)	;r3 As==00, 0x0001(r15)
    65d8:	5a 4b 04 00 	mov.b	4(r11),	r10	;0x0004(r11)
    65dc:	09 4b       	mov	r11,	r9	
    65de:	5b 4b 05 00 	mov.b	5(r11),	r11	;0x0005(r11)
    65e2:	8b 10       	swpb	r11		
    65e4:	5c 49 06 00 	mov.b	6(r9),	r12	;0x0006(r9)
    65e8:	5d 49 07 00 	mov.b	7(r9),	r13	;0x0007(r9)
    65ec:	8d 10       	swpb	r13		
    65ee:	0e 4b       	mov	r11,	r14	
    65f0:	0e da       	bis	r10,	r14	
    65f2:	0f 4d       	mov	r13,	r15	
    65f4:	0f dc       	bis	r12,	r15	
    65f6:	b0 12 ec e5 	call	#0xe5ec	
    65fa:	08 4e       	mov	r14,	r8	
    65fc:	09 4f       	mov	r15,	r9	
    65fe:	38 f3       	and	#-1,	r8	;r3 As==11
    6600:	39 f0 0f 00 	and	#15,	r9	;#0x000f
    6604:	1b 44 b6 ff 	mov	-74(r4),r11	;0xffb6(r4)
    6608:	5a 4b 04 00 	mov.b	4(r11),	r10	;0x0004(r11)
    660c:	5b 4b 05 00 	mov.b	5(r11),	r11	;0x0005(r11)
    6610:	8b 10       	swpb	r11		
    6612:	1e 44 b6 ff 	mov	-74(r4),r14	;0xffb6(r4)
    6616:	5c 4e 06 00 	mov.b	6(r14),	r12	;0x0006(r14)
    661a:	5d 4e 07 00 	mov.b	7(r14),	r13	;0x0007(r14)
    661e:	8d 10       	swpb	r13		
    6620:	0e 4b       	mov	r11,	r14	
    6622:	0e da       	bis	r10,	r14	
    6624:	0f 4d       	mov	r13,	r15	
    6626:	0f dc       	bis	r12,	r15	
    6628:	b0 12 ec e5 	call	#0xe5ec	
    662c:	84 4f c8 ff 	mov	r15,	-56(r4)	;0xffc8(r4)
    6630:	84 43 ca ff 	mov	#0,	-54(r4)	;r3 As==00, 0xffca(r4)
    6634:	6d 42       	mov.b	#4,	r13	;r2 As==10
    6636:	1e 44 c8 ff 	mov	-56(r4),r14	;0xffc8(r4)
    663a:	1f 44 ca ff 	mov	-54(r4),r15	;0xffca(r4)
    663e:	12 c3       	clrc			
    6640:	0f 10       	rrc	r15		
    6642:	0e 10       	rrc	r14		
    6644:	7d 53       	add.b	#-1,	r13	;r3 As==11
    6646:	fb 23       	jnz	$-8      	;abs 0x663e
    6648:	84 4e c8 ff 	mov	r14,	-56(r4)	;0xffc8(r4)
    664c:	84 4f ca ff 	mov	r15,	-54(r4)	;0xffca(r4)
    6650:	4d 4e       	mov.b	r14,	r13	
    6652:	08 93       	tst	r8		
    6654:	23 20       	jnz	$+72     	;abs 0x669c
    6656:	09 93       	tst	r9		
    6658:	21 20       	jnz	$+68     	;abs 0x669c
    665a:	1b 44 b4 ff 	mov	-76(r4),r11	;0xffb4(r4)
    665e:	4e 93       	tst.b	r14		
    6660:	07 20       	jnz	$+16     	;abs 0x6670
    6662:	2b 53       	incd	r11		
    6664:	19 44 b4 ff 	mov	-76(r4),r9	;0xffb4(r4)
    6668:	f9 d0 18 00 00 00 	bis.b	#24,	0(r9)	;#0x0018, 0x0000(r9)
    666e:	54 3c       	jmp	$+170    	;abs 0x6718
    6670:	fb d0 10 00 00 00 	bis.b	#16,	0(r11)	;#0x0010, 0x0000(r11)
    6676:	4c 4e       	mov.b	r14,	r12	
    6678:	7b 40 06 00 	mov.b	#6,	r11	;#0x0006
    667c:	0c 5c       	rla	r12		
    667e:	7b 53       	add.b	#-1,	r11	;r3 As==11
    6680:	fd 23       	jnz	$-4      	;abs 0x667c
    6682:	12 c3       	clrc			
    6684:	4d 10       	rrc.b	r13		
    6686:	12 c3       	clrc			
    6688:	4d 10       	rrc.b	r13		
    668a:	4d dc       	bis.b	r12,	r13	
    668c:	19 44 b4 ff 	mov	-76(r4),r9	;0xffb4(r4)
    6690:	c9 4d 02 00 	mov.b	r13,	2(r9)	;0x0002(r9)
    6694:	0b 49       	mov	r9,	r11	
    6696:	3b 50 03 00 	add	#3,	r11	;#0x0003
    669a:	3e 3c       	jmp	$+126    	;abs 0x6718
    669c:	4c 4d       	mov.b	r13,	r12	
    669e:	0b 4c       	mov	r12,	r11	
    66a0:	3b f0 03 00 	and	#3,	r11	;#0x0003
    66a4:	0b 9c       	cmp	r12,	r11	
    66a6:	1c 20       	jnz	$+58     	;abs 0x66e0
    66a8:	1e 44 b4 ff 	mov	-76(r4),r14	;0xffb4(r4)
    66ac:	fe d2 00 00 	bis.b	#8,	0(r14)	;r2 As==11, 0x0000(r14)
    66b0:	0c 4b       	mov	r11,	r12	
    66b2:	7d 40 06 00 	mov.b	#6,	r13	;#0x0006
    66b6:	0c 5c       	rla	r12		
    66b8:	7d 53       	add.b	#-1,	r13	;r3 As==11
    66ba:	fd 23       	jnz	$-4      	;abs 0x66b6
    66bc:	0d 49       	mov	r9,	r13	
    66be:	4c d9       	bis.b	r9,	r12	
    66c0:	1b 44 b4 ff 	mov	-76(r4),r11	;0xffb4(r4)
    66c4:	cb 4c 02 00 	mov.b	r12,	2(r11)	;0x0002(r11)
    66c8:	0c 48       	mov	r8,	r12	
    66ca:	8c 10       	swpb	r12		
    66cc:	8d 10       	swpb	r13		
    66ce:	4c ed       	xor.b	r13,	r12	
    66d0:	0c ed       	xor	r13,	r12	
    66d2:	cb 4c 03 00 	mov.b	r12,	3(r11)	;0x0003(r11)
    66d6:	cb 48 04 00 	mov.b	r8,	4(r11)	;0x0004(r11)
    66da:	3b 50 05 00 	add	#5,	r11	;#0x0005
    66de:	1c 3c       	jmp	$+58     	;abs 0x6718
    66e0:	7b 40 06 00 	mov.b	#6,	r11	;#0x0006
    66e4:	0c 5c       	rla	r12		
    66e6:	7b 53       	add.b	#-1,	r11	;r3 As==11
    66e8:	fd 23       	jnz	$-4      	;abs 0x66e4
    66ea:	12 c3       	clrc			
    66ec:	4d 10       	rrc.b	r13		
    66ee:	12 c3       	clrc			
    66f0:	4d 10       	rrc.b	r13		
    66f2:	4d dc       	bis.b	r12,	r13	
    66f4:	1b 44 b4 ff 	mov	-76(r4),r11	;0xffb4(r4)
    66f8:	cb 4d 02 00 	mov.b	r13,	2(r11)	;0x0002(r11)
    66fc:	0d 49       	mov	r9,	r13	
    66fe:	cb 49 03 00 	mov.b	r9,	3(r11)	;0x0003(r11)
    6702:	0c 48       	mov	r8,	r12	
    6704:	8c 10       	swpb	r12		
    6706:	8d 10       	swpb	r13		
    6708:	4c ed       	xor.b	r13,	r12	
    670a:	0c ed       	xor	r13,	r12	
    670c:	cb 4c 04 00 	mov.b	r12,	4(r11)	;0x0004(r11)
    6710:	cb 48 05 00 	mov.b	r8,	5(r11)	;0x0005(r11)
    6714:	3b 50 06 00 	add	#6,	r11	;#0x0006
    6718:	19 44 b6 ff 	mov	-74(r4),r9	;0xffb6(r4)
    671c:	5d 49 0a 00 	mov.b	10(r9),	r13	;0x000a(r9)
    6720:	4d 93       	tst.b	r13		
    6722:	12 24       	jz	$+38     	;abs 0x6748
    6724:	7d 90 2b 00 	cmp.b	#43,	r13	;#0x002b
    6728:	0f 24       	jz	$+32     	;abs 0x6748
    672a:	7d 90 2c 00 	cmp.b	#44,	r13	;#0x002c
    672e:	0c 24       	jz	$+26     	;abs 0x6748
    6730:	7d 90 3c 00 	cmp.b	#60,	r13	;#0x003c
    6734:	09 24       	jz	$+20     	;abs 0x6748
    6736:	7d 90 87 ff 	cmp.b	#-121,	r13	;#0xff87
    673a:	06 24       	jz	$+14     	;abs 0x6748
    673c:	7d 90 29 00 	cmp.b	#41,	r13	;#0x0029
    6740:	03 24       	jz	$+8      	;abs 0x6748
    6742:	7d 90 11 00 	cmp.b	#17,	r13	;#0x0011
    6746:	05 20       	jnz	$+12     	;abs 0x6752
    6748:	19 44 b4 ff 	mov	-76(r4),r9	;0xffb4(r4)
    674c:	e9 d2 00 00 	bis.b	#4,	0(r9)	;r2 As==10, 0x0000(r9)
    6750:	03 3c       	jmp	$+8      	;abs 0x6758
    6752:	cb 4d 00 00 	mov.b	r13,	0(r11)	;0x0000(r11)
    6756:	1b 53       	inc	r11		
    6758:	19 44 b6 ff 	mov	-74(r4),r9	;0xffb6(r4)
    675c:	5d 49 0b 00 	mov.b	11(r9),	r13	;0x000b(r9)
    6760:	5d 93       	cmp.b	#1,	r13	;r3 As==01
    6762:	05 20       	jnz	$+12     	;abs 0x676e
    6764:	19 44 b4 ff 	mov	-76(r4),r9	;0xffb4(r4)
    6768:	d9 d3 00 00 	bis.b	#1,	0(r9)	;r3 As==01, 0x0000(r9)
    676c:	13 3c       	jmp	$+40     	;abs 0x6794
    676e:	7d 90 40 00 	cmp.b	#64,	r13	;#0x0040
    6772:	05 20       	jnz	$+12     	;abs 0x677e
    6774:	19 44 b4 ff 	mov	-76(r4),r9	;0xffb4(r4)
    6778:	e9 d3 00 00 	bis.b	#2,	0(r9)	;r3 As==10, 0x0000(r9)
    677c:	0b 3c       	jmp	$+24     	;abs 0x6794
    677e:	7d 93       	cmp.b	#-1,	r13	;r3 As==11
    6780:	06 20       	jnz	$+14     	;abs 0x678e
    6782:	19 44 b4 ff 	mov	-76(r4),r9	;0xffb4(r4)
    6786:	f9 d0 03 00 00 00 	bis.b	#3,	0(r9)	;#0x0003, 0x0000(r9)
    678c:	03 3c       	jmp	$+8      	;abs 0x6794
    678e:	cb 4d 00 00 	mov.b	r13,	0(r11)	;0x0000(r11)
    6792:	1b 53       	inc	r11		
    6794:	0e 44       	mov	r4,	r14	
    6796:	3e 50 7a ff 	add	#-134,	r14	;#0xff7a
    679a:	1f 44 ee ff 	mov	-18(r4),r15	;0xffee(r4)
    679e:	b0 12 dc 4d 	call	#0x4ddc	
    67a2:	c4 43 7a ff 	mov.b	#0,	-134(r4);r3 As==00, 0xff7a(r4)
    67a6:	3e 40 7a ff 	mov	#-134,	r14	;#0xff7a
    67aa:	0e 54       	add	r4,	r14	
    67ac:	0e 12       	push	r14		
    67ae:	0c 44       	mov	r4,	r12	
    67b0:	3c 50 9e ff 	add	#-98,	r12	;#0xff9e
    67b4:	4d 4f       	mov.b	r15,	r13	
    67b6:	1e 44 ee ff 	mov	-18(r4),r14	;0xffee(r4)
    67ba:	0f 4b       	mov	r11,	r15	
    67bc:	b0 12 b0 51 	call	#0x51b0	
    67c0:	21 53       	incd	r1		
    67c2:	08 4f       	mov	r15,	r8	
    67c4:	5d 44 7a ff 	mov.b	-134(r4),r13	;0xff7a(r4)
    67c8:	0d 5d       	rla	r13		
    67ca:	0d 5d       	rla	r13		
    67cc:	0d 5d       	rla	r13		
    67ce:	0d 5d       	rla	r13		
    67d0:	19 44 b4 ff 	mov	-76(r4),r9	;0xffb4(r4)
    67d4:	c9 dd 01 00 	bis.b	r13,	1(r9)	;0x0001(r9)
    67d8:	1b 44 b6 ff 	mov	-74(r4),r11	;0xffb6(r4)
    67dc:	fb 93 1c 00 	cmp.b	#-1,	28(r11)	;r3 As==11, 0x001c(r11)
    67e0:	1c 24       	jz	$+58     	;abs 0x681a
    67e2:	0e 44       	mov	r4,	r14	
    67e4:	3e 50 7a ff 	add	#-134,	r14	;#0xff7a
    67e8:	1f 44 c0 ff 	mov	-64(r4),r15	;0xffc0(r4)
    67ec:	b0 12 dc 4d 	call	#0x4ddc	
    67f0:	c4 43 7a ff 	mov.b	#0,	-134(r4);r3 As==00, 0xff7a(r4)
    67f4:	3e 40 7a ff 	mov	#-134,	r14	;#0xff7a
    67f8:	0e 54       	add	r4,	r14	
    67fa:	0e 12       	push	r14		
    67fc:	0c 44       	mov	r4,	r12	
    67fe:	3c 50 a8 ff 	add	#-88,	r12	;#0xffa8
    6802:	4d 4f       	mov.b	r15,	r13	
    6804:	1e 44 c0 ff 	mov	-64(r4),r14	;0xffc0(r4)
    6808:	0f 48       	mov	r8,	r15	
    680a:	b0 12 b0 51 	call	#0x51b0	
    680e:	21 53       	incd	r1		
    6810:	05 4f       	mov	r15,	r5	
    6812:	d9 d4 7a ff 01 00 	bis.b	-134(r4),1(r9)	;0xff7a(r4), 0x0001(r9)
    6818:	67 3c       	jmp	$+208    	;abs 0x68e8
    681a:	c4 43 7a ff 	mov.b	#0,	-134(r4);r3 As==00, 0xff7a(r4)
    681e:	19 44 b6 ff 	mov	-74(r4),r9	;0xffb6(r4)
    6822:	b9 90 ff 02 1c 00 	cmp	#767,	28(r9)	;#0x02ff, 0x001c(r9)
    6828:	13 20       	jnz	$+40     	;abs 0x6850
    682a:	3d 40 78 00 	mov	#120,	r13	;#0x0078
    682e:	3e 40 10 00 	mov	#16,	r14	;#0x0010
    6832:	1f 44 c0 ff 	mov	-64(r4),r15	;0xffc0(r4)
    6836:	b0 12 40 4b 	call	#0x4b40	
    683a:	0f 93       	tst	r15		
    683c:	09 20       	jnz	$+20     	;abs 0x6850
    683e:	f4 40 03 00 7a ff 	mov.b	#3,	-134(r4);#0x0003, 0xff7a(r4)
    6844:	d8 49 2b 00 00 00 	mov.b	43(r9),	0(r8)	;0x002b(r9), 0x0000(r8)
    684a:	05 48       	mov	r8,	r5	
    684c:	15 53       	inc	r5		
    684e:	45 3c       	jmp	$+140    	;abs 0x68da
    6850:	3d 40 68 00 	mov	#104,	r13	;#0x0068
    6854:	3e 40 10 00 	mov	#16,	r14	;#0x0010
    6858:	1f 44 c0 ff 	mov	-64(r4),r15	;0xffc0(r4)
    685c:	b0 12 40 4b 	call	#0x4b40	
    6860:	0f 93       	tst	r15		
    6862:	13 20       	jnz	$+40     	;abs 0x688a
    6864:	e4 43 7a ff 	mov.b	#2,	-134(r4);r3 As==10, 0xff7a(r4)
    6868:	1b 44 b6 ff 	mov	-74(r4),r11	;0xffb6(r4)
    686c:	d8 4b 1d 00 00 00 	mov.b	29(r11),0(r8)	;0x001d(r11), 0x0000(r8)
    6872:	3d 40 03 00 	mov	#3,	r13	;#0x0003
    6876:	0e 4b       	mov	r11,	r14	
    6878:	3e 50 29 00 	add	#41,	r14	;#0x0029
    687c:	0f 48       	mov	r8,	r15	
    687e:	1f 53       	inc	r15		
    6880:	b0 12 80 e8 	call	#0xe880	
    6884:	05 48       	mov	r8,	r5	
    6886:	25 52       	add	#4,	r5	;r2 As==10
    6888:	28 3c       	jmp	$+82     	;abs 0x68da
    688a:	3d 40 58 00 	mov	#88,	r13	;#0x0058
    688e:	3e 40 10 00 	mov	#16,	r14	;#0x0010
    6892:	1f 44 c0 ff 	mov	-64(r4),r15	;0xffc0(r4)
    6896:	b0 12 40 4b 	call	#0x4b40	
    689a:	0f 93       	tst	r15		
    689c:	14 20       	jnz	$+42     	;abs 0x68c6
    689e:	d4 43 7a ff 	mov.b	#1,	-134(r4);r3 As==01, 0xff7a(r4)
    68a2:	19 44 b6 ff 	mov	-74(r4),r9	;0xffb6(r4)
    68a6:	d8 49 1d 00 00 00 	mov.b	29(r9),	0(r8)	;0x001d(r9), 0x0000(r8)
    68ac:	3d 40 05 00 	mov	#5,	r13	;#0x0005
    68b0:	0e 49       	mov	r9,	r14	
    68b2:	3e 50 27 00 	add	#39,	r14	;#0x0027
    68b6:	0f 48       	mov	r8,	r15	
    68b8:	1f 53       	inc	r15		
    68ba:	b0 12 80 e8 	call	#0xe880	
    68be:	05 48       	mov	r8,	r5	
    68c0:	35 50 06 00 	add	#6,	r5	;#0x0006
    68c4:	0a 3c       	jmp	$+22     	;abs 0x68da
    68c6:	3d 40 10 00 	mov	#16,	r13	;#0x0010
    68ca:	1e 44 c0 ff 	mov	-64(r4),r14	;0xffc0(r4)
    68ce:	0f 48       	mov	r8,	r15	
    68d0:	b0 12 80 e8 	call	#0xe880	
    68d4:	05 48       	mov	r8,	r5	
    68d6:	35 50 10 00 	add	#16,	r5	;#0x0010
    68da:	5d 44 7a ff 	mov.b	-134(r4),r13	;0xff7a(r4)
    68de:	7d d2       	bis.b	#8,	r13	;r2 As==11
    68e0:	1b 44 b4 ff 	mov	-76(r4),r11	;0xffb4(r4)
    68e4:	cb dd 01 00 	bis.b	r13,	1(r11)	;0x0001(r11)
    68e8:	05 93       	tst	r5		
    68ea:	02 20       	jnz	$+6      	;abs 0x68f0
    68ec:	30 40 b6 6d 	br	#0x6db6	
    68f0:	94 44 b8 ff c4 ff 	mov	-72(r4),-60(r4)	;0xffb8(r4), 0xffc4(r4)
    68f6:	1d 44 b8 ff 	mov	-72(r4),r13	;0xffb8(r4)
    68fa:	8d 10       	swpb	r13		
    68fc:	8d 11       	sxt	r13		
    68fe:	8d 10       	swpb	r13		
    6900:	8d 11       	sxt	r13		
    6902:	84 4d c6 ff 	mov	r13,	-58(r4)	;0xffc6(r4)
    6906:	84 45 d6 ff 	mov	r5,	-42(r4)	;0xffd6(r4)
    690a:	0d 45       	mov	r5,	r13	
    690c:	8d 10       	swpb	r13		
    690e:	8d 11       	sxt	r13		
    6910:	8d 10       	swpb	r13		
    6912:	8d 11       	sxt	r13		
    6914:	84 4d d8 ff 	mov	r13,	-40(r4)	;0xffd8(r4)
    6918:	1a 44 c4 ff 	mov	-60(r4),r10	;0xffc4(r4)
    691c:	1b 44 c6 ff 	mov	-58(r4),r11	;0xffc6(r4)
    6920:	1a 84 d6 ff 	sub	-42(r4),r10	;0xffd6(r4)
    6924:	1b 74 d8 ff 	subc	-40(r4),r11	;0xffd8(r4)
    6928:	3a 50 7c 00 	add	#124,	r10	;#0x007c
    692c:	19 44 b6 ff 	mov	-74(r4),r9	;0xffb6(r4)
    6930:	56 49 0a 00 	mov.b	10(r9),	r6	;0x000a(r9)
    6934:	07 43       	clr	r7		
    6936:	84 4a c2 ff 	mov	r10,	-62(r4)	;0xffc2(r4)
    693a:	c6 3c       	jmp	$+398    	;abs 0x6ac8
    693c:	0c 44       	mov	r4,	r12	
    693e:	3c 50 80 ff 	add	#-128,	r12	;#0xff80
    6942:	2d 43       	mov	#2,	r13	;r3 As==10
    6944:	0e 47       	mov	r7,	r14	
    6946:	1b 44 b6 ff 	mov	-74(r4),r11	;0xffb6(r4)
    694a:	1f 4b 02 00 	mov	2(r11),	r15	;0x0002(r11)
    694e:	b0 12 86 df 	call	#0xdf86	
    6952:	2f 93       	cmp	#2,	r15	;r3 As==10
    6954:	02 24       	jz	$+6      	;abs 0x695a
    6956:	30 40 54 6b 	br	#0x6b54	
    695a:	5d 44 81 ff 	mov.b	-127(r4),r13	;0xff81(r4)
    695e:	84 9d c2 ff 	cmp	r13,	-62(r4)	;0xffc2(r4)
    6962:	02 2c       	jc	$+6      	;abs 0x6968
    6964:	30 40 54 6b 	br	#0x6b54	
    6968:	f5 40 e0 ff 00 00 	mov.b	#-32,	0(r5)	;#0xffe0, 0x0000(r5)
    696e:	76 90 2c 00 	cmp.b	#44,	r6	;#0x002c
    6972:	18 24       	jz	$+50     	;abs 0x69a4
    6974:	76 90 2d 00 	cmp.b	#45,	r6	;#0x002d
    6978:	08 2c       	jc	$+18     	;abs 0x698a
    697a:	46 93       	tst.b	r6		
    697c:	1e 24       	jz	$+62     	;abs 0x69ba
    697e:	76 90 2b 00 	cmp.b	#43,	r6	;#0x002b
    6982:	02 24       	jz	$+6      	;abs 0x6988
    6984:	30 40 54 6b 	br	#0x6b54	
    6988:	09 3c       	jmp	$+20     	;abs 0x699c
    698a:	76 90 3c 00 	cmp.b	#60,	r6	;#0x003c
    698e:	0e 24       	jz	$+30     	;abs 0x69ac
    6990:	76 90 87 ff 	cmp.b	#-121,	r6	;#0xff87
    6994:	02 24       	jz	$+6      	;abs 0x699a
    6996:	30 40 54 6b 	br	#0x6b54	
    699a:	0c 3c       	jmp	$+26     	;abs 0x69b4
    699c:	f5 40 e2 ff 00 00 	mov.b	#-30,	0(r5)	;#0xffe2, 0x0000(r5)
    69a2:	0b 3c       	jmp	$+24     	;abs 0x69ba
    69a4:	f5 40 e4 ff 00 00 	mov.b	#-28,	0(r5)	;#0xffe4, 0x0000(r5)
    69aa:	07 3c       	jmp	$+16     	;abs 0x69ba
    69ac:	f5 40 e6 ff 00 00 	mov.b	#-26,	0(r5)	;#0xffe6, 0x0000(r5)
    69b2:	03 3c       	jmp	$+8      	;abs 0x69ba
    69b4:	f5 40 e8 ff 00 00 	mov.b	#-24,	0(r5)	;#0xffe8, 0x0000(r5)
    69ba:	19 44 b6 ff 	mov	-74(r4),r9	;0xffb6(r4)
    69be:	1b 49 02 00 	mov	2(r9),	r11	;0x0002(r9)
    69c2:	0c 44       	mov	r4,	r12	
    69c4:	3c 50 7e ff 	add	#-130,	r12	;#0xff7e
    69c8:	2d 43       	mov	#2,	r13	;r3 As==10
    69ca:	0e 47       	mov	r7,	r14	
    69cc:	0f 4b       	mov	r11,	r15	
    69ce:	b0 12 86 df 	call	#0xdf86	
    69d2:	2f 93       	cmp	#2,	r15	;r3 As==10
    69d4:	bf 20       	jnz	$+384    	;abs 0x6b54
    69d6:	08 47       	mov	r7,	r8	
    69d8:	28 53       	incd	r8		
    69da:	46 93       	tst.b	r6		
    69dc:	03 24       	jz	$+8      	;abs 0x69e4
    69de:	76 90 3c 00 	cmp.b	#60,	r6	;#0x003c
    69e2:	04 20       	jnz	$+10     	;abs 0x69ec
    69e4:	09 48       	mov	r8,	r9	
    69e6:	0a 48       	mov	r8,	r10	
    69e8:	06 4b       	mov	r11,	r6	
    69ea:	08 3c       	jmp	$+18     	;abs 0x69fc
    69ec:	5d 44 7f ff 	mov.b	-129(r4),r13	;0xff7f(r4)
    69f0:	5d 53       	inc.b	r13		
    69f2:	4d 5d       	rla.b	r13		
    69f4:	4d 5d       	rla.b	r13		
    69f6:	4d 5d       	rla.b	r13		
    69f8:	28 3c       	jmp	$+82     	;abs 0x6a4a
    69fa:	09 4a       	mov	r10,	r9	
    69fc:	5b 44 7f ff 	mov.b	-129(r4),r11	;0xff7f(r4)
    6a00:	1b 53       	inc	r11		
    6a02:	0b 5b       	rla	r11		
    6a04:	0b 5b       	rla	r11		
    6a06:	0b 5b       	rla	r11		
    6a08:	0d 4b       	mov	r11,	r13	
    6a0a:	0d 57       	add	r7,	r13	
    6a0c:	0a 9d       	cmp	r13,	r10	
    6a0e:	17 34       	jge	$+48     	;abs 0x6a3e
    6a10:	0c 44       	mov	r4,	r12	
    6a12:	3c 50 7c ff 	add	#-132,	r12	;#0xff7c
    6a16:	2d 43       	mov	#2,	r13	;r3 As==10
    6a18:	0e 4a       	mov	r10,	r14	
    6a1a:	0f 46       	mov	r6,	r15	
    6a1c:	b0 12 86 df 	call	#0xdf86	
    6a20:	2f 93       	cmp	#2,	r15	;r3 As==10
    6a22:	16 20       	jnz	$+46     	;abs 0x6a50
    6a24:	5c 44 7c ff 	mov.b	-132(r4),r12	;0xff7c(r4)
    6a28:	4c 93       	tst.b	r12		
    6a2a:	02 20       	jnz	$+6      	;abs 0x6a30
    6a2c:	1a 53       	inc	r10		
    6a2e:	e6 3f       	jmp	$-50     	;abs 0x69fc
    6a30:	5d 44 7d ff 	mov.b	-131(r4),r13	;0xff7d(r4)
    6a34:	2d 53       	incd	r13		
    6a36:	0a 5d       	add	r13,	r10	
    6a38:	5c 93       	cmp.b	#1,	r12	;r3 As==01
    6a3a:	df 23       	jnz	$-64     	;abs 0x69fa
    6a3c:	df 3f       	jmp	$-64     	;abs 0x69fc
    6a3e:	0d 4a       	mov	r10,	r13	
    6a40:	0d 87       	sub	r7,	r13	
    6a42:	0d 9b       	cmp	r11,	r13	
    6a44:	87 20       	jnz	$+272    	;abs 0x6b54
    6a46:	4d 49       	mov.b	r9,	r13	
    6a48:	4d 87       	sub.b	r7,	r13	
    6a4a:	4d 93       	tst.b	r13		
    6a4c:	02 20       	jnz	$+6      	;abs 0x6a52
    6a4e:	82 3c       	jmp	$+262    	;abs 0x6b54
    6a50:	7d 43       	mov.b	#-1,	r13	;r3 As==11
    6a52:	56 44 80 ff 	mov.b	-128(r4),r6	;0xff80(r4)
    6a56:	46 93       	tst.b	r6		
    6a58:	12 24       	jz	$+38     	;abs 0x6a7e
    6a5a:	76 90 2b 00 	cmp.b	#43,	r6	;#0x002b
    6a5e:	0f 24       	jz	$+32     	;abs 0x6a7e
    6a60:	76 90 2c 00 	cmp.b	#44,	r6	;#0x002c
    6a64:	0c 24       	jz	$+26     	;abs 0x6a7e
    6a66:	76 90 3c 00 	cmp.b	#60,	r6	;#0x003c
    6a6a:	09 24       	jz	$+20     	;abs 0x6a7e
    6a6c:	76 90 87 ff 	cmp.b	#-121,	r6	;#0xff87
    6a70:	06 24       	jz	$+14     	;abs 0x6a7e
    6a72:	76 90 29 00 	cmp.b	#41,	r6	;#0x0029
    6a76:	03 24       	jz	$+8      	;abs 0x6a7e
    6a78:	76 90 11 00 	cmp.b	#17,	r6	;#0x0011
    6a7c:	03 20       	jnz	$+8      	;abs 0x6a84
    6a7e:	d5 d3 00 00 	bis.b	#1,	0(r5)	;r3 As==01, 0x0000(r5)
    6a82:	05 3c       	jmp	$+12     	;abs 0x6a8e
    6a84:	b4 53 c2 ff 	add	#-1,	-62(r4)	;r3 As==11, 0xffc2(r4)
    6a88:	c5 46 01 00 	mov.b	r6,	1(r5)	;0x0001(r5)
    6a8c:	15 53       	inc	r5		
    6a8e:	4b 4d       	mov.b	r13,	r11	
    6a90:	6b 83       	decd.b	r11		
    6a92:	c5 4b 01 00 	mov.b	r11,	1(r5)	;0x0001(r5)
    6a96:	25 53       	incd	r5		
    6a98:	4a 4d       	mov.b	r13,	r10	
    6a9a:	0b 4a       	mov	r10,	r11	
    6a9c:	2b 83       	decd	r11		
    6a9e:	0c 45       	mov	r5,	r12	
    6aa0:	0d 4b       	mov	r11,	r13	
    6aa2:	0e 48       	mov	r8,	r14	
    6aa4:	19 44 b6 ff 	mov	-74(r4),r9	;0xffb6(r4)
    6aa8:	1f 49 02 00 	mov	2(r9),	r15	;0x0002(r9)
    6aac:	b0 12 86 df 	call	#0xdf86	
    6ab0:	0f 9b       	cmp	r11,	r15	
    6ab2:	50 20       	jnz	$+162    	;abs 0x6b54
    6ab4:	05 5f       	add	r15,	r5	
    6ab6:	84 8a c2 ff 	sub	r10,	-62(r4)	;0xffc2(r4)
    6aba:	5d 44 81 ff 	mov.b	-127(r4),r13	;0xff81(r4)
    6abe:	1d 53       	inc	r13		
    6ac0:	0d 5d       	rla	r13		
    6ac2:	0d 5d       	rla	r13		
    6ac4:	0d 5d       	rla	r13		
    6ac6:	07 5d       	add	r13,	r7	
    6ac8:	46 93       	tst.b	r6		
    6aca:	38 27       	jz	$-398    	;abs 0x693c
    6acc:	76 90 2b 00 	cmp.b	#43,	r6	;#0x002b
    6ad0:	35 27       	jz	$-404    	;abs 0x693c
    6ad2:	76 90 2c 00 	cmp.b	#44,	r6	;#0x002c
    6ad6:	32 27       	jz	$-410    	;abs 0x693c
    6ad8:	76 90 3c 00 	cmp.b	#60,	r6	;#0x003c
    6adc:	2f 27       	jz	$-416    	;abs 0x693c
    6ade:	76 90 87 ff 	cmp.b	#-121,	r6	;#0xff87
    6ae2:	02 20       	jnz	$+6      	;abs 0x6ae8
    6ae4:	30 40 3c 69 	br	#0x693c	
    6ae8:	76 90 29 00 	cmp.b	#41,	r6	;#0x0029
    6aec:	02 20       	jnz	$+6      	;abs 0x6af2
    6aee:	30 40 3c 69 	br	#0x693c	
    6af2:	08 47       	mov	r7,	r8	
    6af4:	1a 44 c2 ff 	mov	-62(r4),r10	;0xffc2(r4)
    6af8:	76 90 11 00 	cmp.b	#17,	r6	;#0x0011
    6afc:	02 24       	jz	$+6      	;abs 0x6b02
    6afe:	30 40 d4 6e 	br	#0x6ed4	
    6b02:	3a 90 07 00 	cmp	#7,	r10	;#0x0007
    6b06:	26 28       	jnc	$+78     	;abs 0x6b54
    6b08:	0c 44       	mov	r4,	r12	
    6b0a:	3c 50 86 ff 	add	#-122,	r12	;#0xff86
    6b0e:	3d 42       	mov	#8,	r13	;r2 As==11
    6b10:	0e 47       	mov	r7,	r14	
    6b12:	1b 44 b6 ff 	mov	-74(r4),r11	;0xffb6(r4)
    6b16:	1f 4b 02 00 	mov	2(r11),	r15	;0x0002(r11)
    6b1a:	b0 12 86 df 	call	#0xdf86	
    6b1e:	3f 92       	cmp	#8,	r15	;r2 As==11
    6b20:	19 20       	jnz	$+52     	;abs 0x6b54
    6b22:	f5 40 f0 ff 00 00 	mov.b	#-16,	0(r5)	;#0xfff0, 0x0000(r5)
    6b28:	2d 42       	mov	#4,	r13	;r2 As==10
    6b2a:	0e 44       	mov	r4,	r14	
    6b2c:	3e 50 86 ff 	add	#-122,	r14	;#0xff86
    6b30:	0f 45       	mov	r5,	r15	
    6b32:	1f 53       	inc	r15		
    6b34:	b0 12 80 e8 	call	#0xe880	
    6b38:	0d 45       	mov	r5,	r13	
    6b3a:	3d 50 05 00 	add	#5,	r13	;#0x0005
    6b3e:	dd 44 8c ff 00 00 	mov.b	-116(r4),0(r13)	;0xff8c(r4), 0x0000(r13)
    6b44:	dd 44 8d ff 01 00 	mov.b	-115(r4),1(r13)	;0xff8d(r4), 0x0001(r13)
    6b4a:	35 50 07 00 	add	#7,	r5	;#0x0007
    6b4e:	38 52       	add	#8,	r8	;r2 As==11
    6b50:	30 40 d4 6e 	br	#0x6ed4	
    6b54:	3a 40 fe ff 	mov	#-2,	r10	;#0xfffe
    6b58:	30 40 da 6d 	br	#0x6dda	
    6b5c:	94 44 b4 ff da ff 	mov	-76(r4),-38(r4)	;0xffb4(r4), 0xffda(r4)
    6b62:	1d 44 b4 ff 	mov	-76(r4),r13	;0xffb4(r4)
    6b66:	8d 10       	swpb	r13		
    6b68:	8d 11       	sxt	r13		
    6b6a:	8d 10       	swpb	r13		
    6b6c:	8d 11       	sxt	r13		
    6b6e:	84 4d dc ff 	mov	r13,	-36(r4)	;0xffdc(r4)
    6b72:	1d 44 cc ff 	mov	-52(r4),r13	;0xffcc(r4)
    6b76:	1e 44 ce ff 	mov	-50(r4),r14	;0xffce(r4)
    6b7a:	1d 84 da ff 	sub	-38(r4),r13	;0xffda(r4)
    6b7e:	1e 74 dc ff 	subc	-36(r4),r14	;0xffdc(r4)
    6b82:	1e 44 b4 ff 	mov	-76(r4),r14	;0xffb4(r4)
    6b86:	0f 4e       	mov	r14,	r15	
    6b88:	2f 52       	add	#4,	r15	;r2 As==10
    6b8a:	b0 12 7a e9 	call	#0xe97a	
    6b8e:	94 44 b4 ff 84 ff 	mov	-76(r4),-124(r4);0xffb4(r4), 0xff84(r4)
    6b94:	e4 42 83 ff 	mov.b	#4,	-125(r4);r2 As==10, 0xff83(r4)
    6b98:	c4 43 82 ff 	mov.b	#0,	-126(r4);r3 As==00, 0xff82(r4)
    6b9c:	2e 42       	mov	#4,	r14	;r2 As==10
    6b9e:	0f 44       	mov	r4,	r15	
    6ba0:	3f 50 82 ff 	add	#-126,	r15	;#0xff82
    6ba4:	b0 12 20 49 	call	#0x4920	
    6ba8:	19 44 b6 ff 	mov	-74(r4),r9	;0xffb6(r4)
    6bac:	1d 49 08 00 	mov	8(r9),	r13	;0x0008(r9)
    6bb0:	0a 4d       	mov	r13,	r10	
    6bb2:	8a 10       	swpb	r10		
    6bb4:	4a 4a       	mov.b	r10,	r10	
    6bb6:	4d 4d       	mov.b	r13,	r13	
    6bb8:	8d 10       	swpb	r13		
    6bba:	0a dd       	bis	r13,	r10	
    6bbc:	0e 4a       	mov	r10,	r14	
    6bbe:	3e 50 28 00 	add	#40,	r14	;#0x0028
    6bc2:	0f 44       	mov	r4,	r15	
    6bc4:	3f 50 82 ff 	add	#-126,	r15	;#0xff82
    6bc8:	b0 12 da 48 	call	#0x48da	
    6bcc:	1e 44 d4 ff 	mov	-44(r4),r14	;0xffd4(r4)
    6bd0:	0f 44       	mov	r4,	r15	
    6bd2:	3f 50 82 ff 	add	#-126,	r15	;#0xff82
    6bd6:	b0 12 a0 48 	call	#0x48a0	
    6bda:	25 52       	add	#4,	r5	;r2 As==10
    6bdc:	84 45 de ff 	mov	r5,	-34(r4)	;0xffde(r4)
    6be0:	0d 45       	mov	r5,	r13	
    6be2:	8d 10       	swpb	r13		
    6be4:	8d 11       	sxt	r13		
    6be6:	8d 10       	swpb	r13		
    6be8:	8d 11       	sxt	r13		
    6bea:	84 4d e0 ff 	mov	r13,	-32(r4)	;0xffe0(r4)
    6bee:	1a 44 c4 ff 	mov	-60(r4),r10	;0xffc4(r4)
    6bf2:	1b 44 c6 ff 	mov	-58(r4),r11	;0xffc6(r4)
    6bf6:	1a 84 de ff 	sub	-34(r4),r10	;0xffde(r4)
    6bfa:	1b 74 e0 ff 	subc	-32(r4),r11	;0xffe0(r4)
    6bfe:	09 4a       	mov	r10,	r9	
    6c00:	39 50 7c 00 	add	#124,	r9	;#0x007c
    6c04:	39 f0 f8 ff 	and	#-8,	r9	;#0xfff8
    6c08:	84 49 c2 ff 	mov	r9,	-62(r4)	;0xffc2(r4)
    6c0c:	0c 45       	mov	r5,	r12	
    6c0e:	1d 44 c2 ff 	mov	-62(r4),r13	;0xffc2(r4)
    6c12:	0e 48       	mov	r8,	r14	
    6c14:	1b 44 b6 ff 	mov	-74(r4),r11	;0xffb6(r4)
    6c18:	1f 4b 02 00 	mov	2(r11),	r15	;0x0002(r11)
    6c1c:	b0 12 86 df 	call	#0xdf86	
    6c20:	1f 94 c2 ff 	cmp	-62(r4),r15	;0xffc2(r4)
    6c24:	ca 20       	jnz	$+406    	;abs 0x6dba
    6c26:	38 50 28 00 	add	#40,	r8	;#0x0028
    6c2a:	84 48 be ff 	mov	r8,	-66(r4)	;0xffbe(r4)
    6c2e:	94 54 c2 ff be ff 	add	-62(r4),-66(r4)	;0xffc2(r4), 0xffbe(r4)
    6c34:	84 45 e2 ff 	mov	r5,	-30(r4)	;0xffe2(r4)
    6c38:	08 45       	mov	r5,	r8	
    6c3a:	88 10       	swpb	r8		
    6c3c:	88 11       	sxt	r8		
    6c3e:	88 10       	swpb	r8		
    6c40:	88 11       	sxt	r8		
    6c42:	84 48 e4 ff 	mov	r8,	-28(r4)	;0xffe4(r4)
    6c46:	1a 44 e2 ff 	mov	-30(r4),r10	;0xffe2(r4)
    6c4a:	1b 44 e4 ff 	mov	-28(r4),r11	;0xffe4(r4)
    6c4e:	1a 84 c4 ff 	sub	-60(r4),r10	;0xffc4(r4)
    6c52:	1b 74 c6 ff 	subc	-58(r4),r11	;0xffc6(r4)
    6c56:	1a 54 c2 ff 	add	-62(r4),r10	;0xffc2(r4)
    6c5a:	bf 3c       	jmp	$+384    	;abs 0x6dda
    6c5c:	0e 44       	mov	r4,	r14	
    6c5e:	3e 50 9e ff 	add	#-98,	r14	;#0xff9e
    6c62:	1f 44 b8 ff 	mov	-72(r4),r15	;0xffb8(r4)
    6c66:	b0 12 60 53 	call	#0x5360	
    6c6a:	05 4f       	mov	r15,	r5	
    6c6c:	84 4f 84 ff 	mov	r15,	-124(r4);0xff84(r4)
    6c70:	f4 40 05 00 83 ff 	mov.b	#5,	-125(r4);#0x0005, 0xff83(r4)
    6c76:	c4 43 82 ff 	mov.b	#0,	-126(r4);r3 As==00, 0xff82(r4)
    6c7a:	3e 42       	mov	#8,	r14	;r2 As==11
    6c7c:	0f 44       	mov	r4,	r15	
    6c7e:	3f 50 82 ff 	add	#-126,	r15	;#0xff82
    6c82:	b0 12 20 49 	call	#0x4920	
    6c86:	19 44 b6 ff 	mov	-74(r4),r9	;0xffb6(r4)
    6c8a:	1d 49 08 00 	mov	8(r9),	r13	;0x0008(r9)
    6c8e:	0b 4d       	mov	r13,	r11	
    6c90:	8b 10       	swpb	r11		
    6c92:	4b 4b       	mov.b	r11,	r11	
    6c94:	4d 4d       	mov.b	r13,	r13	
    6c96:	8d 10       	swpb	r13		
    6c98:	0b dd       	bis	r13,	r11	
    6c9a:	0e 4b       	mov	r11,	r14	
    6c9c:	3e 50 28 00 	add	#40,	r14	;#0x0028
    6ca0:	0f 44       	mov	r4,	r15	
    6ca2:	3f 50 82 ff 	add	#-126,	r15	;#0xff82
    6ca6:	b0 12 da 48 	call	#0x48da	
    6caa:	4f 93       	tst.b	r15		
    6cac:	89 20       	jnz	$+276    	;abs 0x6dc0
    6cae:	1e 44 d4 ff 	mov	-44(r4),r14	;0xffd4(r4)
    6cb2:	0f 44       	mov	r4,	r15	
    6cb4:	3f 50 82 ff 	add	#-126,	r15	;#0xff82
    6cb8:	b0 12 a0 48 	call	#0x48a0	
    6cbc:	4f 93       	tst.b	r15		
    6cbe:	83 20       	jnz	$+264    	;abs 0x6dc6
    6cc0:	1b 44 84 ff 	mov	-124(r4),r11	;0xff84(r4)
    6cc4:	0b 93       	tst	r11		
    6cc6:	82 24       	jz	$+262    	;abs 0x6dcc
    6cc8:	6d 4b       	mov.b	@r11,	r13	
    6cca:	12 c3       	clrc			
    6ccc:	4d 10       	rrc.b	r13		
    6cce:	12 c3       	clrc			
    6cd0:	4d 10       	rrc.b	r13		
    6cd2:	12 c3       	clrc			
    6cd4:	4d 10       	rrc.b	r13		
    6cd6:	7d 90 1c 00 	cmp.b	#28,	r13	;#0x001c
    6cda:	78 20       	jnz	$+242    	;abs 0x6dcc
    6cdc:	1d 44 be ff 	mov	-66(r4),r13	;0xffbe(r4)
    6ce0:	12 c3       	clrc			
    6ce2:	0d 10       	rrc	r13		
    6ce4:	12 c3       	clrc			
    6ce6:	0d 10       	rrc	r13		
    6ce8:	12 c3       	clrc			
    6cea:	0d 10       	rrc	r13		
    6cec:	cb 4d 04 00 	mov.b	r13,	4(r11)	;0x0004(r11)
    6cf0:	0c 45       	mov	r5,	r12	
    6cf2:	3c 50 05 00 	add	#5,	r12	;#0x0005
    6cf6:	1b 49 08 00 	mov	8(r9),	r11	;0x0008(r9)
    6cfa:	0d 4b       	mov	r11,	r13	
    6cfc:	8d 10       	swpb	r13		
    6cfe:	48 4d       	mov.b	r13,	r8	
    6d00:	4b 4b       	mov.b	r11,	r11	
    6d02:	8b 10       	swpb	r11		
    6d04:	08 db       	bis	r11,	r8	
    6d06:	38 50 28 00 	add	#40,	r8	;#0x0028
    6d0a:	18 84 be ff 	sub	-66(r4),r8	;0xffbe(r4)
    6d0e:	94 44 b8 ff d0 ff 	mov	-72(r4),-48(r4)	;0xffb8(r4), 0xffd0(r4)
    6d14:	1b 44 b8 ff 	mov	-72(r4),r11	;0xffb8(r4)
    6d18:	8b 10       	swpb	r11		
    6d1a:	8b 11       	sxt	r11		
    6d1c:	8b 10       	swpb	r11		
    6d1e:	8b 11       	sxt	r11		
    6d20:	84 4b d2 ff 	mov	r11,	-46(r4)	;0xffd2(r4)
    6d24:	84 4c e6 ff 	mov	r12,	-26(r4)	;0xffe6(r4)
    6d28:	0b 4c       	mov	r12,	r11	
    6d2a:	8b 10       	swpb	r11		
    6d2c:	8b 11       	sxt	r11		
    6d2e:	8b 10       	swpb	r11		
    6d30:	8b 11       	sxt	r11		
    6d32:	84 4b e8 ff 	mov	r11,	-24(r4)	;0xffe8(r4)
    6d36:	16 44 d0 ff 	mov	-48(r4),r6	;0xffd0(r4)
    6d3a:	17 44 d2 ff 	mov	-46(r4),r7	;0xffd2(r4)
    6d3e:	16 84 e6 ff 	sub	-26(r4),r6	;0xffe6(r4)
    6d42:	17 74 e8 ff 	subc	-24(r4),r7	;0xffe8(r4)
    6d46:	0a 46       	mov	r6,	r10	
    6d48:	0b 47       	mov	r7,	r11	
    6d4a:	3a 50 7c 00 	add	#124,	r10	;#0x007c
    6d4e:	0b 63       	adc	r11		
    6d50:	0b 93       	tst	r11		
    6d52:	05 38       	jl	$+12     	;abs 0x6d5e
    6d54:	09 43       	clr	r9		
    6d56:	09 9b       	cmp	r11,	r9	
    6d58:	07 38       	jl	$+16     	;abs 0x6d68
    6d5a:	0a 98       	cmp	r8,	r10	
    6d5c:	05 2c       	jc	$+12     	;abs 0x6d68
    6d5e:	08 46       	mov	r6,	r8	
    6d60:	38 50 7c 00 	add	#124,	r8	;#0x007c
    6d64:	38 f0 f8 ff 	and	#-8,	r8	;#0xfff8
    6d68:	0d 48       	mov	r8,	r13	
    6d6a:	1e 44 be ff 	mov	-66(r4),r14	;0xffbe(r4)
    6d6e:	3e 50 d8 ff 	add	#-40,	r14	;#0xffd8
    6d72:	1b 44 b6 ff 	mov	-74(r4),r11	;0xffb6(r4)
    6d76:	1f 4b 02 00 	mov	2(r11),	r15	;0x0002(r11)
    6d7a:	b0 12 86 df 	call	#0xdf86	
    6d7e:	0f 98       	cmp	r8,	r15	
    6d80:	28 20       	jnz	$+82     	;abs 0x6dd2
    6d82:	84 58 be ff 	add	r8,	-66(r4)	;0xffbe(r4)
    6d86:	08 93       	tst	r8		
    6d88:	27 24       	jz	$+80     	;abs 0x6dd8
    6d8a:	84 45 ea ff 	mov	r5,	-22(r4)	;0xffea(r4)
    6d8e:	0c 45       	mov	r5,	r12	
    6d90:	8c 10       	swpb	r12		
    6d92:	8c 11       	sxt	r12		
    6d94:	8c 10       	swpb	r12		
    6d96:	8c 11       	sxt	r12		
    6d98:	84 4c ec ff 	mov	r12,	-20(r4)	;0xffec(r4)
    6d9c:	1c 44 ea ff 	mov	-22(r4),r12	;0xffea(r4)
    6da0:	1d 44 ec ff 	mov	-20(r4),r13	;0xffec(r4)
    6da4:	1c 84 d0 ff 	sub	-48(r4),r12	;0xffd0(r4)
    6da8:	1d 74 d2 ff 	subc	-46(r4),r13	;0xffd2(r4)
    6dac:	0a 4c       	mov	r12,	r10	
    6dae:	3a 50 05 00 	add	#5,	r10	;#0x0005
    6db2:	0a 58       	add	r8,	r10	
    6db4:	12 3c       	jmp	$+38     	;abs 0x6dda
    6db6:	3a 43       	mov	#-1,	r10	;r3 As==11
    6db8:	10 3c       	jmp	$+34     	;abs 0x6dda
    6dba:	3a 40 fd ff 	mov	#-3,	r10	;#0xfffd
    6dbe:	0d 3c       	jmp	$+28     	;abs 0x6dda
    6dc0:	3a 40 fb ff 	mov	#-5,	r10	;#0xfffb
    6dc4:	0a 3c       	jmp	$+22     	;abs 0x6dda
    6dc6:	3a 40 fa ff 	mov	#-6,	r10	;#0xfffa
    6dca:	07 3c       	jmp	$+16     	;abs 0x6dda
    6dcc:	3a 40 f9 ff 	mov	#-7,	r10	;#0xfff9
    6dd0:	04 3c       	jmp	$+10     	;abs 0x6dda
    6dd2:	3a 40 fc ff 	mov	#-4,	r10	;#0xfffc
    6dd6:	01 3c       	jmp	$+4      	;abs 0x6dda
    6dd8:	0a 43       	clr	r10		
    6dda:	4e 4a       	mov.b	r10,	r14	
    6ddc:	5e 53       	inc.b	r14		
    6dde:	19 44 b8 ff 	mov	-72(r4),r9	;0xffb8(r4)
    6de2:	c9 4e 00 00 	mov.b	r14,	0(r9)	;0x0000(r9)
    6de6:	1a 93       	cmp	#1,	r10	;r3 As==01
    6de8:	02 34       	jge	$+6      	;abs 0x6dee
    6dea:	0f 49       	mov	r9,	r15	
    6dec:	30 3c       	jmp	$+98     	;abs 0x6e4e
    6dee:	5b 42 f0 11 	mov.b	&0x11f0,r11	
    6df2:	7b 90 0c 00 	cmp.b	#12,	r11	;#0x000c
    6df6:	25 2c       	jc	$+76     	;abs 0x6e42
    6df8:	5c 42 f2 11 	mov.b	&0x11f2,r12	
    6dfc:	4d 4c       	mov.b	r12,	r13	
    6dfe:	0d 5d       	rla	r13		
    6e00:	9d 44 bc ff 10 24 	mov	-68(r4),9232(r13);0xffbc(r4), 0x2410(r13)
    6e06:	4d 4c       	mov.b	r12,	r13	
    6e08:	5d 53       	inc.b	r13		
    6e0a:	c2 4d f2 11 	mov.b	r13,	&0x11f2	
    6e0e:	7d 90 0c 00 	cmp.b	#12,	r13	;#0x000c
    6e12:	02 20       	jnz	$+6      	;abs 0x6e18
    6e14:	c2 43 f2 11 	mov.b	#0,	&0x11f2	;r3 As==00
    6e18:	5b 53       	inc.b	r11		
    6e1a:	c2 4b f0 11 	mov.b	r11,	&0x11f0	
    6e1e:	1b 44 ba ff 	mov	-70(r4),r11	;0xffba(r4)
    6e22:	db 53 02 00 	inc.b	2(r11)		;0x0002(r11)
    6e26:	19 44 bc ff 	mov	-68(r4),r9	;0xffbc(r4)
    6e2a:	99 44 b8 ff 02 00 	mov	-72(r4),2(r9)	;0xffb8(r4), 0x0002(r9)
    6e30:	89 4b 00 00 	mov	r11,	0(r9)	;0x0000(r9)
    6e34:	5d 44 a8 ff 	mov.b	-88(r4),r13	;0xffa8(r4)
    6e38:	7d f0 03 00 	and.b	#3,	r13	;#0x0003
    6e3c:	6d 93       	cmp.b	#2,	r13	;r3 As==10
    6e3e:	19 20       	jnz	$+52     	;abs 0x6e72
    6e40:	0e 3c       	jmp	$+30     	;abs 0x6e5e
    6e42:	1b 44 ba ff 	mov	-70(r4),r11	;0xffba(r4)
    6e46:	db 43 05 00 	mov.b	#1,	5(r11)	;r3 As==01, 0x0005(r11)
    6e4a:	1f 44 b8 ff 	mov	-72(r4),r15	;0xffb8(r4)
    6e4e:	b0 12 a6 50 	call	#0x50a6	
    6e52:	1f 44 bc ff 	mov	-68(r4),r15	;0xffbc(r4)
    6e56:	b0 12 76 50 	call	#0x5076	
    6e5a:	4b 43       	clr.b	r11		
    6e5c:	20 3c       	jmp	$+66     	;abs 0x6e9e
    6e5e:	b4 93 aa ff 	cmp	#-1,	-86(r4)	;r3 As==11, 0xffaa(r4)
    6e62:	07 20       	jnz	$+16     	;abs 0x6e72
    6e64:	19 44 b8 ff 	mov	-72(r4),r9	;0xffb8(r4)
    6e68:	c9 43 89 00 	mov.b	#0,	137(r9)	;r3 As==00, 0x0089(r9)
    6e6c:	c9 43 88 00 	mov.b	#0,	136(r9)	;r3 As==00, 0x0088(r9)
    6e70:	07 3c       	jmp	$+16     	;abs 0x6e80
    6e72:	1b 44 b8 ff 	mov	-72(r4),r11	;0xffb8(r4)
    6e76:	fb 40 05 00 89 00 	mov.b	#5,	137(r11);#0x0005, 0x0089(r11)
    6e7c:	cb 43 88 00 	mov.b	#0,	136(r11);r3 As==00, 0x0088(r11)
    6e80:	19 44 bc ff 	mov	-68(r4),r9	;0xffbc(r4)
    6e84:	1d 49 02 00 	mov	2(r9),	r13	;0x0002(r9)
    6e88:	fd 40 67 00 8b 00 	mov.b	#103,	139(r13);#0x0067, 0x008b(r13)
    6e8e:	cd 43 8a 00 	mov.b	#0,	138(r13);r3 As==00, 0x008a(r13)
    6e92:	1b 44 ba ff 	mov	-70(r4),r11	;0xffba(r4)
    6e96:	db 53 06 00 	inc.b	6(r11)		;0x0006(r11)
    6e9a:	30 40 ec 64 	br	#0x64ec	
    6e9e:	1f 44 ba ff 	mov	-70(r4),r15	;0xffba(r4)
    6ea2:	b0 12 d6 50 	call	#0x50d6	
    6ea6:	7f 40 0c 00 	mov.b	#12,	r15	;#0x000c
    6eaa:	b0 12 8a 63 	call	#0x638a	
    6eae:	06 3c       	jmp	$+14     	;abs 0x6ebc
    6eb0:	5b 43       	mov.b	#1,	r11	;r3 As==01
    6eb2:	04 3c       	jmp	$+10     	;abs 0x6ebc
    6eb4:	6b 42       	mov.b	#4,	r11	;r2 As==10
    6eb6:	02 3c       	jmp	$+6      	;abs 0x6ebc
    6eb8:	7b 40 07 00 	mov.b	#7,	r11	;#0x0007
    6ebc:	4f 4b       	mov.b	r11,	r15	
    6ebe:	31 50 76 00 	add	#118,	r1	;#0x0076
    6ec2:	34 41       	pop	r4		
    6ec4:	35 41       	pop	r5		
    6ec6:	36 41       	pop	r6		
    6ec8:	37 41       	pop	r7		
    6eca:	38 41       	pop	r8		
    6ecc:	39 41       	pop	r9		
    6ece:	3a 41       	pop	r10		
    6ed0:	3b 41       	pop	r11		
    6ed2:	30 41       	ret			
    6ed4:	1b 44 b6 ff 	mov	-74(r4),r11	;0xffb6(r4)
    6ed8:	19 4b 08 00 	mov	8(r11),	r9	;0x0008(r11)
    6edc:	0a 49       	mov	r9,	r10	
    6ede:	8a 10       	swpb	r10		
    6ee0:	4a 4a       	mov.b	r10,	r10	
    6ee2:	84 4a c2 ff 	mov	r10,	-62(r4)	;0xffc2(r4)
    6ee6:	49 49       	mov.b	r9,	r9	
    6ee8:	89 10       	swpb	r9		
    6eea:	84 d9 c2 ff 	bis	r9,	-62(r4)	;0xffc2(r4)
    6eee:	84 88 c2 ff 	sub	r8,	-62(r4)	;0xffc2(r4)
    6ef2:	84 45 cc ff 	mov	r5,	-52(r4)	;0xffcc(r4)
    6ef6:	09 45       	mov	r5,	r9	
    6ef8:	89 10       	swpb	r9		
    6efa:	89 11       	sxt	r9		
    6efc:	89 10       	swpb	r9		
    6efe:	89 11       	sxt	r9		
    6f00:	84 49 ce ff 	mov	r9,	-50(r4)	;0xffce(r4)
    6f04:	16 44 c4 ff 	mov	-60(r4),r6	;0xffc4(r4)
    6f08:	17 44 c6 ff 	mov	-58(r4),r7	;0xffc6(r4)
    6f0c:	16 84 cc ff 	sub	-52(r4),r6	;0xffcc(r4)
    6f10:	17 74 ce ff 	subc	-50(r4),r7	;0xffce(r4)
    6f14:	36 50 7c 00 	add	#124,	r6	;#0x007c
    6f18:	07 63       	adc	r7		
    6f1a:	07 93       	tst	r7		
    6f1c:	02 34       	jge	$+6      	;abs 0x6f22
    6f1e:	30 40 5c 6b 	br	#0x6b5c	
    6f22:	02 24       	jz	$+6      	;abs 0x6f28
    6f24:	30 40 0c 6c 	br	#0x6c0c	
    6f28:	16 94 c2 ff 	cmp	-62(r4),r6	;0xffc2(r4)
    6f2c:	02 2c       	jc	$+6      	;abs 0x6f32
    6f2e:	30 40 5c 6b 	br	#0x6b5c	
    6f32:	30 40 0c 6c 	br	#0x6c0c	
    6f36:	1f 44 bc ff 	mov	-68(r4),r15	;0xffbc(r4)
    6f3a:	b0 12 76 50 	call	#0x5076	
    6f3e:	30 40 7e 65 	br	#0x657e	

00006f42 <IPForwardingEngineP__do_send>:
    6f42:	0b 12       	push	r11		
    6f44:	0a 12       	push	r10		
    6f46:	09 12       	push	r9		
    6f48:	08 12       	push	r8		
    6f4a:	07 12       	push	r7		
    6f4c:	47 4f       	mov.b	r15,	r7	
    6f4e:	0a 4e       	mov	r14,	r10	
    6f50:	08 4d       	mov	r13,	r8	
    6f52:	59 42 8e 13 	mov.b	&0x138e,r9	
    6f56:	49 93       	tst.b	r9		
    6f58:	1e 24       	jz	$+62     	;abs 0x6f96
    6f5a:	5f 42 54 26 	mov.b	&0x2654,r15	
    6f5e:	4c 4f       	mov.b	r15,	r12	
    6f60:	0c 5c       	rla	r12		
    6f62:	3c 50 5a 12 	add	#4698,	r12	;#0x125a
    6f66:	2b 4c       	mov	@r12,	r11	
    6f68:	8c 43 00 00 	mov	#0,	0(r12)	;r3 As==00, 0x0000(r12)
    6f6c:	79 53       	add.b	#-1,	r9	;r3 As==11
    6f6e:	c2 49 8e 13 	mov.b	r9,	&0x138e	
    6f72:	4c 4f       	mov.b	r15,	r12	
    6f74:	5c 53       	inc.b	r12		
    6f76:	c2 4c 54 26 	mov.b	r12,	&0x2654	
    6f7a:	7c 90 03 00 	cmp.b	#3,	r12	;#0x0003
    6f7e:	02 20       	jnz	$+6      	;abs 0x6f84
    6f80:	c2 43 54 26 	mov.b	#0,	&0x2654	;r3 As==00
    6f84:	0b 93       	tst	r11		
    6f86:	08 24       	jz	$+18     	;abs 0x6f98
    6f88:	3d 42       	mov	#8,	r13	;r2 As==11
    6f8a:	0e 4a       	mov	r10,	r14	
    6f8c:	3e 52       	add	#8,	r14	;r2 As==11
    6f8e:	0f 4b       	mov	r11,	r15	
    6f90:	b0 12 80 e8 	call	#0xe880	
    6f94:	01 3c       	jmp	$+4      	;abs 0x6f98
    6f96:	0b 43       	clr	r11		
    6f98:	57 93       	cmp.b	#1,	r7	;r3 As==01
    6f9a:	12 20       	jnz	$+38     	;abs 0x6fc0
    6f9c:	0d 4b       	mov	r11,	r13	
    6f9e:	0e 48       	mov	r8,	r14	
    6fa0:	0f 4a       	mov	r10,	r15	
    6fa2:	b0 12 d6 63 	call	#0x63d6	
    6fa6:	4a 4f       	mov.b	r15,	r10	
    6fa8:	4f 93       	tst.b	r15		
    6faa:	0b 24       	jz	$+24     	;abs 0x6fc2
    6fac:	0b 93       	tst	r11		
    6fae:	09 24       	jz	$+20     	;abs 0x6fc2
    6fb0:	f2 90 03 00 8e 13 	cmp.b	#3,	&0x138e	;#0x0003
    6fb6:	05 2c       	jc	$+12     	;abs 0x6fc2
    6fb8:	0f 4b       	mov	r11,	r15	
    6fba:	b0 12 0c 51 	call	#0x510c	
    6fbe:	01 3c       	jmp	$+4      	;abs 0x6fc2
    6fc0:	4a 43       	clr.b	r10		
    6fc2:	4f 4a       	mov.b	r10,	r15	
    6fc4:	37 41       	pop	r7		
    6fc6:	38 41       	pop	r8		
    6fc8:	39 41       	pop	r9		
    6fca:	3a 41       	pop	r10		
    6fcc:	3b 41       	pop	r11		
    6fce:	30 41       	ret			

00006fd0 <IPProtocolsP__IP__send.isra.207>:
    6fd0:	0b 12       	push	r11		
    6fd2:	0a 12       	push	r10		
    6fd4:	09 12       	push	r9		
    6fd6:	0b 4f       	mov	r15,	r11	
    6fd8:	ff 40 60 00 04 00 	mov.b	#96,	4(r15)	;#0x0060, 0x0004(r15)
    6fde:	ff 40 10 00 0b 00 	mov.b	#16,	11(r15)	;#0x0010, 0x000b(r15)
    6fe4:	09 4f       	mov	r15,	r9	
    6fe6:	39 50 1c 00 	add	#28,	r9	;#0x001c
    6fea:	3e 40 80 00 	mov	#128,	r14	;#0x0080
    6fee:	0f 49       	mov	r9,	r15	
    6ff0:	b0 12 24 4d 	call	#0x4d24	
    6ff4:	0a 4f       	mov	r15,	r10	
    6ff6:	0f 49       	mov	r9,	r15	
    6ff8:	b0 12 6c 62 	call	#0x626c	
    6ffc:	4f 93       	tst.b	r15		
    6ffe:	03 24       	jz	$+8      	;abs 0x7006
    7000:	fb 93 1c 00 	cmp.b	#-1,	28(r11)	;r3 As==11, 0x001c(r11)
    7004:	2d 20       	jnz	$+92     	;abs 0x7060
    7006:	bb 90 fe 80 1c 00 	cmp	#-32514,28(r11)	;#0x80fe, 0x001c(r11)
    700c:	0a 24       	jz	$+22     	;abs 0x7022
    700e:	fb 93 1c 00 	cmp.b	#-1,	28(r11)	;r3 As==11, 0x001c(r11)
    7012:	1b 20       	jnz	$+56     	;abs 0x704a
    7014:	5f 4b 1d 00 	mov.b	29(r11),r15	;0x001d(r11)
    7018:	3f f0 0f 00 	and	#15,	r15	;#0x000f
    701c:	3f 90 03 00 	cmp	#3,	r15	;#0x0003
    7020:	14 34       	jge	$+42     	;abs 0x704a
    7022:	0a 93       	tst	r10		
    7024:	03 24       	jz	$+8      	;abs 0x702c
    7026:	ca 93 14 00 	tst.b	20(r10)	;0x0014(r10)
    702a:	11 38       	jl	$+36     	;abs 0x704e
    702c:	db 43 0b 00 	mov.b	#1,	11(r11)	;r3 As==01, 0x000b(r11)
    7030:	fb 93 1c 00 	cmp.b	#-1,	28(r11)	;r3 As==11, 0x001c(r11)
    7034:	04 24       	jz	$+10     	;abs 0x703e
    7036:	0d 4b       	mov	r11,	r13	
    7038:	0e 49       	mov	r9,	r14	
    703a:	5f 43       	mov.b	#1,	r15	;r3 As==01
    703c:	0e 3c       	jmp	$+30     	;abs 0x705a
    703e:	0d 43       	clr	r13		
    7040:	0e 4b       	mov	r11,	r14	
    7042:	0f 49       	mov	r9,	r15	
    7044:	b0 12 d6 63 	call	#0x63d6	
    7048:	0c 3c       	jmp	$+26     	;abs 0x7062
    704a:	0a 93       	tst	r10		
    704c:	09 24       	jz	$+20     	;abs 0x7060
    704e:	0d 4b       	mov	r11,	r13	
    7050:	0e 4a       	mov	r10,	r14	
    7052:	3e 50 16 00 	add	#22,	r14	;#0x0016
    7056:	5f 4a 26 00 	mov.b	38(r10),r15	;0x0026(r10)
    705a:	b0 12 42 6f 	call	#0x6f42	
    705e:	01 3c       	jmp	$+4      	;abs 0x7062
    7060:	5f 43       	mov.b	#1,	r15	;r3 As==01
    7062:	39 41       	pop	r9		
    7064:	3a 41       	pop	r10		
    7066:	3b 41       	pop	r11		
    7068:	30 41       	ret			

0000706a <UdpP__UDP__sendto>:
    706a:	0b 12       	push	r11		
    706c:	0a 12       	push	r10		
    706e:	09 12       	push	r9		
    7070:	08 12       	push	r8		
    7072:	31 50 c0 ff 	add	#-64,	r1	;#0xffc0
    7076:	4a 4f       	mov.b	r15,	r10	
    7078:	09 4e       	mov	r14,	r9	
    707a:	81 4d 06 00 	mov	r13,	6(r1)	;0x0006(r1)
    707e:	81 4c 08 00 	mov	r12,	8(r1)	;0x0008(r1)
    7082:	81 43 0a 00 	mov	#0,	10(r1)	;r3 As==00, 0x000a(r1)
    7086:	0f 41       	mov	r1,	r15	
    7088:	3f 50 06 00 	add	#6,	r15	;#0x0006
    708c:	b0 12 06 e0 	call	#0xe006	
    7090:	08 4f       	mov	r15,	r8	
    7092:	3d 40 28 00 	mov	#40,	r13	;#0x0028
    7096:	0e 43       	clr	r14		
    7098:	0f 41       	mov	r1,	r15	
    709a:	3f 50 18 00 	add	#24,	r15	;#0x0018
    709e:	b0 12 74 ea 	call	#0xea74	
    70a2:	3d 42       	mov	#8,	r13	;r2 As==11
    70a4:	0e 43       	clr	r14		
    70a6:	0f 41       	mov	r1,	r15	
    70a8:	3f 50 0c 00 	add	#12,	r15	;#0x000c
    70ac:	b0 12 74 ea 	call	#0xea74	
    70b0:	3d 40 10 00 	mov	#16,	r13	;#0x0010
    70b4:	0e 49       	mov	r9,	r14	
    70b6:	2e 53       	incd	r14		
    70b8:	0f 41       	mov	r1,	r15	
    70ba:	3f 50 30 00 	add	#48,	r15	;#0x0030
    70be:	b0 12 80 e8 	call	#0xe880	
    70c2:	0f 41       	mov	r1,	r15	
    70c4:	3f 50 18 00 	add	#24,	r15	;#0x0018
    70c8:	b0 12 30 62 	call	#0x6230	
    70cc:	4a 4a       	mov.b	r10,	r10	
    70ce:	0c 4a       	mov	r10,	r12	
    70d0:	0c 5c       	rla	r12		
    70d2:	8c 93 0c 26 	tst	9740(r12)	;0x260c(r12)
    70d6:	2f 20       	jnz	$+96     	;abs 0x7136
    70d8:	1c 42 5a 11 	mov	&0x115a,r12	
    70dc:	0b 4c       	mov	r12,	r11	
    70de:	8b 10       	swpb	r11		
    70e0:	4b 4b       	mov.b	r11,	r11	
    70e2:	4d 4c       	mov.b	r12,	r13	
    70e4:	8d 10       	swpb	r13		
    70e6:	0d db       	bis	r11,	r13	
    70e8:	3c 90 d7 d6 	cmp	#-10537,r12	;#0xd6d7
    70ec:	02 2c       	jc	$+6      	;abs 0x70f2
    70ee:	1c 53       	inc	r12		
    70f0:	20 3c       	jmp	$+66     	;abs 0x7132
    70f2:	3c 40 50 c7 	mov	#-14512,r12	;#0xc750
    70f6:	1d 3c       	jmp	$+60     	;abs 0x7132
    70f8:	8b 9d 0c 26 	cmp	r13,	9740(r11);0x260c(r11)
    70fc:	0e 20       	jnz	$+30     	;abs 0x711a
    70fe:	3c 90 d7 d6 	cmp	#-10537,r12	;#0xd6d7
    7102:	02 2c       	jc	$+6      	;abs 0x7108
    7104:	1c 53       	inc	r12		
    7106:	02 3c       	jmp	$+6      	;abs 0x710c
    7108:	3c 40 50 c7 	mov	#-14512,r12	;#0xc750
    710c:	0b 4c       	mov	r12,	r11	
    710e:	8b 10       	swpb	r11		
    7110:	4b 4b       	mov.b	r11,	r11	
    7112:	4d 4c       	mov.b	r12,	r13	
    7114:	8d 10       	swpb	r13		
    7116:	0d db       	bis	r11,	r13	
    7118:	0c 3c       	jmp	$+26     	;abs 0x7132
    711a:	2b 53       	incd	r11		
    711c:	3b 92       	cmp	#8,	r11	;r2 As==11
    711e:	ec 23       	jnz	$-38     	;abs 0x70f8
    7120:	82 4c 5a 11 	mov	r12,	&0x115a	
    7124:	0b 4a       	mov	r10,	r11	
    7126:	0b 5b       	rla	r11		
    7128:	8b 4c 0c 26 	mov	r12,	9740(r11);0x260c(r11)
    712c:	0c 93       	tst	r12		
    712e:	03 20       	jnz	$+8      	;abs 0x7136
    7130:	48 3c       	jmp	$+146    	;abs 0x71c2
    7132:	0b 43       	clr	r11		
    7134:	e1 3f       	jmp	$-60     	;abs 0x70f8
    7136:	0d 4a       	mov	r10,	r13	
    7138:	0d 5d       	rla	r13		
    713a:	91 4d 0c 26 0c 00 	mov	9740(r13),12(r1)	;0x260c(r13), 0x000c(r1)
    7140:	a1 49 0e 00 	mov	@r9,	14(r1)	;0x000e(r1)
    7144:	0f 48       	mov	r8,	r15	
    7146:	3f 52       	add	#8,	r15	;r2 As==11
    7148:	0e 4f       	mov	r15,	r14	
    714a:	8e 10       	swpb	r14		
    714c:	4e 4e       	mov.b	r14,	r14	
    714e:	4f 4f       	mov.b	r15,	r15	
    7150:	8f 10       	swpb	r15		
    7152:	0f de       	bis	r14,	r15	
    7154:	81 4f 10 00 	mov	r15,	16(r1)	;0x0010(r1)
    7158:	81 43 12 00 	mov	#0,	18(r1)	;r3 As==00, 0x0012(r1)
    715c:	f1 40 60 00 18 00 	mov.b	#96,	24(r1)	;#0x0060, 0x0018(r1)
    7162:	f1 40 11 00 1e 00 	mov.b	#17,	30(r1)	;#0x0011, 0x001e(r1)
    7168:	81 4f 1c 00 	mov	r15,	28(r1)	;0x001c(r1)
    716c:	0f 41       	mov	r1,	r15	
    716e:	3f 50 0c 00 	add	#12,	r15	;#0x000c
    7172:	81 4f 00 00 	mov	r15,	0(r1)	;0x0000(r1)
    7176:	b1 42 02 00 	mov	#8,	2(r1)	;r2 As==11, 0x0002(r1)
    717a:	3f 50 fa ff 	add	#-6,	r15	;#0xfffa
    717e:	81 4f 04 00 	mov	r15,	4(r1)	;0x0004(r1)
    7182:	81 41 16 00 	mov	r1,	22(r1)	;0x0016(r1)
    7186:	7d 40 11 00 	mov.b	#17,	r13	;#0x0011
    718a:	0e 41       	mov	r1,	r14	
    718c:	3f 50 12 00 	add	#18,	r15	;#0x0012
    7190:	b0 12 08 e1 	call	#0xe108	
    7194:	0b 4f       	mov	r15,	r11	
    7196:	7d 40 11 00 	mov.b	#17,	r13	;#0x0011
    719a:	0e 41       	mov	r1,	r14	
    719c:	0f 41       	mov	r1,	r15	
    719e:	3f 50 18 00 	add	#24,	r15	;#0x0018
    71a2:	b0 12 08 e1 	call	#0xe108	
    71a6:	0e 4f       	mov	r15,	r14	
    71a8:	8e 10       	swpb	r14		
    71aa:	4e 4e       	mov.b	r14,	r14	
    71ac:	4f 4b       	mov.b	r11,	r15	
    71ae:	8f 10       	swpb	r15		
    71b0:	0e df       	bis	r15,	r14	
    71b2:	81 4e 12 00 	mov	r14,	18(r1)	;0x0012(r1)
    71b6:	0f 41       	mov	r1,	r15	
    71b8:	3f 50 14 00 	add	#20,	r15	;#0x0014
    71bc:	b0 12 d0 6f 	call	#0x6fd0	
    71c0:	01 3c       	jmp	$+4      	;abs 0x71c4
    71c2:	5f 43       	mov.b	#1,	r15	;r3 As==01
    71c4:	31 50 40 00 	add	#64,	r1	;#0x0040
    71c8:	38 41       	pop	r8		
    71ca:	39 41       	pop	r9		
    71cc:	3a 41       	pop	r10		
    71ce:	3b 41       	pop	r11		
    71d0:	30 41       	ret			

000071d2 <UDPShellP__action_ident>:
    71d2:	1d 42 52 11 	mov	&0x1152,r13	
    71d6:	0c 4d       	mov	r13,	r12	
    71d8:	3c 53       	add	#-1,	r12	;r3 As==11
    71da:	1c 53       	inc	r12		
    71dc:	cc 93 00 00 	tst.b	0(r12)		;0x0000(r12)
    71e0:	fc 23       	jnz	$-6      	;abs 0x71da
    71e2:	0c 8d       	sub	r13,	r12	
    71e4:	3e 40 28 24 	mov	#9256,	r14	;#0x2428
    71e8:	7f 40 03 00 	mov.b	#3,	r15	;#0x0003
    71ec:	b0 12 6a 70 	call	#0x706a	
    71f0:	30 41       	ret			

000071f2 <UDPShellP__action_echo>:
    71f2:	0b 12       	push	r11		
    71f4:	0a 12       	push	r10		
    71f6:	09 12       	push	r9		
    71f8:	08 12       	push	r8		
    71fa:	07 12       	push	r7		
    71fc:	06 12       	push	r6		
    71fe:	05 12       	push	r5		
    7200:	04 12       	push	r4		
    7202:	31 50 f6 ff 	add	#-10,	r1	;#0xfff6
    7206:	81 4f 02 00 	mov	r15,	2(r1)	;0x0002(r1)
    720a:	81 4e 08 00 	mov	r14,	8(r1)	;0x0008(r1)
    720e:	2f 93       	cmp	#2,	r15	;r3 As==10
    7210:	5e 38       	jl	$+190    	;abs 0x72ce
    7212:	37 40 94 12 	mov	#4756,	r7	;#0x1294
    7216:	91 43 00 00 	mov	#1,	0(r1)	;r3 As==01, 0x0000(r1)
    721a:	2e 41       	mov	@r1,	r14	
    721c:	0e 5e       	rla	r14		
    721e:	1e 51 08 00 	add	8(r1),	r14	;0x0008(r1)
    7222:	2e 4e       	mov	@r14,	r14	
    7224:	0d 4e       	mov	r14,	r13	
    7226:	3d 53       	add	#-1,	r13	;r3 As==11
    7228:	1d 53       	inc	r13		
    722a:	cd 93 00 00 	tst.b	0(r13)		;0x0000(r13)
    722e:	fc 23       	jnz	$-6      	;abs 0x7228
    7230:	06 4d       	mov	r13,	r6	
    7232:	06 8e       	sub	r14,	r6	
    7234:	3c 40 94 12 	mov	#4756,	r12	;#0x1294
    7238:	8c 10       	swpb	r12		
    723a:	8c 11       	sxt	r12		
    723c:	8c 10       	swpb	r12		
    723e:	8c 11       	sxt	r12		
    7240:	38 40 94 12 	mov	#4756,	r8	;#0x1294
    7244:	09 4c       	mov	r12,	r9	
    7246:	04 47       	mov	r7,	r4	
    7248:	0c 47       	mov	r7,	r12	
    724a:	8c 10       	swpb	r12		
    724c:	8c 11       	sxt	r12		
    724e:	8c 10       	swpb	r12		
    7250:	8c 11       	sxt	r12		
    7252:	05 4c       	mov	r12,	r5	
    7254:	0a 44       	mov	r4,	r10	
    7256:	0b 45       	mov	r5,	r11	
    7258:	0a 88       	sub	r8,	r10	
    725a:	0b 79       	subc	r9,	r11	
    725c:	81 46 04 00 	mov	r6,	4(r1)	;0x0004(r1)
    7260:	0c 46       	mov	r6,	r12	
    7262:	8c 10       	swpb	r12		
    7264:	8c 11       	sxt	r12		
    7266:	8c 10       	swpb	r12		
    7268:	8c 11       	sxt	r12		
    726a:	81 4c 06 00 	mov	r12,	6(r1)	;0x0006(r1)
    726e:	1a 51 04 00 	add	4(r1),	r10	;0x0004(r1)
    7272:	1b 61 06 00 	addc	6(r1),	r11	;0x0006(r1)
    7276:	0b 93       	tst	r11		
    7278:	05 38       	jl	$+12     	;abs 0x7284
    727a:	1b 93       	cmp	#1,	r11	;r3 As==01
    727c:	14 34       	jge	$+42     	;abs 0x72a6
    727e:	3a 90 80 00 	cmp	#128,	r10	;#0x0080
    7282:	11 2c       	jc	$+36     	;abs 0x72a6
    7284:	0d 46       	mov	r6,	r13	
    7286:	0f 47       	mov	r7,	r15	
    7288:	b0 12 80 e8 	call	#0xe880	
    728c:	0d 47       	mov	r7,	r13	
    728e:	0d 56       	add	r6,	r13	
    7290:	fd 40 20 00 00 00 	mov.b	#32,	0(r13)	;#0x0020, 0x0000(r13)
    7296:	07 4d       	mov	r13,	r7	
    7298:	17 53       	inc	r7		
    729a:	91 53 00 00 	inc	0(r1)		;0x0000(r1)
    729e:	91 91 02 00 00 00 	cmp	2(r1),	0(r1)	;0x0002(r1), 0x0000(r1)
    72a4:	ba 23       	jnz	$-138    	;abs 0x721a
    72a6:	f7 40 0a 00 ff ff 	mov.b	#10,	-1(r7)	;#0x000a, 0xffff(r7)
    72ac:	0c 47       	mov	r7,	r12	
    72ae:	0f 47       	mov	r7,	r15	
    72b0:	8f 10       	swpb	r15		
    72b2:	8f 11       	sxt	r15		
    72b4:	8f 10       	swpb	r15		
    72b6:	8f 11       	sxt	r15		
    72b8:	0d 4f       	mov	r15,	r13	
    72ba:	0c 88       	sub	r8,	r12	
    72bc:	0d 79       	subc	r9,	r13	
    72be:	3d 40 94 12 	mov	#4756,	r13	;#0x1294
    72c2:	3e 40 28 24 	mov	#9256,	r14	;#0x2428
    72c6:	7f 40 03 00 	mov.b	#3,	r15	;#0x0003
    72ca:	b0 12 6a 70 	call	#0x706a	
    72ce:	31 50 0a 00 	add	#10,	r1	;#0x000a
    72d2:	34 41       	pop	r4		
    72d4:	35 41       	pop	r5		
    72d6:	36 41       	pop	r6		
    72d8:	37 41       	pop	r7		
    72da:	38 41       	pop	r8		
    72dc:	39 41       	pop	r9		
    72de:	3a 41       	pop	r10		
    72e0:	3b 41       	pop	r11		
    72e2:	30 41       	ret			

000072e4 <UDPShellP__action_help>:
    72e4:	0b 12       	push	r11		
    72e6:	0a 12       	push	r10		
    72e8:	09 12       	push	r9		
    72ea:	08 12       	push	r8		
    72ec:	07 12       	push	r7		
    72ee:	06 12       	push	r6		
    72f0:	05 12       	push	r5		
    72f2:	04 12       	push	r4		
    72f4:	1d 42 58 11 	mov	&0x1158,r13	
    72f8:	0c 4d       	mov	r13,	r12	
    72fa:	3c 53       	add	#-1,	r12	;r3 As==11
    72fc:	1c 53       	inc	r12		
    72fe:	cc 93 00 00 	tst.b	0(r12)		;0x0000(r12)
    7302:	fc 23       	jnz	$-6      	;abs 0x72fc
    7304:	0c 8d       	sub	r13,	r12	
    7306:	3e 40 28 24 	mov	#9256,	r14	;#0x2428
    730a:	7f 40 03 00 	mov.b	#3,	r15	;#0x0003
    730e:	b0 12 6a 70 	call	#0x706a	
    7312:	3e 40 fa f5 	mov	#-2566,	r14	;#0xf5fa
    7316:	3f 40 94 12 	mov	#4756,	r15	;#0x1294
    731a:	b0 12 42 e8 	call	#0xe842	
    731e:	5d 42 3a 26 	mov.b	&0x263a,r13	
    7322:	3e 40 94 12 	mov	#4756,	r14	;#0x1294
    7326:	0f 4e       	mov	r14,	r15	
    7328:	8f 10       	swpb	r15		
    732a:	8f 11       	sxt	r15		
    732c:	8f 10       	swpb	r15		
    732e:	8f 11       	sxt	r15		
    7330:	08 4e       	mov	r14,	r8	
    7332:	09 4f       	mov	r15,	r9	
    7334:	04 48       	mov	r8,	r4	
    7336:	05 49       	mov	r9,	r5	
    7338:	34 50 80 00 	add	#128,	r4	;#0x0080
    733c:	05 63       	adc	r5		
    733e:	46 4d       	mov.b	r13,	r6	
    7340:	26 52       	add	#4,	r6	;r2 As==10
    7342:	0c 46       	mov	r6,	r12	
    7344:	8c 10       	swpb	r12		
    7346:	8c 11       	sxt	r12		
    7348:	8c 10       	swpb	r12		
    734a:	8c 11       	sxt	r12		
    734c:	0a 4e       	mov	r14,	r10	
    734e:	3a 50 03 00 	add	#3,	r10	;#0x0003
    7352:	0e 4a       	mov	r10,	r14	
    7354:	8e 10       	swpb	r14		
    7356:	8e 11       	sxt	r14		
    7358:	8e 10       	swpb	r14		
    735a:	8e 11       	sxt	r14		
    735c:	0b 4e       	mov	r14,	r11	
    735e:	0e 44       	mov	r4,	r14	
    7360:	0f 45       	mov	r5,	r15	
    7362:	0e 8a       	sub	r10,	r14	
    7364:	0f 7b       	subc	r11,	r15	
    7366:	0c 9f       	cmp	r15,	r12	
    7368:	04 38       	jl	$+10     	;abs 0x7372
    736a:	0f 9c       	cmp	r12,	r15	
    736c:	36 38       	jl	$+110    	;abs 0x73da
    736e:	06 9e       	cmp	r14,	r6	
    7370:	34 2c       	jc	$+106    	;abs 0x73da
    7372:	4a 4d       	mov.b	r13,	r10	
    7374:	0d 4a       	mov	r10,	r13	
    7376:	3e 40 3b 26 	mov	#9787,	r14	;#0x263b
    737a:	3f 40 97 12 	mov	#4759,	r15	;#0x1297
    737e:	b0 12 80 e8 	call	#0xe880	
    7382:	3a 50 97 12 	add	#4759,	r10	;#0x1297
    7386:	fa 40 2c 00 00 00 	mov.b	#44,	0(r10)	;#0x002c, 0x0000(r10)
    738c:	fa 40 20 00 01 00 	mov.b	#32,	1(r10)	;#0x0020, 0x0001(r10)
    7392:	2a 53       	incd	r10		
    7394:	5b 42 46 26 	mov.b	&0x2646,r11	
    7398:	4f 4b       	mov.b	r11,	r15	
    739a:	2f 52       	add	#4,	r15	;r2 As==10
    739c:	0e 4f       	mov	r15,	r14	
    739e:	8e 10       	swpb	r14		
    73a0:	8e 11       	sxt	r14		
    73a2:	8e 10       	swpb	r14		
    73a4:	8e 11       	sxt	r14		
    73a6:	06 4a       	mov	r10,	r6	
    73a8:	0c 4a       	mov	r10,	r12	
    73aa:	8c 10       	swpb	r12		
    73ac:	8c 11       	sxt	r12		
    73ae:	8c 10       	swpb	r12		
    73b0:	8c 11       	sxt	r12		
    73b2:	07 4c       	mov	r12,	r7	
    73b4:	0c 44       	mov	r4,	r12	
    73b6:	0d 45       	mov	r5,	r13	
    73b8:	0c 86       	sub	r6,	r12	
    73ba:	0d 77       	subc	r7,	r13	
    73bc:	0e 9d       	cmp	r13,	r14	
    73be:	04 38       	jl	$+10     	;abs 0x73c8
    73c0:	0d 9e       	cmp	r14,	r13	
    73c2:	0d 38       	jl	$+28     	;abs 0x73de
    73c4:	0f 9c       	cmp	r12,	r15	
    73c6:	0b 2c       	jc	$+24     	;abs 0x73de
    73c8:	46 4b       	mov.b	r11,	r6	
    73ca:	0d 46       	mov	r6,	r13	
    73cc:	3e 40 47 26 	mov	#9799,	r14	;#0x2647
    73d0:	0f 4a       	mov	r10,	r15	
    73d2:	b0 12 80 e8 	call	#0xe880	
    73d6:	0a 56       	add	r6,	r10	
    73d8:	0d 3c       	jmp	$+28     	;abs 0x73f4
    73da:	3a 40 97 12 	mov	#4759,	r10	;#0x1297
    73de:	fa 40 2e 00 00 00 	mov.b	#46,	0(r10)	;#0x002e, 0x0000(r10)
    73e4:	fa 40 2e 00 01 00 	mov.b	#46,	1(r10)	;#0x002e, 0x0001(r10)
    73ea:	fa 40 2e 00 02 00 	mov.b	#46,	2(r10)	;#0x002e, 0x0002(r10)
    73f0:	3a 50 03 00 	add	#3,	r10	;#0x0003
    73f4:	fa 40 5d 00 00 00 	mov.b	#93,	0(r10)	;#0x005d, 0x0000(r10)
    73fa:	fa 40 0a 00 01 00 	mov.b	#10,	1(r10)	;#0x000a, 0x0001(r10)
    7400:	2a 53       	incd	r10		
    7402:	0e 4a       	mov	r10,	r14	
    7404:	0d 4a       	mov	r10,	r13	
    7406:	8d 10       	swpb	r13		
    7408:	8d 11       	sxt	r13		
    740a:	8d 10       	swpb	r13		
    740c:	8d 11       	sxt	r13		
    740e:	0f 4d       	mov	r13,	r15	
    7410:	0e 88       	sub	r8,	r14	
    7412:	0f 79       	subc	r9,	r15	
    7414:	0c 4e       	mov	r14,	r12	
    7416:	3d 40 94 12 	mov	#4756,	r13	;#0x1294
    741a:	3e 40 28 24 	mov	#9256,	r14	;#0x2428
    741e:	7f 40 03 00 	mov.b	#3,	r15	;#0x0003
    7422:	b0 12 6a 70 	call	#0x706a	
    7426:	34 41       	pop	r4		
    7428:	35 41       	pop	r5		
    742a:	36 41       	pop	r6		
    742c:	37 41       	pop	r7		
    742e:	38 41       	pop	r8		
    7430:	39 41       	pop	r9		
    7432:	3a 41       	pop	r10		
    7434:	3b 41       	pop	r11		
    7436:	30 41       	ret			

00007438 <ICMPCoreP__ICMP_IP__send.isra.209>:
    7438:	0b 12       	push	r11		
    743a:	0a 12       	push	r10		
    743c:	09 12       	push	r9		
    743e:	08 12       	push	r8		
    7440:	0b 4f       	mov	r15,	r11	
    7442:	1e 4f 02 00 	mov	2(r15),	r14	;0x0002(r15)
    7446:	2a 4e       	mov	@r14,	r10	
    7448:	ae 92 02 00 	cmp	#4,	2(r14)	;r2 As==10, 0x0002(r14)
    744c:	1d 28       	jnc	$+60     	;abs 0x7488
    744e:	ff 90 3a 00 0a 00 	cmp.b	#58,	10(r15)	;#0x003a, 0x000a(r15)
    7454:	19 20       	jnz	$+52     	;abs 0x7488
    7456:	8a 43 02 00 	mov	#0,	2(r10)	;r3 As==00, 0x0002(r10)
    745a:	09 4f       	mov	r15,	r9	
    745c:	29 52       	add	#4,	r9	;r2 As==10
    745e:	7d 40 3a 00 	mov.b	#58,	r13	;#0x003a
    7462:	0f 49       	mov	r9,	r15	
    7464:	b0 12 08 e1 	call	#0xe108	
    7468:	08 4f       	mov	r15,	r8	
    746a:	7d 40 3a 00 	mov.b	#58,	r13	;#0x003a
    746e:	1e 4b 02 00 	mov	2(r11),	r14	;0x0002(r11)
    7472:	0f 49       	mov	r9,	r15	
    7474:	b0 12 08 e1 	call	#0xe108	
    7478:	0e 4f       	mov	r15,	r14	
    747a:	8e 10       	swpb	r14		
    747c:	4e 4e       	mov.b	r14,	r14	
    747e:	4f 48       	mov.b	r8,	r15	
    7480:	8f 10       	swpb	r15		
    7482:	0e df       	bis	r15,	r14	
    7484:	8a 4e 02 00 	mov	r14,	2(r10)	;0x0002(r10)
    7488:	0f 4b       	mov	r11,	r15	
    748a:	b0 12 d0 6f 	call	#0x6fd0	
    748e:	38 41       	pop	r8		
    7490:	39 41       	pop	r9		
    7492:	3a 41       	pop	r10		
    7494:	3b 41       	pop	r11		
    7496:	30 41       	ret			

00007498 <Stm25pSectorP__signalDone>:
    7498:	c2 4f ce 13 	mov.b	r15,	&0x13ce	
    749c:	7f 40 21 00 	mov.b	#33,	r15	;#0x0021
    74a0:	b0 12 8a 63 	call	#0x638a	
    74a4:	30 41       	ret			

000074a6 <IPForwardingEngineP__ForwardingTable__addRoute.constprop.366>:
    74a6:	0b 12       	push	r11		
    74a8:	0a 12       	push	r10		
    74aa:	09 12       	push	r9		
    74ac:	08 12       	push	r8		
    74ae:	07 12       	push	r7		
    74b0:	06 12       	push	r6		
    74b2:	05 12       	push	r5		
    74b4:	05 4f       	mov	r15,	r5	
    74b6:	0a 4e       	mov	r14,	r10	
    74b8:	06 4d       	mov	r13,	r6	
    74ba:	3e b0 07 00 	bit	#7,	r14	;#0x0007
    74be:	d3 20       	jnz	$+424    	;abs 0x7666
    74c0:	3e 90 81 00 	cmp	#129,	r14	;#0x0081
    74c4:	d0 34       	jge	$+418    	;abs 0x7666
    74c6:	b0 12 24 4d 	call	#0x4d24	
    74ca:	0b 4f       	mov	r15,	r11	
    74cc:	0f 93       	tst	r15		
    74ce:	04 24       	jz	$+10     	;abs 0x74d8
    74d0:	5d 4f 14 00 	mov.b	20(r15),r13	;0x0014(r15)
    74d4:	0d 9a       	cmp	r10,	r13	
    74d6:	ab 24       	jz	$+344    	;abs 0x762e
    74d8:	d2 b3 96 1b 	bit.b	#1,	&0x1b96	;r3 As==01
    74dc:	9f 20       	jnz	$+320    	;abs 0x761c
    74de:	39 40 b2 18 	mov	#6322,	r9	;#0x18b2
    74e2:	0b 43       	clr	r11		
    74e4:	02 12       	push	r2		
    74e6:	32 c2       	dint			
    74e8:	03 43       	nop			
    74ea:	82 4b 32 01 	mov	r11,	&0x0132	
    74ee:	b2 40 28 00 38 01 	mov	#40,	&0x0138	;#0x0028
    74f4:	1d 42 3a 01 	mov	&0x013a,r13	
    74f8:	32 41       	pop	r2		
    74fa:	5c 4d 9e 18 	mov.b	6302(r13),r12	;0x189e(r13)
    74fe:	0c 11       	rra	r12		
    7500:	0c 43       	clr	r12		
    7502:	4c 10       	rrc.b	r12		
    7504:	4c 4c       	mov.b	r12,	r12	
    7506:	8c 11       	sxt	r12		
    7508:	8c 10       	swpb	r12		
    750a:	4c 93       	tst.b	r12		
    750c:	37 24       	jz	$+112    	;abs 0x757c
    750e:	6d 49       	mov.b	@r9,	r13	
    7510:	0d 9a       	cmp	r10,	r13	
    7512:	07 38       	jl	$+16     	;abs 0x7522
    7514:	1b 53       	inc	r11		
    7516:	39 50 28 00 	add	#40,	r9	;#0x0028
    751a:	3b 90 14 00 	cmp	#20,	r11	;#0x0014
    751e:	e2 23       	jnz	$-58     	;abs 0x74e4
    7520:	7d 3c       	jmp	$+252    	;abs 0x761c
    7522:	3c 40 13 00 	mov	#19,	r12	;#0x0013
    7526:	0c 8b       	sub	r11,	r12	
    7528:	02 12       	push	r2		
    752a:	32 c2       	dint			
    752c:	03 43       	nop			
    752e:	82 4c 32 01 	mov	r12,	&0x0132	
    7532:	b2 40 28 00 38 01 	mov	#40,	&0x0138	;#0x0028
    7538:	1d 42 3a 01 	mov	&0x013a,r13	
    753c:	32 41       	pop	r2		
    753e:	02 12       	push	r2		
    7540:	32 c2       	dint			
    7542:	03 43       	nop			
    7544:	82 4b 32 01 	mov	r11,	&0x0132	
    7548:	b2 40 28 00 38 01 	mov	#40,	&0x0138	;#0x0028
    754e:	1c 42 3a 01 	mov	&0x013a,r12	
    7552:	32 41       	pop	r2		
    7554:	3c 50 9e 18 	add	#6302,	r12	;#0x189e
    7558:	0f 4b       	mov	r11,	r15	
    755a:	1f 53       	inc	r15		
    755c:	02 12       	push	r2		
    755e:	32 c2       	dint			
    7560:	03 43       	nop			
    7562:	82 4f 32 01 	mov	r15,	&0x0132	
    7566:	b2 40 28 00 38 01 	mov	#40,	&0x0138	;#0x0028
    756c:	1f 42 3a 01 	mov	&0x013a,r15	
    7570:	32 41       	pop	r2		
    7572:	0e 4c       	mov	r12,	r14	
    7574:	3f 50 9e 18 	add	#6302,	r15	;#0x189e
    7578:	b0 12 7a e9 	call	#0xe97a	
    757c:	02 12       	push	r2		
    757e:	32 c2       	dint			
    7580:	03 43       	nop			
    7582:	82 4b 32 01 	mov	r11,	&0x0132	
    7586:	b2 40 28 00 38 01 	mov	#40,	&0x0138	;#0x0028
    758c:	1c 42 3a 01 	mov	&0x013a,r12	
    7590:	32 41       	pop	r2		
    7592:	dc d3 9e 18 	bis.b	#1,	6302(r12);r3 As==01, 0x189e(r12)
    7596:	19 42 9a 11 	mov	&0x119a,r9	
    759a:	01 3c       	jmp	$+4      	;abs 0x759e
    759c:	09 4d       	mov	r13,	r9	
    759e:	0d 49       	mov	r9,	r13	
    75a0:	1d 53       	inc	r13		
    75a2:	37 40 a0 18 	mov	#6304,	r7	;#0x18a0
    75a6:	08 43       	clr	r8		
    75a8:	02 12       	push	r2		
    75aa:	32 c2       	dint			
    75ac:	03 43       	nop			
    75ae:	82 48 32 01 	mov	r8,	&0x0132	
    75b2:	b2 40 28 00 38 01 	mov	#40,	&0x0138	;#0x0028
    75b8:	1c 42 3a 01 	mov	&0x013a,r12	
    75bc:	32 41       	pop	r2		
    75be:	5c 4c 9e 18 	mov.b	6302(r12),r12	;0x189e(r12)
    75c2:	0c 11       	rra	r12		
    75c4:	0c 43       	clr	r12		
    75c6:	4c 10       	rrc.b	r12		
    75c8:	4c 4c       	mov.b	r12,	r12	
    75ca:	8c 11       	sxt	r12		
    75cc:	8c 10       	swpb	r12		
    75ce:	4c 93       	tst.b	r12		
    75d0:	02 24       	jz	$+6      	;abs 0x75d6
    75d2:	29 97       	cmp	@r7,	r9	
    75d4:	e3 27       	jz	$-56     	;abs 0x759c
    75d6:	18 53       	inc	r8		
    75d8:	37 50 28 00 	add	#40,	r7	;#0x0028
    75dc:	38 90 14 00 	cmp	#20,	r8	;#0x0014
    75e0:	e3 23       	jnz	$-56     	;abs 0x75a8
    75e2:	82 4d 9a 11 	mov	r13,	&0x119a	
    75e6:	02 12       	push	r2		
    75e8:	32 c2       	dint			
    75ea:	03 43       	nop			
    75ec:	82 4b 32 01 	mov	r11,	&0x0132	
    75f0:	b2 40 28 00 38 01 	mov	#40,	&0x0138	;#0x0028
    75f6:	1d 42 3a 01 	mov	&0x013a,r13	
    75fa:	32 41       	pop	r2		
    75fc:	8d 49 a0 18 	mov	r9,	6304(r13);0x18a0(r13)
    7600:	02 12       	push	r2		
    7602:	32 c2       	dint			
    7604:	03 43       	nop			
    7606:	82 4b 32 01 	mov	r11,	&0x0132	
    760a:	b2 40 28 00 38 01 	mov	#40,	&0x0138	;#0x0028
    7610:	1b 42 3a 01 	mov	&0x013a,r11	
    7614:	32 41       	pop	r2		
    7616:	3b 50 9e 18 	add	#6302,	r11	;#0x189e
    761a:	01 3c       	jmp	$+4      	;abs 0x761e
    761c:	0b 43       	clr	r11		
    761e:	0a 93       	tst	r10		
    7620:	04 20       	jnz	$+10     	;abs 0x762a
    7622:	7f 40 03 00 	mov.b	#3,	r15	;#0x0003
    7626:	b0 12 8a 63 	call	#0x638a	
    762a:	0b 93       	tst	r11		
    762c:	1c 24       	jz	$+58     	;abs 0x7666
    762e:	cb 4a 14 00 	mov.b	r10,	20(r11)	;0x0014(r11)
    7632:	db 43 26 00 	mov.b	#1,	38(r11)	;r3 As==01, 0x0026(r11)
    7636:	3a 92       	cmp	#8,	r10	;r2 As==11
    7638:	09 38       	jl	$+20     	;abs 0x764c
    763a:	0d 4a       	mov	r10,	r13	
    763c:	0d 11       	rra	r13		
    763e:	0d 11       	rra	r13		
    7640:	0d 11       	rra	r13		
    7642:	0e 45       	mov	r5,	r14	
    7644:	0f 4b       	mov	r11,	r15	
    7646:	2f 52       	add	#4,	r15	;r2 As==10
    7648:	b0 12 80 e8 	call	#0xe880	
    764c:	06 93       	tst	r6		
    764e:	08 24       	jz	$+18     	;abs 0x7660
    7650:	3d 40 10 00 	mov	#16,	r13	;#0x0010
    7654:	0e 46       	mov	r6,	r14	
    7656:	0f 4b       	mov	r11,	r15	
    7658:	3f 50 16 00 	add	#22,	r15	;#0x0016
    765c:	b0 12 80 e8 	call	#0xe880	
    7660:	1f 4b 02 00 	mov	2(r11),	r15	;0x0002(r11)
    7664:	01 3c       	jmp	$+4      	;abs 0x7668
    7666:	3f 43       	mov	#-1,	r15	;r3 As==11
    7668:	35 41       	pop	r5		
    766a:	36 41       	pop	r6		
    766c:	37 41       	pop	r7		
    766e:	38 41       	pop	r8		
    7670:	39 41       	pop	r9		
    7672:	3a 41       	pop	r10		
    7674:	3b 41       	pop	r11		
    7676:	30 41       	ret			

00007678 <TransformCounterC__1__Counter__get>:
    7678:	0b 12       	push	r11		
    767a:	0a 12       	push	r10		
    767c:	09 12       	push	r9		
    767e:	08 12       	push	r8		
    7680:	07 12       	push	r7		
    7682:	b0 12 b2 5f 	call	#0x5fb2	
    7686:	47 4f       	mov.b	r15,	r7	
    7688:	1a 42 e4 15 	mov	&0x15e4,r10	
    768c:	1b 42 e6 15 	mov	&0x15e6,r11	
    7690:	b0 12 6a 4a 	call	#0x4a6a	
    7694:	0d 4f       	mov	r15,	r13	
    7696:	1f 42 80 01 	mov	&0x0180,r15	
    769a:	5f f3       	and.b	#1,	r15	;r3 As==01
    769c:	05 24       	jz	$+12     	;abs 0x76a8
    769e:	1a 53       	inc	r10		
    76a0:	0b 63       	adc	r11		
    76a2:	b0 12 6a 4a 	call	#0x4a6a	
    76a6:	0d 4f       	mov	r15,	r13	
    76a8:	12 c3       	clrc			
    76aa:	0d 10       	rrc	r13		
    76ac:	12 c3       	clrc			
    76ae:	0d 10       	rrc	r13		
    76b0:	12 c3       	clrc			
    76b2:	0d 10       	rrc	r13		
    76b4:	12 c3       	clrc			
    76b6:	0d 10       	rrc	r13		
    76b8:	12 c3       	clrc			
    76ba:	0d 10       	rrc	r13		
    76bc:	08 4d       	mov	r13,	r8	
    76be:	09 43       	clr	r9		
    76c0:	0e 4a       	mov	r10,	r14	
    76c2:	0f 4b       	mov	r11,	r15	
    76c4:	4f ea       	xor.b	r10,	r15	
    76c6:	0f ea       	xor	r10,	r15	
    76c8:	8f 10       	swpb	r15		
    76ca:	4e 4e       	mov.b	r14,	r14	
    76cc:	8e 10       	swpb	r14		
    76ce:	0e 5e       	rla	r14		
    76d0:	0f 6f       	rlc	r15		
    76d2:	0e 5e       	rla	r14		
    76d4:	0f 6f       	rlc	r15		
    76d6:	0e 5e       	rla	r14		
    76d8:	0f 6f       	rlc	r15		
    76da:	08 de       	bis	r14,	r8	
    76dc:	09 df       	bis	r15,	r9	
    76de:	4f 47       	mov.b	r7,	r15	
    76e0:	b0 12 c4 5f 	call	#0x5fc4	
    76e4:	0e 48       	mov	r8,	r14	
    76e6:	0f 49       	mov	r9,	r15	
    76e8:	37 41       	pop	r7		
    76ea:	38 41       	pop	r8		
    76ec:	39 41       	pop	r9		
    76ee:	3a 41       	pop	r10		
    76f0:	3b 41       	pop	r11		
    76f2:	30 41       	ret			

000076f4 <VirtualizeTimerC__0__Timer__startPeriodic>:
    76f4:	0b 12       	push	r11		
    76f6:	09 12       	push	r9		
    76f8:	08 12       	push	r8		
    76fa:	4b 4f       	mov.b	r15,	r11	
    76fc:	08 4d       	mov	r13,	r8	
    76fe:	09 4e       	mov	r14,	r9	
    7700:	b0 12 78 76 	call	#0x7678	
    7704:	4b 4b       	mov.b	r11,	r11	
    7706:	0b 5b       	rla	r11		
    7708:	0c 4b       	mov	r11,	r12	
    770a:	0c 5c       	rla	r12		
    770c:	0c 5c       	rla	r12		
    770e:	0c 5b       	add	r11,	r12	
    7710:	3c 50 e2 1b 	add	#7138,	r12	;#0x1be2
    7714:	8c 4e 00 00 	mov	r14,	0(r12)	;0x0000(r12)
    7718:	8c 4f 02 00 	mov	r15,	2(r12)	;0x0002(r12)
    771c:	8c 48 04 00 	mov	r8,	4(r12)	;0x0004(r12)
    7720:	8c 49 06 00 	mov	r9,	6(r12)	;0x0006(r12)
    7724:	5f 4c 08 00 	mov.b	8(r12),	r15	;0x0008(r12)
    7728:	7f f0 fe ff 	and.b	#-2,	r15	;#0xfffe
    772c:	6f d3       	bis.b	#2,	r15	;r3 As==10
    772e:	cc 4f 08 00 	mov.b	r15,	8(r12)	;0x0008(r12)
    7732:	7f 40 0b 00 	mov.b	#11,	r15	;#0x000b
    7736:	b0 12 8a 63 	call	#0x638a	
    773a:	38 41       	pop	r8		
    773c:	39 41       	pop	r9		
    773e:	3b 41       	pop	r11		
    7740:	30 41       	ret			

00007742 <UDPShellP__action_ping6>:
    7742:	31 50 f0 ff 	add	#-16,	r1	;#0xfff0
    7746:	0d 4e       	mov	r14,	r13	
    7748:	1f 93       	cmp	#1,	r15	;r3 As==01
    774a:	23 24       	jz	$+72     	;abs 0x7792
    774c:	22 38       	jl	$+70     	;abs 0x7792
    774e:	0e 41       	mov	r1,	r14	
    7750:	1f 4d 02 00 	mov	2(r13),	r15	;0x0002(r13)
    7754:	b0 12 66 e3 	call	#0xe366	
    7758:	e2 b3 4e 1c 	bit.b	#2,	&0x1c4e	;r3 As==10
    775c:	0f 43       	clr	r15		
    775e:	0f 6f       	rlc	r15		
    7760:	4f 93       	tst.b	r15		
    7762:	17 20       	jnz	$+48     	;abs 0x7792
    7764:	3d 40 00 04 	mov	#1024,	r13	;#0x0400
    7768:	0e 43       	clr	r14		
    776a:	7f 40 0a 00 	mov.b	#10,	r15	;#0x000a
    776e:	b0 12 f4 76 	call	#0x76f4	
    7772:	3d 40 10 00 	mov	#16,	r13	;#0x0010
    7776:	0e 41       	mov	r1,	r14	
    7778:	3f 40 f6 25 	mov	#9718,	r15	;#0x25f6
    777c:	b0 12 80 e8 	call	#0xe880	
    7780:	b2 40 0a 00 48 1d 	mov	#10,	&0x1d48	;#0x000a
    7786:	82 43 52 26 	mov	#0,	&0x2652	;r3 As==00
    778a:	82 43 b0 25 	mov	#0,	&0x25b0	;r3 As==00
    778e:	82 43 d4 13 	mov	#0,	&0x13d4	;r3 As==00
    7792:	31 50 10 00 	add	#16,	r1	;#0x0010
    7796:	30 41       	ret			

00007798 <VirtualizeTimerC__0__Timer__startOneShot>:
    7798:	0b 12       	push	r11		
    779a:	09 12       	push	r9		
    779c:	08 12       	push	r8		
    779e:	4b 4f       	mov.b	r15,	r11	
    77a0:	08 4d       	mov	r13,	r8	
    77a2:	09 4e       	mov	r14,	r9	
    77a4:	b0 12 78 76 	call	#0x7678	
    77a8:	4b 4b       	mov.b	r11,	r11	
    77aa:	0b 5b       	rla	r11		
    77ac:	0c 4b       	mov	r11,	r12	
    77ae:	0c 5c       	rla	r12		
    77b0:	0c 5c       	rla	r12		
    77b2:	0c 5b       	add	r11,	r12	
    77b4:	3c 50 e2 1b 	add	#7138,	r12	;#0x1be2
    77b8:	8c 4e 00 00 	mov	r14,	0(r12)	;0x0000(r12)
    77bc:	8c 4f 02 00 	mov	r15,	2(r12)	;0x0002(r12)
    77c0:	8c 48 04 00 	mov	r8,	4(r12)	;0x0004(r12)
    77c4:	8c 49 06 00 	mov	r9,	6(r12)	;0x0006(r12)
    77c8:	fc d0 03 00 08 00 	bis.b	#3,	8(r12)	;#0x0003, 0x0008(r12)
    77ce:	7f 40 0b 00 	mov.b	#11,	r15	;#0x000b
    77d2:	b0 12 8a 63 	call	#0x638a	
    77d6:	38 41       	pop	r8		
    77d8:	39 41       	pop	r9		
    77da:	3b 41       	pop	r11		
    77dc:	30 41       	ret			

000077de <TransformAlarmC__1__set_alarm>:
    77de:	0b 12       	push	r11		
    77e0:	0a 12       	push	r10		
    77e2:	09 12       	push	r9		
    77e4:	08 12       	push	r8		
    77e6:	b0 12 78 76 	call	#0x7678	
    77ea:	08 4e       	mov	r14,	r8	
    77ec:	09 4f       	mov	r15,	r9	
    77ee:	1e 42 2e 12 	mov	&0x122e,r14	
    77f2:	1f 42 30 12 	mov	&0x1230,r15	
    77f6:	0a 4e       	mov	r14,	r10	
    77f8:	0b 4f       	mov	r15,	r11	
    77fa:	1a 52 a6 13 	add	&0x13a6,r10	
    77fe:	1b 62 a8 13 	addc	&0x13a8,r11	
    7802:	09 9f       	cmp	r15,	r9	
    7804:	09 28       	jnc	$+20     	;abs 0x7818
    7806:	02 20       	jnz	$+6      	;abs 0x780c
    7808:	08 9e       	cmp	r14,	r8	
    780a:	06 28       	jnc	$+14     	;abs 0x7818
    780c:	0b 9f       	cmp	r15,	r11	
    780e:	10 28       	jnc	$+34     	;abs 0x7830
    7810:	09 20       	jnz	$+20     	;abs 0x7824
    7812:	0a 9e       	cmp	r14,	r10	
    7814:	0d 28       	jnc	$+28     	;abs 0x7830
    7816:	06 3c       	jmp	$+14     	;abs 0x7824
    7818:	0b 9f       	cmp	r15,	r11	
    781a:	04 28       	jnc	$+10     	;abs 0x7824
    781c:	0f 9b       	cmp	r11,	r15	
    781e:	27 28       	jnc	$+80     	;abs 0x786e
    7820:	0a 9e       	cmp	r14,	r10	
    7822:	25 2c       	jc	$+76     	;abs 0x786e
    7824:	09 9b       	cmp	r11,	r9	
    7826:	04 28       	jnc	$+10     	;abs 0x7830
    7828:	0b 99       	cmp	r9,	r11	
    782a:	21 28       	jnc	$+68     	;abs 0x786e
    782c:	08 9a       	cmp	r10,	r8	
    782e:	1f 2c       	jc	$+64     	;abs 0x786e
    7830:	0c 4a       	mov	r10,	r12	
    7832:	0d 4b       	mov	r11,	r13	
    7834:	0c 88       	sub	r8,	r12	
    7836:	0d 79       	subc	r9,	r13	
    7838:	0d 93       	tst	r13		
    783a:	03 20       	jnz	$+8      	;abs 0x7842
    783c:	3c 90 01 04 	cmp	#1025,	r12	;#0x0401
    7840:	18 28       	jnc	$+50     	;abs 0x7872
    7842:	0e 48       	mov	r8,	r14	
    7844:	0f 49       	mov	r9,	r15	
    7846:	3e 50 00 04 	add	#1024,	r14	;#0x0400
    784a:	0f 63       	adc	r15		
    784c:	82 4e 2e 12 	mov	r14,	&0x122e	
    7850:	82 4f 30 12 	mov	r15,	&0x1230	
    7854:	0e 4c       	mov	r12,	r14	
    7856:	0f 4d       	mov	r13,	r15	
    7858:	3e 50 00 fc 	add	#-1024,	r14	;#0xfc00
    785c:	3f 63       	addc	#-1,	r15	;r3 As==11
    785e:	82 4e a6 13 	mov	r14,	&0x13a6	
    7862:	82 4f a8 13 	mov	r15,	&0x13a8	
    7866:	3c 40 00 04 	mov	#1024,	r12	;#0x0400
    786a:	0d 43       	clr	r13		
    786c:	0a 3c       	jmp	$+22     	;abs 0x7882
    786e:	0c 43       	clr	r12		
    7870:	0d 43       	clr	r13		
    7872:	82 4a 2e 12 	mov	r10,	&0x122e	
    7876:	82 4b 30 12 	mov	r11,	&0x1230	
    787a:	82 43 a6 13 	mov	#0,	&0x13a6	;r3 As==00
    787e:	82 43 a8 13 	mov	#0,	&0x13a8	;r3 As==00
    7882:	0a 4c       	mov	r12,	r10	
    7884:	0a 5a       	rla	r10		
    7886:	0a 5a       	rla	r10		
    7888:	0a 5a       	rla	r10		
    788a:	0a 5a       	rla	r10		
    788c:	0a 5a       	rla	r10		
    788e:	b0 12 6a 4a 	call	#0x4a6a	
    7892:	08 58       	rla	r8		
    7894:	08 58       	rla	r8		
    7896:	08 58       	rla	r8		
    7898:	08 58       	rla	r8		
    789a:	08 58       	rla	r8		
    789c:	0e 4f       	mov	r15,	r14	
    789e:	0e 88       	sub	r8,	r14	
    78a0:	0e 9a       	cmp	r10,	r14	
    78a2:	04 2c       	jc	$+10     	;abs 0x78ac
    78a4:	0a 8e       	sub	r14,	r10	
    78a6:	3a 90 03 00 	cmp	#3,	r10	;#0x0003
    78aa:	06 2c       	jc	$+14     	;abs 0x78b8
    78ac:	b0 12 6a 4a 	call	#0x4a6a	
    78b0:	2f 53       	incd	r15		
    78b2:	82 4f 96 01 	mov	r15,	&0x0196	
    78b6:	03 3c       	jmp	$+8      	;abs 0x78be
    78b8:	0a 5f       	add	r15,	r10	
    78ba:	82 4a 96 01 	mov	r10,	&0x0196	
    78be:	b2 f0 fe ff 86 01 	and	#-2,	&0x0186	;#0xfffe
    78c4:	b2 d0 10 00 86 01 	bis	#16,	&0x0186	;#0x0010
    78ca:	38 41       	pop	r8		
    78cc:	39 41       	pop	r9		
    78ce:	3a 41       	pop	r10		
    78d0:	3b 41       	pop	r11		
    78d2:	30 41       	ret			

000078d4 <TransformAlarmC__2__set_alarm>:
    78d4:	0b 12       	push	r11		
    78d6:	0a 12       	push	r10		
    78d8:	09 12       	push	r9		
    78da:	08 12       	push	r8		
    78dc:	b0 12 78 76 	call	#0x7678	
    78e0:	08 4e       	mov	r14,	r8	
    78e2:	09 4f       	mov	r15,	r9	
    78e4:	1e 42 3c 1d 	mov	&0x1d3c,r14	
    78e8:	1f 42 3e 1d 	mov	&0x1d3e,r15	
    78ec:	0a 4e       	mov	r14,	r10	
    78ee:	0b 4f       	mov	r15,	r11	
    78f0:	1a 52 d8 13 	add	&0x13d8,r10	
    78f4:	1b 62 da 13 	addc	&0x13da,r11	
    78f8:	09 9f       	cmp	r15,	r9	
    78fa:	09 28       	jnc	$+20     	;abs 0x790e
    78fc:	02 20       	jnz	$+6      	;abs 0x7902
    78fe:	08 9e       	cmp	r14,	r8	
    7900:	06 28       	jnc	$+14     	;abs 0x790e
    7902:	0b 9f       	cmp	r15,	r11	
    7904:	10 28       	jnc	$+34     	;abs 0x7926
    7906:	09 20       	jnz	$+20     	;abs 0x791a
    7908:	0a 9e       	cmp	r14,	r10	
    790a:	0d 28       	jnc	$+28     	;abs 0x7926
    790c:	06 3c       	jmp	$+14     	;abs 0x791a
    790e:	0b 9f       	cmp	r15,	r11	
    7910:	04 28       	jnc	$+10     	;abs 0x791a
    7912:	0f 9b       	cmp	r11,	r15	
    7914:	27 28       	jnc	$+80     	;abs 0x7964
    7916:	0a 9e       	cmp	r14,	r10	
    7918:	25 2c       	jc	$+76     	;abs 0x7964
    791a:	09 9b       	cmp	r11,	r9	
    791c:	04 28       	jnc	$+10     	;abs 0x7926
    791e:	0b 99       	cmp	r9,	r11	
    7920:	21 28       	jnc	$+68     	;abs 0x7964
    7922:	08 9a       	cmp	r10,	r8	
    7924:	1f 2c       	jc	$+64     	;abs 0x7964
    7926:	0c 4a       	mov	r10,	r12	
    7928:	0d 4b       	mov	r11,	r13	
    792a:	0c 88       	sub	r8,	r12	
    792c:	0d 79       	subc	r9,	r13	
    792e:	0d 93       	tst	r13		
    7930:	03 20       	jnz	$+8      	;abs 0x7938
    7932:	3c 90 01 04 	cmp	#1025,	r12	;#0x0401
    7936:	18 28       	jnc	$+50     	;abs 0x7968
    7938:	0e 48       	mov	r8,	r14	
    793a:	0f 49       	mov	r9,	r15	
    793c:	3e 50 00 04 	add	#1024,	r14	;#0x0400
    7940:	0f 63       	adc	r15		
    7942:	82 4e 3c 1d 	mov	r14,	&0x1d3c	
    7946:	82 4f 3e 1d 	mov	r15,	&0x1d3e	
    794a:	0e 4c       	mov	r12,	r14	
    794c:	0f 4d       	mov	r13,	r15	
    794e:	3e 50 00 fc 	add	#-1024,	r14	;#0xfc00
    7952:	3f 63       	addc	#-1,	r15	;r3 As==11
    7954:	82 4e d8 13 	mov	r14,	&0x13d8	
    7958:	82 4f da 13 	mov	r15,	&0x13da	
    795c:	3c 40 00 04 	mov	#1024,	r12	;#0x0400
    7960:	0d 43       	clr	r13		
    7962:	0a 3c       	jmp	$+22     	;abs 0x7978
    7964:	0c 43       	clr	r12		
    7966:	0d 43       	clr	r13		
    7968:	82 4a 3c 1d 	mov	r10,	&0x1d3c	
    796c:	82 4b 3e 1d 	mov	r11,	&0x1d3e	
    7970:	82 43 d8 13 	mov	#0,	&0x13d8	;r3 As==00
    7974:	82 43 da 13 	mov	#0,	&0x13da	;r3 As==00
    7978:	0a 4c       	mov	r12,	r10	
    797a:	0a 5a       	rla	r10		
    797c:	0a 5a       	rla	r10		
    797e:	0a 5a       	rla	r10		
    7980:	0a 5a       	rla	r10		
    7982:	0a 5a       	rla	r10		
    7984:	b0 12 6a 4a 	call	#0x4a6a	
    7988:	08 58       	rla	r8		
    798a:	08 58       	rla	r8		
    798c:	08 58       	rla	r8		
    798e:	08 58       	rla	r8		
    7990:	08 58       	rla	r8		
    7992:	0e 4f       	mov	r15,	r14	
    7994:	0e 88       	sub	r8,	r14	
    7996:	0e 9a       	cmp	r10,	r14	
    7998:	04 2c       	jc	$+10     	;abs 0x79a2
    799a:	0a 8e       	sub	r14,	r10	
    799c:	3a 90 03 00 	cmp	#3,	r10	;#0x0003
    79a0:	06 2c       	jc	$+14     	;abs 0x79ae
    79a2:	b0 12 6a 4a 	call	#0x4a6a	
    79a6:	2f 53       	incd	r15		
    79a8:	82 4f 98 01 	mov	r15,	&0x0198	
    79ac:	03 3c       	jmp	$+8      	;abs 0x79b4
    79ae:	0a 5f       	add	r15,	r10	
    79b0:	82 4a 98 01 	mov	r10,	&0x0198	
    79b4:	b2 f0 fe ff 88 01 	and	#-2,	&0x0188	;#0xfffe
    79ba:	b2 d0 10 00 88 01 	bis	#16,	&0x0188	;#0x0010
    79c0:	38 41       	pop	r8		
    79c2:	39 41       	pop	r9		
    79c4:	3a 41       	pop	r10		
    79c6:	3b 41       	pop	r11		
    79c8:	30 41       	ret			

000079ca <AdcStreamP__nextAlarm>:
    79ca:	92 42 b4 25 3c 1d 	mov	&0x25b4,&0x1d3c	
    79d0:	92 42 b6 25 3e 1d 	mov	&0x25b6,&0x1d3e	
    79d6:	92 42 9a 1c d8 13 	mov	&0x1c9a,&0x13d8	
    79dc:	92 42 9c 1c da 13 	mov	&0x1c9c,&0x13da	
    79e2:	b0 12 d4 78 	call	#0x78d4	
    79e6:	92 52 9a 1c b4 25 	add	&0x1c9a,&0x25b4	
    79ec:	92 62 9c 1c b6 25 	addc	&0x1c9c,&0x25b6	
    79f2:	30 41       	ret			

000079f4 <UDPShellP__action_uptime>:
    79f4:	0b 12       	push	r11		
    79f6:	0a 12       	push	r10		
    79f8:	09 12       	push	r9		
    79fa:	08 12       	push	r8		
    79fc:	07 12       	push	r7		
    79fe:	06 12       	push	r6		
    7a00:	05 12       	push	r5		
    7a02:	04 12       	push	r4		
    7a04:	21 82       	sub	#4,	r1	;r2 As==10
    7a06:	b0 12 78 76 	call	#0x7678	
    7a0a:	81 4e 00 00 	mov	r14,	0(r1)	;0x0000(r1)
    7a0e:	81 4f 02 00 	mov	r15,	2(r1)	;0x0002(r1)
    7a12:	b0 12 b2 5f 	call	#0x5fb2	
    7a16:	18 42 c0 13 	mov	&0x13c0,r8	
    7a1a:	19 42 c2 13 	mov	&0x13c2,r9	
    7a1e:	0a 43       	clr	r10		
    7a20:	0b 43       	clr	r11		
    7a22:	14 42 ee 25 	mov	&0x25ee,r4	
    7a26:	15 42 f0 25 	mov	&0x25f0,r5	
    7a2a:	16 42 f2 25 	mov	&0x25f2,r6	
    7a2e:	17 42 f4 25 	mov	&0x25f4,r7	
    7a32:	04 88       	sub	r8,	r4	
    7a34:	05 79       	subc	r9,	r5	
    7a36:	06 7a       	subc	r10,	r6	
    7a38:	07 7b       	subc	r11,	r7	
    7a3a:	08 44       	mov	r4,	r8	
    7a3c:	09 45       	mov	r5,	r9	
    7a3e:	0a 46       	mov	r6,	r10	
    7a40:	0b 47       	mov	r7,	r11	
    7a42:	24 41       	mov	@r1,	r4	
    7a44:	15 41 02 00 	mov	2(r1),	r5	;0x0002(r1)
    7a48:	06 43       	clr	r6		
    7a4a:	07 43       	clr	r7		
    7a4c:	08 54       	add	r4,	r8	
    7a4e:	09 65       	addc	r5,	r9	
    7a50:	0a 66       	addc	r6,	r10	
    7a52:	0b 67       	addc	r7,	r11	
    7a54:	b0 12 c4 5f 	call	#0x5fc4	
    7a58:	0c 48       	mov	r8,	r12	
    7a5a:	0d 49       	mov	r9,	r13	
    7a5c:	0e 4a       	mov	r10,	r14	
    7a5e:	0f 4b       	mov	r11,	r15	
    7a60:	0c 48       	mov	r8,	r12	
    7a62:	8c 10       	swpb	r12		
    7a64:	8d 10       	swpb	r13		
    7a66:	4c ed       	xor.b	r13,	r12	
    7a68:	0c ed       	xor	r13,	r12	
    7a6a:	8e 10       	swpb	r14		
    7a6c:	4d ee       	xor.b	r14,	r13	
    7a6e:	0d ee       	xor	r14,	r13	
    7a70:	8f 10       	swpb	r15		
    7a72:	4e ef       	xor.b	r15,	r14	
    7a74:	0e ef       	xor	r15,	r14	
    7a76:	4f 4f       	mov.b	r15,	r15	
    7a78:	12 c3       	clrc			
    7a7a:	0f 10       	rrc	r15		
    7a7c:	0e 10       	rrc	r14		
    7a7e:	0d 10       	rrc	r13		
    7a80:	0c 10       	rrc	r12		
    7a82:	12 c3       	clrc			
    7a84:	0f 10       	rrc	r15		
    7a86:	0e 10       	rrc	r14		
    7a88:	0d 10       	rrc	r13		
    7a8a:	0c 10       	rrc	r12		
    7a8c:	0d 12       	push	r13		
    7a8e:	0c 12       	push	r12		
    7a90:	30 12 fe f5 	push	#-2562		;#0xf5fe
    7a94:	30 12 80 00 	push	#128		;#0x0080
    7a98:	30 12 94 12 	push	#4756		;#0x1294
    7a9c:	b0 12 e2 eb 	call	#0xebe2	
    7aa0:	31 50 0a 00 	add	#10,	r1	;#0x000a
    7aa4:	0c 4f       	mov	r15,	r12	
    7aa6:	3d 40 94 12 	mov	#4756,	r13	;#0x1294
    7aaa:	3e 40 28 24 	mov	#9256,	r14	;#0x2428
    7aae:	7f 40 03 00 	mov.b	#3,	r15	;#0x0003
    7ab2:	b0 12 6a 70 	call	#0x706a	
    7ab6:	21 52       	add	#4,	r1	;r2 As==10
    7ab8:	34 41       	pop	r4		
    7aba:	35 41       	pop	r5		
    7abc:	36 41       	pop	r6		
    7abe:	37 41       	pop	r7		
    7ac0:	38 41       	pop	r8		
    7ac2:	39 41       	pop	r9		
    7ac4:	3a 41       	pop	r10		
    7ac6:	3b 41       	pop	r11		
    7ac8:	30 41       	ret			

00007aca <AdcStreamP__nextBuffer>:
    7aca:	0b 12       	push	r11		
    7acc:	0a 12       	push	r10		
    7ace:	4a 4f       	mov.b	r15,	r10	
    7ad0:	b0 12 b2 5f 	call	#0x5fb2	
    7ad4:	4b 4f       	mov.b	r15,	r11	
    7ad6:	5e 42 08 11 	mov.b	&0x1108,r14	
    7ada:	0e 5e       	rla	r14		
    7adc:	0c 4e       	mov	r14,	r12	
    7ade:	3c 50 14 13 	add	#4884,	r12	;#0x1314
    7ae2:	2d 4c       	mov	@r12,	r13	
    7ae4:	0d 93       	tst	r13		
    7ae6:	0b 20       	jnz	$+24     	;abs 0x7afe
    7ae8:	8e 43 f8 24 	mov	#0,	9464(r14);r3 As==00, 0x24f8(r14)
    7aec:	7f 40 1e 00 	mov.b	#30,	r15	;#0x001e
    7af0:	b0 12 8a 63 	call	#0x638a	
    7af4:	4f 4b       	mov.b	r11,	r15	
    7af6:	b0 12 c4 5f 	call	#0x5fc4	
    7afa:	5f 43       	mov.b	#1,	r15	;r3 As==01
    7afc:	16 3c       	jmp	$+46     	;abs 0x7b2a
    7afe:	1f 4d 02 00 	mov	2(r13),	r15	;0x0002(r13)
    7b02:	8c 4f 00 00 	mov	r15,	0(r12)	;0x0000(r12)
    7b06:	0f 93       	tst	r15		
    7b08:	02 20       	jnz	$+6      	;abs 0x7b0e
    7b0a:	8e 4c f8 24 	mov	r12,	9464(r14);0x24f8(r14)
    7b0e:	a2 4d 06 1d 	mov	@r13,	&0x1d06	
    7b12:	82 4d 48 24 	mov	r13,	&0x2448	
    7b16:	82 4d 8e 12 	mov	r13,	&0x128e	
    7b1a:	4a 93       	tst.b	r10		
    7b1c:	02 24       	jz	$+6      	;abs 0x7b22
    7b1e:	b0 12 ca 79 	call	#0x79ca	
    7b22:	4f 4b       	mov.b	r11,	r15	
    7b24:	b0 12 c4 5f 	call	#0x5fc4	
    7b28:	4f 43       	clr.b	r15		
    7b2a:	3a 41       	pop	r10		
    7b2c:	3b 41       	pop	r11		
    7b2e:	30 41       	ret			

00007b30 <Msp430Adc12ImplP__SingleChannel__singleDataReady>:
    7b30:	0b 12       	push	r11		
    7b32:	4f 93       	tst.b	r15		
    7b34:	03 24       	jz	$+8      	;abs 0x7b3c
    7b36:	5f 93       	cmp.b	#1,	r15	;r3 As==01
    7b38:	48 20       	jnz	$+146    	;abs 0x7bca
    7b3a:	0c 3c       	jmp	$+26     	;abs 0x7b54
    7b3c:	c2 93 96 18 	tst.b	&0x1896	
    7b40:	42 20       	jnz	$+134    	;abs 0x7bc6
    7b42:	c2 43 2e 1d 	mov.b	#0,	&0x1d2e	;r3 As==00
    7b46:	82 4e ae 25 	mov	r14,	&0x25ae	
    7b4a:	7f 40 1b 00 	mov.b	#27,	r15	;#0x001b
    7b4e:	b0 12 8a 63 	call	#0x638a	
    7b52:	39 3c       	jmp	$+116    	;abs 0x7bc6
    7b54:	5f 42 08 11 	mov.b	&0x1108,r15	
    7b58:	5f 93       	cmp.b	#1,	r15	;r3 As==01
    7b5a:	37 24       	jz	$+112    	;abs 0x7bca
    7b5c:	82 93 06 1d 	tst	&0x1d06	
    7b60:	07 20       	jnz	$+16     	;abs 0x7b70
    7b62:	b0 12 78 76 	call	#0x7678	
    7b66:	82 4e b4 25 	mov	r14,	&0x25b4	
    7b6a:	82 4f b6 25 	mov	r15,	&0x25b6	
    7b6e:	24 3c       	jmp	$+74     	;abs 0x7bb8
    7b70:	1b 42 8e 12 	mov	&0x128e,r11	
    7b74:	8b 4e 00 00 	mov	r14,	0(r11)	;0x0000(r11)
    7b78:	2b 53       	incd	r11		
    7b7a:	82 4b 8e 12 	mov	r11,	&0x128e	
    7b7e:	1d 42 48 24 	mov	&0x2448,r13	
    7b82:	1c 42 06 1d 	mov	&0x1d06,r12	
    7b86:	0e 4c       	mov	r12,	r14	
    7b88:	0e 5e       	rla	r14		
    7b8a:	0e 5d       	add	r13,	r14	
    7b8c:	0b 9e       	cmp	r14,	r11	
    7b8e:	18 20       	jnz	$+50     	;abs 0x7bc0
    7b90:	82 93 de 15 	tst	&0x15de	
    7b94:	09 24       	jz	$+20     	;abs 0x7ba8
    7b96:	4f 4f       	mov.b	r15,	r15	
    7b98:	0f 5f       	rla	r15		
    7b9a:	8f 43 f8 24 	mov	#0,	9464(r15);r3 As==00, 0x24f8(r15)
    7b9e:	7f 40 1f 00 	mov.b	#31,	r15	;#0x001f
    7ba2:	b0 12 8a 63 	call	#0x638a	
    7ba6:	11 3c       	jmp	$+36     	;abs 0x7bca
    7ba8:	82 4c 1c 25 	mov	r12,	&0x251c	
    7bac:	82 4d de 15 	mov	r13,	&0x15de	
    7bb0:	7f 40 20 00 	mov.b	#32,	r15	;#0x0020
    7bb4:	b0 12 8a 63 	call	#0x638a	
    7bb8:	5f 43       	mov.b	#1,	r15	;r3 As==01
    7bba:	b0 12 ca 7a 	call	#0x7aca	
    7bbe:	05 3c       	jmp	$+12     	;abs 0x7bca
    7bc0:	b0 12 ca 79 	call	#0x79ca	
    7bc4:	02 3c       	jmp	$+6      	;abs 0x7bca
    7bc6:	4f 43       	clr.b	r15		
    7bc8:	01 3c       	jmp	$+4      	;abs 0x7bcc
    7bca:	5f 43       	mov.b	#1,	r15	;r3 As==01
    7bcc:	3b 41       	pop	r11		
    7bce:	30 41       	ret			

00007bd0 <Msp430Adc12ImplP__SingleChannel__getData>:
    7bd0:	0b 12       	push	r11		
    7bd2:	0a 12       	push	r10		
    7bd4:	4a 4f       	mov.b	r15,	r10	
    7bd6:	b0 12 b2 5f 	call	#0x5fb2	
    7bda:	4b 4f       	mov.b	r15,	r11	
    7bdc:	e2 93 b8 11 	cmp.b	#2,	&0x11b8	;r3 As==10
    7be0:	03 20       	jnz	$+8      	;abs 0x7be8
    7be2:	5e 42 0a 11 	mov.b	&0x110a,r14	
    7be6:	01 3c       	jmp	$+4      	;abs 0x7bea
    7be8:	7e 43       	mov.b	#-1,	r14	;r3 As==11
    7bea:	4e 9a       	cmp.b	r10,	r14	
    7bec:	8b 20       	jnz	$+280    	;abs 0x7d04
    7bee:	5d 42 c4 1b 	mov.b	&0x1bc4,r13	
    7bf2:	4f 4d       	mov.b	r13,	r15	
    7bf4:	3f b2       	bit	#8,	r15	;r2 As==11
    7bf6:	09 24       	jz	$+20     	;abs 0x7c0a
    7bf8:	82 93 50 16 	tst	&0x1650	
    7bfc:	06 20       	jnz	$+14     	;abs 0x7c0a
    7bfe:	4f 4b       	mov.b	r11,	r15	
    7c00:	b0 12 c4 5f 	call	#0x5fc4	
    7c04:	7f 40 06 00 	mov.b	#6,	r15	;#0x0006
    7c08:	81 3c       	jmp	$+260    	;abs 0x7d0c
    7c0a:	3f f0 20 00 	and	#32,	r15	;#0x0020
    7c0e:	06 24       	jz	$+14     	;abs 0x7c1c
    7c10:	4f 4b       	mov.b	r11,	r15	
    7c12:	b0 12 c4 5f 	call	#0x5fc4	
    7c16:	7f 40 05 00 	mov.b	#5,	r15	;#0x0005
    7c1a:	78 3c       	jmp	$+242    	;abs 0x7d0c
    7c1c:	7d d0 20 00 	bis.b	#32,	r13	;#0x0020
    7c20:	c2 4d c4 1b 	mov.b	r13,	&0x1bc4	
    7c24:	c2 4e 86 12 	mov.b	r14,	&0x1286	
    7c28:	4f 43       	clr.b	r15		
    7c2a:	b0 12 60 4a 	call	#0x4a60	
    7c2e:	7f f0 0f 00 	and.b	#15,	r15	;#0x000f
    7c32:	7f 92       	cmp.b	#8,	r15	;r2 As==11
    7c34:	4d 2c       	jc	$+156    	;abs 0x7cd0
    7c36:	0e 4f       	mov	r15,	r14	
    7c38:	3e f0 0f 00 	and	#15,	r14	;#0x000f
    7c3c:	0e 5e       	rla	r14		
    7c3e:	5f 42 37 00 	mov.b	&0x0037,r15	
    7c42:	10 4e 0e f6 	br	-2546(r14)	;0xf60e(r14)
    7c46:	5f d3       	bis.b	#1,	r15	;r3 As==01
    7c48:	c2 4f 37 00 	mov.b	r15,	&0x0037	
    7c4c:	5f 42 36 00 	mov.b	&0x0036,r15	
    7c50:	7f f0 fe ff 	and.b	#-2,	r15	;#0xfffe
    7c54:	3b 3c       	jmp	$+120    	;abs 0x7ccc
    7c56:	6f d3       	bis.b	#2,	r15	;r3 As==10
    7c58:	c2 4f 37 00 	mov.b	r15,	&0x0037	
    7c5c:	5f 42 36 00 	mov.b	&0x0036,r15	
    7c60:	7f f0 fd ff 	and.b	#-3,	r15	;#0xfffd
    7c64:	33 3c       	jmp	$+104    	;abs 0x7ccc
    7c66:	6f d2       	bis.b	#4,	r15	;r2 As==10
    7c68:	c2 4f 37 00 	mov.b	r15,	&0x0037	
    7c6c:	5f 42 36 00 	mov.b	&0x0036,r15	
    7c70:	7f f0 fb ff 	and.b	#-5,	r15	;#0xfffb
    7c74:	2b 3c       	jmp	$+88     	;abs 0x7ccc
    7c76:	7f d2       	bis.b	#8,	r15	;r2 As==11
    7c78:	c2 4f 37 00 	mov.b	r15,	&0x0037	
    7c7c:	5f 42 36 00 	mov.b	&0x0036,r15	
    7c80:	7f f0 f7 ff 	and.b	#-9,	r15	;#0xfff7
    7c84:	23 3c       	jmp	$+72     	;abs 0x7ccc
    7c86:	7f d0 10 00 	bis.b	#16,	r15	;#0x0010
    7c8a:	c2 4f 37 00 	mov.b	r15,	&0x0037	
    7c8e:	5f 42 36 00 	mov.b	&0x0036,r15	
    7c92:	7f f0 ef ff 	and.b	#-17,	r15	;#0xffef
    7c96:	1a 3c       	jmp	$+54     	;abs 0x7ccc
    7c98:	7f d0 20 00 	bis.b	#32,	r15	;#0x0020
    7c9c:	c2 4f 37 00 	mov.b	r15,	&0x0037	
    7ca0:	5f 42 36 00 	mov.b	&0x0036,r15	
    7ca4:	7f f0 df ff 	and.b	#-33,	r15	;#0xffdf
    7ca8:	11 3c       	jmp	$+36     	;abs 0x7ccc
    7caa:	7f d0 40 00 	bis.b	#64,	r15	;#0x0040
    7cae:	c2 4f 37 00 	mov.b	r15,	&0x0037	
    7cb2:	5f 42 36 00 	mov.b	&0x0036,r15	
    7cb6:	7f f0 bf ff 	and.b	#-65,	r15	;#0xffbf
    7cba:	08 3c       	jmp	$+18     	;abs 0x7ccc
    7cbc:	7f d0 80 ff 	bis.b	#-128,	r15	;#0xff80
    7cc0:	c2 4f 37 00 	mov.b	r15,	&0x0037	
    7cc4:	5f 42 36 00 	mov.b	&0x0036,r15	
    7cc8:	7f f0 7f 00 	and.b	#127,	r15	;#0x007f
    7ccc:	c2 4f 36 00 	mov.b	r15,	&0x0036	
    7cd0:	b2 d0 10 00 a0 01 	bis	#16,	&0x01a0	;#0x0010
    7cd6:	b2 d0 03 00 a0 01 	bis	#3,	&0x01a0	;#0x0003
    7cdc:	5f 42 c4 1b 	mov.b	&0x1bc4,r15	
    7ce0:	3f f0 40 00 	and	#64,	r15	;#0x0040
    7ce4:	0a 24       	jz	$+22     	;abs 0x7cfa
    7ce6:	82 43 64 01 	mov	#0,	&0x0164	;r3 As==00
    7cea:	a2 42 64 01 	mov	#4,	&0x0164	;r2 As==10
    7cee:	b2 40 e0 00 64 01 	mov	#224,	&0x0164	;#0x00e0
    7cf4:	1f 43       	mov	#1,	r15	;r3 As==01
    7cf6:	b0 12 d0 47 	call	#0x47d0	
    7cfa:	4f 4b       	mov.b	r11,	r15	
    7cfc:	b0 12 c4 5f 	call	#0x5fc4	
    7d00:	4f 43       	clr.b	r15		
    7d02:	04 3c       	jmp	$+10     	;abs 0x7d0c
    7d04:	4f 4b       	mov.b	r11,	r15	
    7d06:	b0 12 c4 5f 	call	#0x5fc4	
    7d0a:	5f 43       	mov.b	#1,	r15	;r3 As==01
    7d0c:	3a 41       	pop	r10		
    7d0e:	3b 41       	pop	r11		
    7d10:	30 41       	ret			

00007d12 <AdcStreamP__sampleSingle>:
    7d12:	c2 93 08 11 	tst.b	&0x1108	
    7d16:	03 20       	jnz	$+8      	;abs 0x7d1e
    7d18:	5f 43       	mov.b	#1,	r15	;r3 As==01
    7d1a:	b0 12 d0 7b 	call	#0x7bd0	
    7d1e:	30 41       	ret			

00007d20 <AdcStreamP__nextMultiple.part.238>:
    7d20:	0b 12       	push	r11		
    7d22:	0a 12       	push	r10		
    7d24:	09 12       	push	r9		
    7d26:	08 12       	push	r8		
    7d28:	07 12       	push	r7		
    7d2a:	06 12       	push	r6		
    7d2c:	05 12       	push	r5		
    7d2e:	04 12       	push	r4		
    7d30:	21 82       	sub	#4,	r1	;r2 As==10
    7d32:	44 4f       	mov.b	r15,	r4	
    7d34:	4f 93       	tst.b	r15		
    7d36:	03 24       	jz	$+8      	;abs 0x7d3e
    7d38:	3d 40 02 f8 	mov	#-2046,	r13	;#0xf802
    7d3c:	02 3c       	jmp	$+6      	;abs 0x7d42
    7d3e:	3d 40 04 11 	mov	#4356,	r13	;#0x1104
    7d42:	6f 4d       	mov.b	@r13,	r15	
    7d44:	7f f0 0f 00 	and.b	#15,	r15	;#0x000f
    7d48:	c1 4f 00 00 	mov.b	r15,	0(r1)	;0x0000(r1)
    7d4c:	6b 4d       	mov.b	@r13,	r11	
    7d4e:	12 c3       	clrc			
    7d50:	4b 10       	rrc.b	r11		
    7d52:	12 c3       	clrc			
    7d54:	4b 10       	rrc.b	r11		
    7d56:	12 c3       	clrc			
    7d58:	4b 10       	rrc.b	r11		
    7d5a:	12 c3       	clrc			
    7d5c:	4b 10       	rrc.b	r11		
    7d5e:	7b f0 07 00 	and.b	#7,	r11	;#0x0007
    7d62:	5a 4d 01 00 	mov.b	1(r13),	r10	;0x0001(r13)
    7d66:	7a f0 03 00 	and.b	#3,	r10	;#0x0003
    7d6a:	5c 4d 01 00 	mov.b	1(r13),	r12	;0x0001(r13)
    7d6e:	48 4c       	mov.b	r12,	r8	
    7d70:	12 c3       	clrc			
    7d72:	48 10       	rrc.b	r8		
    7d74:	12 c3       	clrc			
    7d76:	48 10       	rrc.b	r8		
    7d78:	78 f0 07 00 	and.b	#7,	r8	;#0x0007
    7d7c:	4c 4c       	mov.b	r12,	r12	
    7d7e:	12 c3       	clrc			
    7d80:	4c 10       	rrc.b	r12		
    7d82:	12 c3       	clrc			
    7d84:	4c 10       	rrc.b	r12		
    7d86:	12 c3       	clrc			
    7d88:	4c 10       	rrc.b	r12		
    7d8a:	12 c3       	clrc			
    7d8c:	4c 10       	rrc.b	r12		
    7d8e:	12 c3       	clrc			
    7d90:	4c 10       	rrc.b	r12		
    7d92:	59 4d 02 00 	mov.b	2(r13),	r9	;0x0002(r13)
    7d96:	19 f3       	and	#1,	r9	;r3 As==01
    7d98:	09 59       	rla	r9		
    7d9a:	09 59       	rla	r9		
    7d9c:	09 59       	rla	r9		
    7d9e:	4c d9       	bis.b	r9,	r12	
    7da0:	c1 4c 01 00 	mov.b	r12,	1(r1)	;0x0001(r1)
    7da4:	16 42 9a 1c 	mov	&0x1c9a,r6	
    7da8:	15 42 06 1d 	mov	&0x1d06,r5	
    7dac:	19 42 8e 12 	mov	&0x128e,r9	
    7db0:	44 93       	tst.b	r4		
    7db2:	c0 20       	jnz	$+386    	;abs 0x7f34
    7db4:	09 93       	tst	r9		
    7db6:	be 24       	jz	$+382    	;abs 0x7f34
    7db8:	05 93       	tst	r5		
    7dba:	bc 24       	jz	$+378    	;abs 0x7f34
    7dbc:	16 93       	cmp	#1,	r6	;r3 As==01
    7dbe:	ba 24       	jz	$+374    	;abs 0x7f34
    7dc0:	26 93       	cmp	#2,	r6	;r3 As==10
    7dc2:	b8 24       	jz	$+370    	;abs 0x7f34
    7dc4:	b0 12 b2 5f 	call	#0x5fb2	
    7dc8:	c1 4f 02 00 	mov.b	r15,	2(r1)	;0x0002(r1)
    7dcc:	5e 42 c4 1b 	mov.b	&0x1bc4,r14	
    7dd0:	3e f0 20 00 	and	#32,	r14	;#0x0020
    7dd4:	03 24       	jz	$+8      	;abs 0x7ddc
    7dd6:	b0 12 c4 5f 	call	#0x5fc4	
    7dda:	ac 3c       	jmp	$+346    	;abs 0x7f34
    7ddc:	e2 93 b8 11 	cmp.b	#2,	&0x11b8	;r3 As==10
    7de0:	9c 20       	jnz	$+314    	;abs 0x7f1a
    7de2:	d2 93 0a 11 	cmp.b	#1,	&0x110a	;r3 As==01
    7de6:	99 20       	jnz	$+308    	;abs 0x7f1a
    7de8:	35 90 11 00 	cmp	#17,	r5	;#0x0011
    7dec:	03 28       	jnc	$+8      	;abs 0x7df4
    7dee:	77 40 03 00 	mov.b	#3,	r7	;#0x0003
    7df2:	01 3c       	jmp	$+4      	;abs 0x7df6
    7df4:	57 43       	mov.b	#1,	r7	;r3 As==01
    7df6:	37 f0 03 00 	and	#3,	r7	;#0x0003
    7dfa:	07 57       	rla	r7		
    7dfc:	3a f0 03 00 	and	#3,	r10	;#0x0003
    7e00:	0a 5a       	rla	r10		
    7e02:	0a 5a       	rla	r10		
    7e04:	0a 5a       	rla	r10		
    7e06:	0d 48       	mov	r8,	r13	
    7e08:	3d f0 07 00 	and	#7,	r13	;#0x0007
    7e0c:	0d 5d       	rla	r13		
    7e0e:	0d 5d       	rla	r13		
    7e10:	0d 5d       	rla	r13		
    7e12:	0d 5d       	rla	r13		
    7e14:	0d 5d       	rla	r13		
    7e16:	0a d7       	bis	r7,	r10	
    7e18:	0a dd       	bis	r13,	r10	
    7e1a:	3a d0 00 02 	bis	#512,	r10	;#0x0200
    7e1e:	5d 43       	mov.b	#1,	r13	;r3 As==01
    7e20:	06 93       	tst	r6		
    7e22:	01 20       	jnz	$+4      	;abs 0x7e26
    7e24:	4d 43       	clr.b	r13		
    7e26:	1d f3       	and	#1,	r13	;r3 As==01
    7e28:	8d 10       	swpb	r13		
    7e2a:	0d 5d       	rla	r13		
    7e2c:	0d 5d       	rla	r13		
    7e2e:	3a f0 ff f3 	and	#-3073,	r10	;#0xf3ff
    7e32:	0a dd       	bis	r13,	r10	
    7e34:	7b f0 07 00 	and.b	#7,	r11	;#0x0007
    7e38:	4b 5b       	rla.b	r11		
    7e3a:	4b 5b       	rla.b	r11		
    7e3c:	4b 5b       	rla.b	r11		
    7e3e:	4b 5b       	rla.b	r11		
    7e40:	6b d1       	bis.b	@r1,	r11	
    7e42:	b0 12 14 48 	call	#0x4814	
    7e46:	0d 4f       	mov	r15,	r13	
    7e48:	58 43       	mov.b	#1,	r8	;r3 As==01
    7e4a:	06 93       	tst	r6		
    7e4c:	01 24       	jz	$+4      	;abs 0x7e50
    7e4e:	48 43       	clr.b	r8		
    7e50:	18 f3       	and	#1,	r8	;r3 As==01
    7e52:	77 40 07 00 	mov.b	#7,	r7	;#0x0007
    7e56:	08 58       	rla	r8		
    7e58:	77 53       	add.b	#-1,	r7	;r3 As==11
    7e5a:	fd 23       	jnz	$-4      	;abs 0x7e56
    7e5c:	3d f0 7f ff 	and	#-129,	r13	;#0xff7f
    7e60:	0d d8       	bis	r8,	r13	
    7e62:	5c 41 01 00 	mov.b	1(r1),	r12	;0x0001(r1)
    7e66:	0f 4c       	mov	r12,	r15	
    7e68:	8f 10       	swpb	r15		
    7e6a:	3d f0 ff f0 	and	#-3841,	r13	;#0xf0ff
    7e6e:	0d df       	bis	r15,	r13	
    7e70:	0c 4f       	mov	r15,	r12	
    7e72:	0c 5c       	rla	r12		
    7e74:	0c 5c       	rla	r12		
    7e76:	0c 5c       	rla	r12		
    7e78:	0c 5c       	rla	r12		
    7e7a:	3d f0 ff 0f 	and	#4095,	r13	;#0x0fff
    7e7e:	e2 42 c4 1b 	mov.b	#4,	&0x1bc4	;r2 As==10
    7e82:	82 45 2a 13 	mov	r5,	&0x132a	
    7e86:	82 49 50 16 	mov	r9,	&0x1650	
    7e8a:	82 43 88 12 	mov	#0,	&0x1288	;r3 As==00
    7e8e:	0f 4d       	mov	r13,	r15	
    7e90:	0f dc       	bis	r12,	r15	
    7e92:	b0 12 0e 48 	call	#0x480e	
    7e96:	0f 4a       	mov	r10,	r15	
    7e98:	b0 12 08 48 	call	#0x4808	
    7e9c:	0a 43       	clr	r10		
    7e9e:	35 53       	add	#-1,	r5	;r3 As==11
    7ea0:	04 3c       	jmp	$+10     	;abs 0x7eaa
    7ea2:	4f 4a       	mov.b	r10,	r15	
    7ea4:	b0 12 fa 47 	call	#0x47fa	
    7ea8:	1a 53       	inc	r10		
    7eaa:	4e 4b       	mov.b	r11,	r14	
    7eac:	0a 95       	cmp	r5,	r10	
    7eae:	03 2c       	jc	$+8      	;abs 0x7eb6
    7eb0:	3a 90 0f 00 	cmp	#15,	r10	;#0x000f
    7eb4:	f6 23       	jnz	$-18     	;abs 0x7ea2
    7eb6:	7e d0 80 ff 	bis.b	#-128,	r14	;#0xff80
    7eba:	4f 4a       	mov.b	r10,	r15	
    7ebc:	b0 12 fa 47 	call	#0x47fa	
    7ec0:	1c 43       	mov	#1,	r12	;r3 As==01
    7ec2:	7a f0 0f 00 	and.b	#15,	r10	;#0x000f
    7ec6:	4a 93       	tst.b	r10		
    7ec8:	03 24       	jz	$+8      	;abs 0x7ed0
    7eca:	0c 5c       	rla	r12		
    7ecc:	7a 53       	add.b	#-1,	r10	;r3 As==11
    7ece:	fb 3f       	jmp	$-8      	;abs 0x7ec6
    7ed0:	82 4c a6 01 	mov	r12,	&0x01a6	
    7ed4:	06 93       	tst	r6		
    7ed6:	23 24       	jz	$+72     	;abs 0x7f1e
    7ed8:	f2 d0 40 00 c4 1b 	bis.b	#64,	&0x1bc4	;#0x0040
    7ede:	0f 43       	clr	r15		
    7ee0:	b0 12 d0 47 	call	#0x47d0	
    7ee4:	a2 d2 60 01 	bis	#4,	&0x0160	;r2 As==10
    7ee8:	b2 f0 fd ff 60 01 	and	#-3,	&0x0160	;#0xfffd
    7eee:	1d 42 60 01 	mov	&0x0160,r13	
    7ef2:	3d f0 ff fc 	and	#-769,	r13	;#0xfcff
    7ef6:	3d d0 00 02 	bis	#512,	r13	;#0x0200
    7efa:	82 4d 60 01 	mov	r13,	&0x0160	
    7efe:	b2 f0 3f ff 60 01 	and	#-193,	&0x0160	;#0xff3f
    7f04:	82 43 62 01 	mov	#0,	&0x0162	;r3 As==00
    7f08:	0d 46       	mov	r6,	r13	
    7f0a:	3d 53       	add	#-1,	r13	;r3 As==11
    7f0c:	82 4d 72 01 	mov	r13,	&0x0172	
    7f10:	12 c3       	clrc			
    7f12:	0d 10       	rrc	r13		
    7f14:	82 4d 74 01 	mov	r13,	&0x0174	
    7f18:	02 3c       	jmp	$+6      	;abs 0x7f1e
    7f1a:	7b 42       	mov.b	#8,	r11	;r2 As==11
    7f1c:	01 3c       	jmp	$+4      	;abs 0x7f20
    7f1e:	4b 43       	clr.b	r11		
    7f20:	5f 41 02 00 	mov.b	2(r1),	r15	;0x0002(r1)
    7f24:	b0 12 c4 5f 	call	#0x5fc4	
    7f28:	4b 93       	tst.b	r11		
    7f2a:	04 20       	jnz	$+10     	;abs 0x7f34
    7f2c:	5f 43       	mov.b	#1,	r15	;r3 As==01
    7f2e:	b0 12 d0 7b 	call	#0x7bd0	
    7f32:	1e 3c       	jmp	$+62     	;abs 0x7f70
    7f34:	1a 42 06 1d 	mov	&0x1d06,r10	
    7f38:	1b 42 8e 12 	mov	&0x128e,r11	
    7f3c:	2a 92       	cmp	#4,	r10	;r2 As==10
    7f3e:	14 28       	jnc	$+42     	;abs 0x7f68
    7f40:	b0 12 b2 5f 	call	#0x5fb2	
    7f44:	4e 44       	mov.b	r4,	r14	
    7f46:	0e 5e       	rla	r14		
    7f48:	3e 50 f8 24 	add	#9464,	r14	;#0x24f8
    7f4c:	2d 4e       	mov	@r14,	r13	
    7f4e:	0d 93       	tst	r13		
    7f50:	09 24       	jz	$+20     	;abs 0x7f64
    7f52:	8b 4a 00 00 	mov	r10,	0(r11)	;0x0000(r11)
    7f56:	8b 43 02 00 	mov	#0,	2(r11)	;r3 As==00, 0x0002(r11)
    7f5a:	8d 4b 00 00 	mov	r11,	0(r13)	;0x0000(r13)
    7f5e:	2b 53       	incd	r11		
    7f60:	8e 4b 00 00 	mov	r11,	0(r14)	;0x0000(r14)
    7f64:	b0 12 c4 5f 	call	#0x5fc4	
    7f68:	7f 40 1f 00 	mov.b	#31,	r15	;#0x001f
    7f6c:	b0 12 8a 63 	call	#0x638a	
    7f70:	21 52       	add	#4,	r1	;r2 As==10
    7f72:	34 41       	pop	r4		
    7f74:	35 41       	pop	r5		
    7f76:	36 41       	pop	r6		
    7f78:	37 41       	pop	r7		
    7f7a:	38 41       	pop	r8		
    7f7c:	39 41       	pop	r9		
    7f7e:	3a 41       	pop	r10		
    7f80:	3b 41       	pop	r11		
    7f82:	30 41       	ret			

00007f84 <Msp430Adc12ImplP__SingleChannel__multipleDataReady.isra.240>:
    7f84:	0b 12       	push	r11		
    7f86:	0a 12       	push	r10		
    7f88:	5f 93       	cmp.b	#1,	r15	;r3 As==01
    7f8a:	33 20       	jnz	$+104    	;abs 0x7ff2
    7f8c:	82 93 de 15 	tst	&0x15de	
    7f90:	0a 24       	jz	$+22     	;abs 0x7fa6
    7f92:	5f 42 08 11 	mov.b	&0x1108,r15	
    7f96:	0f 5f       	rla	r15		
    7f98:	8f 43 f8 24 	mov	#0,	9464(r15);r3 As==00, 0x24f8(r15)
    7f9c:	7f 40 1f 00 	mov.b	#31,	r15	;#0x001f
    7fa0:	b0 12 8a 63 	call	#0x638a	
    7fa4:	26 3c       	jmp	$+78     	;abs 0x7ff2
    7fa6:	1e 42 48 24 	mov	&0x2448,r14	
    7faa:	82 4e de 15 	mov	r14,	&0x15de	
    7fae:	1c 42 8e 12 	mov	&0x128e,r12	
    7fb2:	0f 4c       	mov	r12,	r15	
    7fb4:	8f 10       	swpb	r15		
    7fb6:	8f 11       	sxt	r15		
    7fb8:	8f 10       	swpb	r15		
    7fba:	8f 11       	sxt	r15		
    7fbc:	0d 4f       	mov	r15,	r13	
    7fbe:	0a 4e       	mov	r14,	r10	
    7fc0:	0f 4e       	mov	r14,	r15	
    7fc2:	8f 10       	swpb	r15		
    7fc4:	8f 11       	sxt	r15		
    7fc6:	8f 10       	swpb	r15		
    7fc8:	8f 11       	sxt	r15		
    7fca:	0b 4f       	mov	r15,	r11	
    7fcc:	0e 4c       	mov	r12,	r14	
    7fce:	0f 4d       	mov	r13,	r15	
    7fd0:	0e 8a       	sub	r10,	r14	
    7fd2:	0f 7b       	subc	r11,	r15	
    7fd4:	0f 11       	rra	r15		
    7fd6:	0e 10       	rrc	r14		
    7fd8:	82 4e 1c 25 	mov	r14,	&0x251c	
    7fdc:	7f 40 20 00 	mov.b	#32,	r15	;#0x0020
    7fe0:	b0 12 8a 63 	call	#0x638a	
    7fe4:	4f 43       	clr.b	r15		
    7fe6:	b0 12 ca 7a 	call	#0x7aca	
    7fea:	4f 93       	tst.b	r15		
    7fec:	02 20       	jnz	$+6      	;abs 0x7ff2
    7fee:	b0 12 20 7d 	call	#0x7d20	
    7ff2:	0f 43       	clr	r15		
    7ff4:	3a 41       	pop	r10		
    7ff6:	3b 41       	pop	r11		
    7ff8:	30 41       	ret			

00007ffa <Msp430SpiNoDmaP__0__continueOp>:
    7ffa:	0b 12       	push	r11		
    7ffc:	b0 12 b2 5f 	call	#0x5fb2	
    8000:	1d 42 e8 15 	mov	&0x15e8,r13	
    8004:	1e 42 0e 25 	mov	&0x250e,r14	
    8008:	0d 93       	tst	r13		
    800a:	03 24       	jz	$+8      	;abs 0x8012
    800c:	0d 5e       	add	r14,	r13	
    800e:	6d 4d       	mov.b	@r13,	r13	
    8010:	01 3c       	jmp	$+4      	;abs 0x8014
    8012:	4d 43       	clr.b	r13		
    8014:	c2 4d 77 00 	mov.b	r13,	&0x0077	
    8018:	6e 53       	incd.b	r14		
    801a:	1d 42 18 25 	mov	&0x2518,r13	
    801e:	4c 4e       	mov.b	r14,	r12	
    8020:	0d 9c       	cmp	r12,	r13	
    8022:	1c 2c       	jc	$+58     	;abs 0x805c
    8024:	4e 4d       	mov.b	r13,	r14	
    8026:	1a 3c       	jmp	$+54     	;abs 0x805c
    8028:	5d 42 02 00 	mov.b	&0x0002,r13	
    802c:	3d f0 40 00 	and	#64,	r13	;#0x0040
    8030:	fb 27       	jz	$-8      	;abs 0x8028
    8032:	5b 42 76 00 	mov.b	&0x0076,r11	
    8036:	1d 42 9e 1c 	mov	&0x1c9e,r13	
    803a:	0d 93       	tst	r13		
    803c:	03 24       	jz	$+8      	;abs 0x8044
    803e:	0c 5d       	add	r13,	r12	
    8040:	cc 4b 00 00 	mov.b	r11,	0(r12)	;0x0000(r12)
    8044:	1d 42 e8 15 	mov	&0x15e8,r13	
    8048:	0d 93       	tst	r13		
    804a:	04 24       	jz	$+10     	;abs 0x8054
    804c:	1d 52 0e 25 	add	&0x250e,r13	
    8050:	6d 4d       	mov.b	@r13,	r13	
    8052:	01 3c       	jmp	$+4      	;abs 0x8056
    8054:	4d 43       	clr.b	r13		
    8056:	c2 4d 77 00 	mov.b	r13,	&0x0077	
    805a:	01 3c       	jmp	$+4      	;abs 0x805e
    805c:	4e 4e       	mov.b	r14,	r14	
    805e:	1c 42 0e 25 	mov	&0x250e,r12	
    8062:	0d 4c       	mov	r12,	r13	
    8064:	1d 53       	inc	r13		
    8066:	82 4d 0e 25 	mov	r13,	&0x250e	
    806a:	0d 9e       	cmp	r14,	r13	
    806c:	dd 2b       	jnc	$-68     	;abs 0x8028
    806e:	b0 12 c4 5f 	call	#0x5fc4	
    8072:	3b 41       	pop	r11		
    8074:	30 41       	ret			

00008076 <CC2420SpiP__WorkingState__isIdle>:
    8076:	0b 12       	push	r11		
    8078:	b0 12 b2 5f 	call	#0x5fb2	
    807c:	5b 43       	mov.b	#1,	r11	;r3 As==01
    807e:	c2 93 28 1d 	tst.b	&0x1d28	
    8082:	01 24       	jz	$+4      	;abs 0x8086
    8084:	4b 43       	clr.b	r11		
    8086:	b0 12 c4 5f 	call	#0x5fc4	
    808a:	4f 4b       	mov.b	r11,	r15	
    808c:	3b 41       	pop	r11		
    808e:	30 41       	ret			

00008090 <CC2420SpiP__Strobe__strobe>:
    8090:	0b 12       	push	r11		
    8092:	0a 12       	push	r10		
    8094:	4a 4f       	mov.b	r15,	r10	
    8096:	b0 12 b2 5f 	call	#0x5fb2	
    809a:	4b 4f       	mov.b	r15,	r11	
    809c:	b0 12 76 80 	call	#0x8076	
    80a0:	4f 93       	tst.b	r15		
    80a2:	05 24       	jz	$+12     	;abs 0x80ae
    80a4:	4f 4b       	mov.b	r11,	r15	
    80a6:	b0 12 c4 5f 	call	#0x5fc4	
    80aa:	4f 43       	clr.b	r15		
    80ac:	06 3c       	jmp	$+14     	;abs 0x80ba
    80ae:	4f 4b       	mov.b	r11,	r15	
    80b0:	b0 12 c4 5f 	call	#0x5fc4	
    80b4:	4f 4a       	mov.b	r10,	r15	
    80b6:	b0 12 7c 4a 	call	#0x4a7c	
    80ba:	3a 41       	pop	r10		
    80bc:	3b 41       	pop	r11		
    80be:	30 41       	ret			

000080c0 <CC2420CsmaP__SplitControlState__isState>:
    80c0:	0b 12       	push	r11		
    80c2:	0a 12       	push	r10		
    80c4:	4a 4f       	mov.b	r15,	r10	
    80c6:	b0 12 b2 5f 	call	#0x5fb2	
    80ca:	5b 43       	mov.b	#1,	r11	;r3 As==01
    80cc:	5a 92 29 1d 	cmp.b	&0x1d29,r10	
    80d0:	01 24       	jz	$+4      	;abs 0x80d4
    80d2:	4b 43       	clr.b	r11		
    80d4:	b0 12 c4 5f 	call	#0x5fc4	
    80d8:	4f 4b       	mov.b	r11,	r15	
    80da:	3a 41       	pop	r10		
    80dc:	3b 41       	pop	r11		
    80de:	30 41       	ret			

000080e0 <Msp430GpioC__5__GeneralIO__clr>:
    80e0:	b0 12 b2 5f 	call	#0x5fb2	
    80e4:	f2 f0 fb ff 1d 00 	and.b	#-5,	&0x001d	;#0xfffb
    80ea:	b0 12 c4 5f 	call	#0x5fc4	
    80ee:	30 41       	ret			

000080f0 <Msp430SpiNoDmaP__0__SpiPacket__send.part.242>:
    80f0:	b0 12 b2 5f 	call	#0x5fb2	
    80f4:	f2 f0 bf ff 02 00 	and.b	#-65,	&0x0002	;#0xffbf
    80fa:	f2 d0 40 00 00 00 	bis.b	#64,	&0x0000	;#0x0040
    8100:	b0 12 c4 5f 	call	#0x5fc4	
    8104:	b0 12 fa 7f 	call	#0x7ffa	
    8108:	30 41       	ret			

0000810a <CC2420ReceiveP__RXFIFO__continueRead>:
    810a:	4e 4e       	mov.b	r14,	r14	
    810c:	c2 43 4a 16 	mov.b	#0,	&0x164a	;r3 As==00
    8110:	82 43 e8 15 	mov	#0,	&0x15e8	;r3 As==00
    8114:	82 4f 9e 1c 	mov	r15,	&0x1c9e	
    8118:	82 4e 18 25 	mov	r14,	&0x2518	
    811c:	82 43 0e 25 	mov	#0,	&0x250e	;r3 As==00
    8120:	0e 93       	tst	r14		
    8122:	03 24       	jz	$+8      	;abs 0x812a
    8124:	b0 12 f0 80 	call	#0x80f0	
    8128:	03 3c       	jmp	$+8      	;abs 0x8130
    812a:	7f 42       	mov.b	#8,	r15	;r2 As==11
    812c:	b0 12 8a 63 	call	#0x638a	
    8130:	4f 43       	clr.b	r15		
    8132:	30 41       	ret			

00008134 <Stm25pSpiP__SpiPacket__send>:
    8134:	d2 43 4a 16 	mov.b	#1,	&0x164a	;r3 As==01
    8138:	82 4f e8 15 	mov	r15,	&0x15e8	
    813c:	82 4e 9e 1c 	mov	r14,	&0x1c9e	
    8140:	82 4d 18 25 	mov	r13,	&0x2518	
    8144:	82 43 0e 25 	mov	#0,	&0x250e	;r3 As==00
    8148:	0d 93       	tst	r13		
    814a:	03 24       	jz	$+8      	;abs 0x8152
    814c:	b0 12 f0 80 	call	#0x80f0	
    8150:	03 3c       	jmp	$+8      	;abs 0x8158
    8152:	7f 42       	mov.b	#8,	r15	;r2 As==11
    8154:	b0 12 8a 63 	call	#0x638a	
    8158:	4f 43       	clr.b	r15		
    815a:	30 41       	ret			

0000815c <CC2420ReceiveP__RXFIFO__beginRead>:
    815c:	0b 12       	push	r11		
    815e:	0a 12       	push	r10		
    8160:	09 12       	push	r9		
    8162:	0a 4f       	mov	r15,	r10	
    8164:	49 4e       	mov.b	r14,	r9	
    8166:	b0 12 b2 5f 	call	#0x5fb2	
    816a:	4b 4f       	mov.b	r15,	r11	
    816c:	b0 12 76 80 	call	#0x8076	
    8170:	4f 93       	tst.b	r15		
    8172:	05 24       	jz	$+12     	;abs 0x817e
    8174:	4f 4b       	mov.b	r11,	r15	
    8176:	b0 12 c4 5f 	call	#0x5fc4	
    817a:	4b 43       	clr.b	r11		
    817c:	1e 3c       	jmp	$+62     	;abs 0x81ba
    817e:	4f 4b       	mov.b	r11,	r15	
    8180:	b0 12 c4 5f 	call	#0x5fc4	
    8184:	b2 40 7f 00 4c 16 	mov	#127,	&0x164c	;#0x007f
    818a:	7f 40 7f 00 	mov.b	#127,	r15	;#0x007f
    818e:	b0 12 7c 4a 	call	#0x4a7c	
    8192:	4b 4f       	mov.b	r15,	r11	
    8194:	4e 49       	mov.b	r9,	r14	
    8196:	c2 43 4a 16 	mov.b	#0,	&0x164a	;r3 As==00
    819a:	82 43 e8 15 	mov	#0,	&0x15e8	;r3 As==00
    819e:	82 4a 9e 1c 	mov	r10,	&0x1c9e	
    81a2:	82 4e 18 25 	mov	r14,	&0x2518	
    81a6:	82 43 0e 25 	mov	#0,	&0x250e	;r3 As==00
    81aa:	0e 93       	tst	r14		
    81ac:	03 24       	jz	$+8      	;abs 0x81b4
    81ae:	b0 12 f0 80 	call	#0x80f0	
    81b2:	03 3c       	jmp	$+8      	;abs 0x81ba
    81b4:	7f 42       	mov.b	#8,	r15	;r2 As==11
    81b6:	b0 12 8a 63 	call	#0x638a	
    81ba:	4f 4b       	mov.b	r11,	r15	
    81bc:	39 41       	pop	r9		
    81be:	3a 41       	pop	r10		
    81c0:	3b 41       	pop	r11		
    81c2:	30 41       	ret			

000081c4 <CC2420ReceiveP__receive>:
    81c4:	b0 12 e0 80 	call	#0x80e0	
    81c8:	5e 43       	mov.b	#1,	r14	;r3 As==01
    81ca:	1f 42 2c 12 	mov	&0x122c,r15	
    81ce:	b0 12 5c 81 	call	#0x815c	
    81d2:	30 41       	ret			

000081d4 <ArbiterP__0__Resource__release>:
    81d4:	0b 12       	push	r11		
    81d6:	0a 12       	push	r10		
    81d8:	09 12       	push	r9		
    81da:	49 4f       	mov.b	r15,	r9	
    81dc:	b0 12 b2 5f 	call	#0x5fb2	
    81e0:	4a 4f       	mov.b	r15,	r10	
    81e2:	f2 90 03 00 00 12 	cmp.b	#3,	&0x1200	;#0x0003
    81e8:	2b 20       	jnz	$+88     	;abs 0x8240
    81ea:	5b 42 96 11 	mov.b	&0x1196,r11	
    81ee:	4b 99       	cmp.b	r9,	r11	
    81f0:	27 20       	jnz	$+80     	;abs 0x8240
    81f2:	5d 42 98 11 	mov.b	&0x1198,r13	
    81f6:	7d 93       	cmp.b	#-1,	r13	;r3 As==11
    81f8:	17 24       	jz	$+48     	;abs 0x8228
    81fa:	4e 4d       	mov.b	r13,	r14	
    81fc:	3e 50 ee 15 	add	#5614,	r14	;#0x15ee
    8200:	6f 4e       	mov.b	@r14,	r15	
    8202:	c2 4f 98 11 	mov.b	r15,	&0x1198	
    8206:	7f 93       	cmp.b	#-1,	r15	;r3 As==11
    8208:	02 20       	jnz	$+6      	;abs 0x820e
    820a:	f2 43 97 11 	mov.b	#-1,	&0x1197	;r3 As==11
    820e:	fe 43 00 00 	mov.b	#-1,	0(r14)	;r3 As==11, 0x0000(r14)
    8212:	c2 4d 54 1d 	mov.b	r13,	&0x1d54	
    8216:	f2 43 96 11 	mov.b	#-1,	&0x1196	;r3 As==11
    821a:	d2 43 00 12 	mov.b	#1,	&0x1200	;r3 As==01
    821e:	7f 40 09 00 	mov.b	#9,	r15	;#0x0009
    8222:	b0 12 8a 63 	call	#0x638a	
    8226:	04 3c       	jmp	$+10     	;abs 0x8230
    8228:	e2 43 96 11 	mov.b	#2,	&0x1196	;r3 As==10
    822c:	c2 43 00 12 	mov.b	#0,	&0x1200	;r3 As==00
    8230:	4f 4b       	mov.b	r11,	r15	
    8232:	b0 12 82 4f 	call	#0x4f82	
    8236:	4f 4a       	mov.b	r10,	r15	
    8238:	b0 12 c4 5f 	call	#0x5fc4	
    823c:	4f 43       	clr.b	r15		
    823e:	04 3c       	jmp	$+10     	;abs 0x8248
    8240:	4f 4a       	mov.b	r10,	r15	
    8242:	b0 12 c4 5f 	call	#0x5fc4	
    8246:	5f 43       	mov.b	#1,	r15	;r3 As==01
    8248:	39 41       	pop	r9		
    824a:	3a 41       	pop	r10		
    824c:	3b 41       	pop	r11		
    824e:	30 41       	ret			

00008250 <Msp430SpiNoDmaP__0__Resource__release>:
    8250:	4f 93       	tst.b	r15		
    8252:	02 24       	jz	$+6      	;abs 0x8258
    8254:	5f 93       	cmp.b	#1,	r15	;r3 As==01
    8256:	03 20       	jnz	$+8      	;abs 0x825e
    8258:	b0 12 d4 81 	call	#0x81d4	
    825c:	30 41       	ret			
    825e:	5f 43       	mov.b	#1,	r15	;r3 As==01
    8260:	30 41       	ret			

00008262 <CC2420SpiP__attemptRelease>:
    8262:	c2 93 02 12 	tst.b	&0x1202	
    8266:	16 20       	jnz	$+46     	;abs 0x8294
    8268:	f2 93 99 11 	cmp.b	#-1,	&0x1199	;r3 As==11
    826c:	13 20       	jnz	$+40     	;abs 0x8294
    826e:	b0 12 76 80 	call	#0x8076	
    8272:	4f 93       	tst.b	r15		
    8274:	0f 24       	jz	$+32     	;abs 0x8294
    8276:	d2 43 f8 23 	mov.b	#1,	&0x23f8	;r3 As==01
    827a:	c2 93 32 13 	tst.b	&0x1332	
    827e:	02 24       	jz	$+6      	;abs 0x8284
    8280:	c2 43 f8 23 	mov.b	#0,	&0x23f8	;r3 As==00
    8284:	c2 93 f8 23 	tst.b	&0x23f8	
    8288:	07 24       	jz	$+16     	;abs 0x8298
    828a:	4f 43       	clr.b	r15		
    828c:	b0 12 50 82 	call	#0x8250	
    8290:	4f 43       	clr.b	r15		
    8292:	30 41       	ret			
    8294:	5f 43       	mov.b	#1,	r15	;r3 As==01
    8296:	30 41       	ret			
    8298:	7f 40 05 00 	mov.b	#5,	r15	;#0x0005
    829c:	30 41       	ret			

0000829e <CC2420TransmitP__Send__sendDone.isra.251>:
    829e:	0b 12       	push	r11		
    82a0:	4b 4f       	mov.b	r15,	r11	
    82a2:	b0 12 b2 5f 	call	#0x5fb2	
    82a6:	c2 4b fc 11 	mov.b	r11,	&0x11fc	
    82aa:	b0 12 c4 5f 	call	#0x5fc4	
    82ae:	7f 40 0f 00 	mov.b	#15,	r15	;#0x000f
    82b2:	b0 12 8a 63 	call	#0x638a	
    82b6:	3b 41       	pop	r11		
    82b8:	30 41       	ret			

000082ba <CC2420TransmitP__signalDone>:
    82ba:	0b 12       	push	r11		
    82bc:	4b 4f       	mov.b	r15,	r11	
    82be:	92 43 fa 11 	mov	#1,	&0x11fa	;r3 As==01
    82c2:	c2 43 32 13 	mov.b	#0,	&0x1332	;r3 As==00
    82c6:	b0 12 62 82 	call	#0x8262	
    82ca:	4f 4b       	mov.b	r11,	r15	
    82cc:	b0 12 9e 82 	call	#0x829e	
    82d0:	3b 41       	pop	r11		
    82d2:	30 41       	ret			

000082d4 <ArbiterP__0__ResourceDefaultOwner__release>:
    82d4:	0b 12       	push	r11		
    82d6:	b0 12 b2 5f 	call	#0x5fb2	
    82da:	4b 4f       	mov.b	r15,	r11	
    82dc:	e2 93 96 11 	cmp.b	#2,	&0x1196	;r3 As==10
    82e0:	16 20       	jnz	$+46     	;abs 0x830e
    82e2:	5e 42 00 12 	mov.b	&0x1200,r14	
    82e6:	5e 93       	cmp.b	#1,	r14	;r3 As==01
    82e8:	06 20       	jnz	$+14     	;abs 0x82f6
    82ea:	7f 40 09 00 	mov.b	#9,	r15	;#0x0009
    82ee:	b0 12 8a 63 	call	#0x638a	
    82f2:	4f 4b       	mov.b	r11,	r15	
    82f4:	08 3c       	jmp	$+18     	;abs 0x8306
    82f6:	6e 93       	cmp.b	#2,	r14	;r3 As==10
    82f8:	0a 20       	jnz	$+22     	;abs 0x830e
    82fa:	d2 42 54 1d 96 11 	mov.b	&0x1d54,&0x1196	
    8300:	f2 40 03 00 00 12 	mov.b	#3,	&0x1200	;#0x0003
    8306:	b0 12 c4 5f 	call	#0x5fc4	
    830a:	4f 43       	clr.b	r15		
    830c:	04 3c       	jmp	$+10     	;abs 0x8316
    830e:	4f 4b       	mov.b	r11,	r15	
    8310:	b0 12 c4 5f 	call	#0x5fc4	
    8314:	5f 43       	mov.b	#1,	r15	;r3 As==01
    8316:	3b 41       	pop	r11		
    8318:	30 41       	ret			

0000831a <StateImplP__State__toIdle>:
    831a:	0b 12       	push	r11		
    831c:	4b 4f       	mov.b	r15,	r11	
    831e:	b0 12 b2 5f 	call	#0x5fb2	
    8322:	4e 4b       	mov.b	r11,	r14	
    8324:	ce 43 28 1d 	mov.b	#0,	7464(r14);r3 As==00, 0x1d28(r14)
    8328:	b0 12 c4 5f 	call	#0x5fc4	
    832c:	3b 41       	pop	r11		
    832e:	30 41       	ret			

00008330 <ArbiterP__0__Resource__request>:
    8330:	0b 12       	push	r11		
    8332:	4b 4f       	mov.b	r15,	r11	
    8334:	b0 12 b2 5f 	call	#0x5fb2	
    8338:	4d 4f       	mov.b	r15,	r13	
    833a:	c2 93 00 12 	tst.b	&0x1200	
    833e:	09 20       	jnz	$+20     	;abs 0x8352
    8340:	d2 43 00 12 	mov.b	#1,	&0x1200	;r3 As==01
    8344:	c2 4b 54 1d 	mov.b	r11,	&0x1d54	
    8348:	b0 12 c4 5f 	call	#0x5fc4	
    834c:	b0 12 d4 82 	call	#0x82d4	
    8350:	05 3c       	jmp	$+12     	;abs 0x835c
    8352:	c2 9b 54 1d 	cmp.b	r11,	&0x1d54	
    8356:	04 20       	jnz	$+10     	;abs 0x8360
    8358:	b0 12 c4 5f 	call	#0x5fc4	
    835c:	4f 43       	clr.b	r15		
    835e:	1f 3c       	jmp	$+64     	;abs 0x839e
    8360:	4f 4b       	mov.b	r11,	r15	
    8362:	1e 43       	mov	#1,	r14	;r3 As==01
    8364:	ff 93 ee 15 	cmp.b	#-1,	5614(r15);r3 As==11, 0x15ee(r15)
    8368:	04 20       	jnz	$+10     	;abs 0x8372
    836a:	c2 9b 97 11 	cmp.b	r11,	&0x1197	
    836e:	01 24       	jz	$+4      	;abs 0x8372
    8370:	0e 43       	clr	r14		
    8372:	0e 93       	tst	r14		
    8374:	0e 20       	jnz	$+30     	;abs 0x8392
    8376:	f2 93 98 11 	cmp.b	#-1,	&0x1198	;r3 As==11
    837a:	03 20       	jnz	$+8      	;abs 0x8382
    837c:	c2 4b 98 11 	mov.b	r11,	&0x1198	
    8380:	04 3c       	jmp	$+10     	;abs 0x838a
    8382:	5f 42 97 11 	mov.b	&0x1197,r15	
    8386:	cf 4b ee 15 	mov.b	r11,	5614(r15);0x15ee(r15)
    838a:	c2 4b 97 11 	mov.b	r11,	&0x1197	
    838e:	4b 43       	clr.b	r11		
    8390:	02 3c       	jmp	$+6      	;abs 0x8396
    8392:	7b 40 05 00 	mov.b	#5,	r11	;#0x0005
    8396:	4f 4d       	mov.b	r13,	r15	
    8398:	b0 12 c4 5f 	call	#0x5fc4	
    839c:	4f 4b       	mov.b	r11,	r15	
    839e:	3b 41       	pop	r11		
    83a0:	30 41       	ret			

000083a2 <Msp430SpiNoDmaP__0__Resource__request>:
    83a2:	4f 93       	tst.b	r15		
    83a4:	02 24       	jz	$+6      	;abs 0x83aa
    83a6:	5f 93       	cmp.b	#1,	r15	;r3 As==01
    83a8:	03 20       	jnz	$+8      	;abs 0x83b0
    83aa:	b0 12 30 83 	call	#0x8330	
    83ae:	30 41       	ret			
    83b0:	5f 43       	mov.b	#1,	r15	;r3 As==01
    83b2:	30 41       	ret			

000083b4 <Stm25pSpiP__releaseAndRequest>:
    83b4:	5f 43       	mov.b	#1,	r15	;r3 As==01
    83b6:	b0 12 50 82 	call	#0x8250	
    83ba:	5f 43       	mov.b	#1,	r15	;r3 As==01
    83bc:	b0 12 a2 83 	call	#0x83a2	
    83c0:	30 41       	ret			

000083c2 <Msp430GpioC__5__GeneralIO__set>:
    83c2:	b0 12 b2 5f 	call	#0x5fb2	
    83c6:	e2 d2 1d 00 	bis.b	#4,	&0x001d	;r2 As==10
    83ca:	b0 12 c4 5f 	call	#0x5fc4	
    83ce:	30 41       	ret			

000083d0 <CC2420SpiP__Resource__release>:
    83d0:	0b 12       	push	r11		
    83d2:	0a 12       	push	r10		
    83d4:	09 12       	push	r9		
    83d6:	4b 4f       	mov.b	r15,	r11	
    83d8:	b0 12 b2 5f 	call	#0x5fb2	
    83dc:	4a 4f       	mov.b	r15,	r10	
    83de:	c2 9b 99 11 	cmp.b	r11,	&0x1199	
    83e2:	04 24       	jz	$+10     	;abs 0x83ec
    83e4:	b0 12 c4 5f 	call	#0x5fc4	
    83e8:	5f 43       	mov.b	#1,	r15	;r3 As==01
    83ea:	49 3c       	jmp	$+148    	;abs 0x847e
    83ec:	f2 43 99 11 	mov.b	#-1,	&0x1199	;r3 As==11
    83f0:	5b 42 02 12 	mov.b	&0x1202,r11	
    83f4:	4b 93       	tst.b	r11		
    83f6:	06 20       	jnz	$+14     	;abs 0x8404
    83f8:	4f 43       	clr.b	r15		
    83fa:	b0 12 1a 83 	call	#0x831a	
    83fe:	b0 12 62 82 	call	#0x8262	
    8402:	35 3c       	jmp	$+108    	;abs 0x846e
    8404:	4c 43       	clr.b	r12		
    8406:	49 4b       	mov.b	r11,	r9	
    8408:	02 12       	push	r2		
    840a:	32 c2       	dint			
    840c:	03 43       	nop			
    840e:	c2 4c 30 01 	mov.b	r12,	&0x0130	
    8412:	f2 40 cd ff 38 01 	mov.b	#-51,	&0x0138	;#0xffcd
    8418:	1e 42 3a 01 	mov	&0x013a,r14	
    841c:	32 41       	pop	r2		
    841e:	8e 10       	swpb	r14		
    8420:	12 c3       	clrc			
    8422:	4e 10       	rrc.b	r14		
    8424:	12 c3       	clrc			
    8426:	4e 10       	rrc.b	r14		
    8428:	4d 4e       	mov.b	r14,	r13	
    842a:	4d 5d       	rla.b	r13		
    842c:	4d 5d       	rla.b	r13		
    842e:	4e 5d       	add.b	r13,	r14	
    8430:	4c 8e       	sub.b	r14,	r12	
    8432:	4e 4c       	mov.b	r12,	r14	
    8434:	4f 4c       	mov.b	r12,	r15	
    8436:	0d 49       	mov	r9,	r13	
    8438:	7c f0 0f 00 	and.b	#15,	r12	;#0x000f
    843c:	4c 93       	tst.b	r12		
    843e:	03 24       	jz	$+8      	;abs 0x8446
    8440:	0d 11       	rra	r13		
    8442:	7c 53       	add.b	#-1,	r12	;r3 As==11
    8444:	fb 3f       	jmp	$-8      	;abs 0x843c
    8446:	1d f3       	and	#1,	r13	;r3 As==01
    8448:	17 24       	jz	$+48     	;abs 0x8478
    844a:	c2 4e 99 11 	mov.b	r14,	&0x1199	
    844e:	1e 43       	mov	#1,	r14	;r3 As==01
    8450:	4d 4f       	mov.b	r15,	r13	
    8452:	7d f0 0f 00 	and.b	#15,	r13	;#0x000f
    8456:	4d 93       	tst.b	r13		
    8458:	03 24       	jz	$+8      	;abs 0x8460
    845a:	0e 5e       	rla	r14		
    845c:	7d 53       	add.b	#-1,	r13	;r3 As==11
    845e:	fb 3f       	jmp	$-8      	;abs 0x8456
    8460:	4b ce       	bic.b	r14,	r11	
    8462:	c2 4b 02 12 	mov.b	r11,	&0x1202	
    8466:	7f 40 07 00 	mov.b	#7,	r15	;#0x0007
    846a:	b0 12 8a 63 	call	#0x638a	
    846e:	4f 4a       	mov.b	r10,	r15	
    8470:	b0 12 c4 5f 	call	#0x5fc4	
    8474:	4f 43       	clr.b	r15		
    8476:	03 3c       	jmp	$+8      	;abs 0x847e
    8478:	4c 4e       	mov.b	r14,	r12	
    847a:	5c 53       	inc.b	r12		
    847c:	c5 3f       	jmp	$-116    	;abs 0x8408
    847e:	39 41       	pop	r9		
    8480:	3a 41       	pop	r10		
    8482:	3b 41       	pop	r11		
    8484:	30 41       	ret			

00008486 <CC2420TransmitP__releaseSpiResource>:
    8486:	7f 40 03 00 	mov.b	#3,	r15	;#0x0003
    848a:	b0 12 d0 83 	call	#0x83d0	
    848e:	4f 43       	clr.b	r15		
    8490:	30 41       	ret			

00008492 <RandomMlcgC__Random__rand32>:
    8492:	0b 12       	push	r11		
    8494:	0a 12       	push	r10		
    8496:	09 12       	push	r9		
    8498:	08 12       	push	r8		
    849a:	07 12       	push	r7		
    849c:	06 12       	push	r6		
    849e:	05 12       	push	r5		
    84a0:	b0 12 b2 5f 	call	#0x5fb2	
    84a4:	45 4f       	mov.b	r15,	r5	
    84a6:	3c 40 4e 83 	mov	#-31922,r12	;#0x834e
    84aa:	0d 43       	clr	r13		
    84ac:	1e 42 d8 15 	mov	&0x15d8,r14	
    84b0:	1f 42 da 15 	mov	&0x15da,r15	
    84b4:	b0 12 bc e6 	call	#0xe6bc	
    84b8:	07 4d       	mov	r13,	r7	
    84ba:	08 4e       	mov	r14,	r8	
    84bc:	09 4f       	mov	r15,	r9	
    84be:	0e 4c       	mov	r12,	r14	
    84c0:	0f 47       	mov	r7,	r15	
    84c2:	12 c3       	clrc			
    84c4:	0f 10       	rrc	r15		
    84c6:	0e 10       	rrc	r14		
    84c8:	08 5e       	add	r14,	r8	
    84ca:	09 6f       	addc	r15,	r9	
    84cc:	09 93       	tst	r9		
    84ce:	05 34       	jge	$+12     	;abs 0x84da
    84d0:	38 f3       	and	#-1,	r8	;r3 As==11
    84d2:	39 f0 ff 7f 	and	#32767,	r9	;#0x7fff
    84d6:	18 53       	inc	r8		
    84d8:	09 63       	adc	r9		
    84da:	82 48 d8 15 	mov	r8,	&0x15d8	
    84de:	82 49 da 15 	mov	r9,	&0x15da	
    84e2:	4f 45       	mov.b	r5,	r15	
    84e4:	b0 12 c4 5f 	call	#0x5fc4	
    84e8:	0e 48       	mov	r8,	r14	
    84ea:	0f 49       	mov	r9,	r15	
    84ec:	35 41       	pop	r5		
    84ee:	36 41       	pop	r6		
    84f0:	37 41       	pop	r7		
    84f2:	38 41       	pop	r8		
    84f4:	39 41       	pop	r9		
    84f6:	3a 41       	pop	r10		
    84f8:	3b 41       	pop	r11		
    84fa:	30 41       	ret			

000084fc <RPLDAORoutingEngineP__0__RPLDAORouteInfo__startDAO>:
    84fc:	0b 12       	push	r11		
    84fe:	0a 12       	push	r10		
    8500:	09 12       	push	r9		
    8502:	1d 42 68 11 	mov	&0x1168,r13	
    8506:	1e 42 6a 11 	mov	&0x116a,r14	
    850a:	7f 40 09 00 	mov.b	#9,	r15	;#0x0009
    850e:	b0 12 f4 76 	call	#0x76f4	
    8512:	1a 42 6c 11 	mov	&0x116c,r10	
    8516:	1b 42 6e 11 	mov	&0x116e,r11	
    851a:	b0 12 92 84 	call	#0x8492	
    851e:	0f 4e       	mov	r14,	r15	
    8520:	3e 40 64 00 	mov	#100,	r14	;#0x0064
    8524:	b0 12 82 e7 	call	#0xe782	
    8528:	0c 4f       	mov	r15,	r12	
    852a:	0d 43       	clr	r13		
    852c:	0e 4d       	mov	r13,	r14	
    852e:	0d 4c       	mov	r12,	r13	
    8530:	0d 5a       	add	r10,	r13	
    8532:	0e 6b       	addc	r11,	r14	
    8534:	7f 40 07 00 	mov.b	#7,	r15	;#0x0007
    8538:	b0 12 98 77 	call	#0x7798	
    853c:	e2 b3 3a 1c 	bit.b	#2,	&0x1c3a	;r3 As==10
    8540:	0f 43       	clr	r15		
    8542:	0f 6f       	rlc	r15		
    8544:	4f 93       	tst.b	r15		
    8546:	20 20       	jnz	$+66     	;abs 0x8588
    8548:	b0 12 a0 5f 	call	#0x5fa0	
    854c:	1f 92 9e 11 	cmp	&0x119e,r15	
    8550:	1b 24       	jz	$+56     	;abs 0x8588
    8552:	b0 12 92 84 	call	#0x8492	
    8556:	09 4e       	mov	r14,	r9	
    8558:	1a 42 70 11 	mov	&0x1170,r10	
    855c:	1b 42 72 11 	mov	&0x1172,r11	
    8560:	3c 40 0a 00 	mov	#10,	r12	;#0x000a
    8564:	0d 43       	clr	r13		
    8566:	0e 4a       	mov	r10,	r14	
    8568:	0f 4b       	mov	r11,	r15	
    856a:	b0 12 c4 e7 	call	#0xe7c4	
    856e:	0c 4e       	mov	r14,	r12	
    8570:	0d 4f       	mov	r15,	r13	
    8572:	0e 49       	mov	r9,	r14	
    8574:	0f 43       	clr	r15		
    8576:	b0 12 fa e7 	call	#0xe7fa	
    857a:	0d 4e       	mov	r14,	r13	
    857c:	0e 4f       	mov	r15,	r14	
    857e:	0d 5a       	add	r10,	r13	
    8580:	0e 6b       	addc	r11,	r14	
    8582:	7f 42       	mov.b	#8,	r15	;r2 As==11
    8584:	b0 12 98 77 	call	#0x7798	
    8588:	4f 43       	clr.b	r15		
    858a:	39 41       	pop	r9		
    858c:	3a 41       	pop	r10		
    858e:	3b 41       	pop	r11		
    8590:	30 41       	ret			

00008592 <IPStackControlP__RoutingControl__start>:
    8592:	c2 93 da 11 	tst.b	&0x11da	
    8596:	1b 20       	jnz	$+56     	;abs 0x85ce
    8598:	7f 40 16 00 	mov.b	#22,	r15	;#0x0016
    859c:	b0 12 8a 63 	call	#0x638a	
    85a0:	82 43 04 1d 	mov	#0,	&0x1d04	;r3 As==00
    85a4:	3d 40 10 00 	mov	#16,	r13	;#0x0010
    85a8:	3e 40 f6 1c 	mov	#7414,	r14	;#0x1cf6
    85ac:	3f 40 fe 23 	mov	#9214,	r15	;#0x23fe
    85b0:	b0 12 1a e6 	call	#0xe61a	
    85b4:	3f 40 f2 13 	mov	#5106,	r15	;#0x13f2
    85b8:	cf 43 00 00 	mov.b	#0,	0(r15)	;r3 As==00, 0x0000(r15)
    85bc:	3f 50 18 00 	add	#24,	r15	;#0x0018
    85c0:	3f 90 d2 15 	cmp	#5586,	r15	;#0x15d2
    85c4:	f9 23       	jnz	$-12     	;abs 0x85b8
    85c6:	d2 43 e2 11 	mov.b	#1,	&0x11e2	;r3 As==01
    85ca:	d2 43 da 11 	mov.b	#1,	&0x11da	;r3 As==01
    85ce:	b0 12 fc 84 	call	#0x84fc	
    85d2:	d2 43 c4 11 	mov.b	#1,	&0x11c4	;r3 As==01
    85d6:	4f 43       	clr.b	r15		
    85d8:	30 41       	ret			

000085da <RPLRoutingEngineP__0__chooseAdvertiseTime.part.264>:
    85da:	0b 12       	push	r11		
    85dc:	0a 12       	push	r10		
    85de:	f2 f0 fd ff 12 1c 	and.b	#-3,	&0x1c12	;#0xfffd
    85e4:	92 42 2e 13 fa 24 	mov	&0x132e,&0x24fa	
    85ea:	92 42 30 13 fc 24 	mov	&0x1330,&0x24fc	
    85f0:	12 c3       	clrc			
    85f2:	12 10 fc 24 	rrc	&0x24fc	
    85f6:	12 10 fa 24 	rrc	&0x24fa	
    85fa:	b0 12 92 84 	call	#0x8492	
    85fe:	1a 42 fa 24 	mov	&0x24fa,r10	
    8602:	1b 42 fc 24 	mov	&0x24fc,r11	
    8606:	0c 4a       	mov	r10,	r12	
    8608:	0d 4b       	mov	r11,	r13	
    860a:	b0 12 fa e7 	call	#0xe7fa	
    860e:	0d 4e       	mov	r14,	r13	
    8610:	0e 4f       	mov	r15,	r14	
    8612:	0d 5a       	add	r10,	r13	
    8614:	0e 6b       	addc	r11,	r14	
    8616:	82 4d fa 24 	mov	r13,	&0x24fa	
    861a:	82 4e fc 24 	mov	r14,	&0x24fc	
    861e:	6f 42       	mov.b	#4,	r15	;r2 As==10
    8620:	b0 12 98 77 	call	#0x7798	
    8624:	3a 41       	pop	r10		
    8626:	3b 41       	pop	r11		
    8628:	30 41       	ret			

0000862a <RPLRoutingEngineP__0__RPLRouteInfo__resetTrickle>:
    862a:	f2 f0 fd ff 12 1c 	and.b	#-3,	&0x1c12	;#0xfffd
    8630:	2f 43       	mov	#2,	r15	;r3 As==10
    8632:	5e 42 7b 11 	mov.b	&0x117b,r14	
    8636:	7e 53       	add.b	#-1,	r14	;r3 As==11
    8638:	7e f0 0f 00 	and.b	#15,	r14	;#0x000f
    863c:	4e 93       	tst.b	r14		
    863e:	03 24       	jz	$+8      	;abs 0x8646
    8640:	0f 5f       	rla	r15		
    8642:	7e 53       	add.b	#-1,	r14	;r3 As==11
    8644:	fb 3f       	jmp	$-8      	;abs 0x863c
    8646:	82 4f 2e 13 	mov	r15,	&0x132e	
    864a:	8f 10       	swpb	r15		
    864c:	8f 11       	sxt	r15		
    864e:	8f 10       	swpb	r15		
    8650:	8f 11       	sxt	r15		
    8652:	82 4f 30 13 	mov	r15,	&0x1330	
    8656:	c2 43 7d 11 	mov.b	#0,	&0x117d	;r3 As==00
    865a:	c2 43 d2 11 	mov.b	#0,	&0x11d2	;r3 As==00
    865e:	c2 93 da 11 	tst.b	&0x11da	
    8662:	02 24       	jz	$+6      	;abs 0x8668
    8664:	b0 12 da 85 	call	#0x85da	
    8668:	30 41       	ret			

0000866a <RPLRankP__evictParent>:
    866a:	4f 4f       	mov.b	r15,	r15	
    866c:	02 12       	push	r2		
    866e:	32 c2       	dint			
    8670:	03 43       	nop			
    8672:	82 4f 32 01 	mov	r15,	&0x0132	
    8676:	b2 40 18 00 38 01 	mov	#24,	&0x0138	;#0x0018
    867c:	1f 42 3a 01 	mov	&0x013a,r15	
    8680:	32 41       	pop	r2		
    8682:	cf 43 f2 13 	mov.b	#0,	5106(r15);r3 As==00, 0x13f2(r15)
    8686:	5f 42 ea 11 	mov.b	&0x11ea,r15	
    868a:	7f 53       	add.b	#-1,	r15	;r3 As==11
    868c:	c2 4f ea 11 	mov.b	r15,	&0x11ea	
    8690:	02 20       	jnz	$+6      	;abs 0x8696
    8692:	b0 12 2a 86 	call	#0x862a	
    8696:	30 41       	ret			

00008698 <RPLRoutingEngineP__0__inconsistencyDetected>:
    8698:	92 53 ce 11 	inc	&0x11ce	
    869c:	c2 43 ea 11 	mov.b	#0,	&0x11ea	;r3 As==00
    86a0:	b2 43 66 11 	mov	#-1,	&0x1166	;r3 As==11
    86a4:	b2 43 64 11 	mov	#-1,	&0x1164	;r3 As==11
    86a8:	b2 43 8c 11 	mov	#-1,	&0x118c	;r3 As==11
    86ac:	b0 12 e6 4b 	call	#0x4be6	
    86b0:	b0 12 2a 86 	call	#0x862a	
    86b4:	30 41       	ret			

000086b6 <RPLOF0P__RPLOF__recomputeRoutes>:
    86b6:	0b 12       	push	r11		
    86b8:	0a 12       	push	r10		
    86ba:	09 12       	push	r9		
    86bc:	08 12       	push	r8		
    86be:	07 12       	push	r7		
    86c0:	06 12       	push	r6		
    86c2:	05 12       	push	r5		
    86c4:	3f 40 dc 13 	mov	#5084,	r15	;#0x13dc
    86c8:	0d 43       	clr	r13		
    86ca:	0d 3c       	jmp	$+28     	;abs 0x86e6
    86cc:	02 12       	push	r2		
    86ce:	32 c2       	dint			
    86d0:	03 43       	nop			
    86d2:	82 4d 32 01 	mov	r13,	&0x0132	
    86d6:	b2 40 18 00 38 01 	mov	#24,	&0x0138	;#0x0018
    86dc:	1f 42 3a 01 	mov	&0x013a,r15	
    86e0:	32 41       	pop	r2		
    86e2:	3f 50 dc 13 	add	#5084,	r15	;#0x13dc
    86e6:	4e 4d       	mov.b	r13,	r14	
    86e8:	cf 93 16 00 	tst.b	22(r15)	;0x0016(r15)
    86ec:	0a 20       	jnz	$+22     	;abs 0x8702
    86ee:	3d 90 14 00 	cmp	#20,	r13	;#0x0014
    86f2:	05 24       	jz	$+12     	;abs 0x86fe
    86f4:	1d 53       	inc	r13		
    86f6:	bf 93 10 00 	cmp	#-1,	16(r15)	;r3 As==11, 0x0010(r15)
    86fa:	e8 23       	jnz	$-46     	;abs 0x86cc
    86fc:	02 3c       	jmp	$+6      	;abs 0x8702
    86fe:	7e 40 14 00 	mov.b	#20,	r14	;#0x0014
    8702:	19 4f 14 00 	mov	20(r15),r9	;0x0014(r15)
    8706:	1f 4f 10 00 	mov	16(r15),r15	;0x0010(r15)
    870a:	7e 90 14 00 	cmp.b	#20,	r14	;#0x0014
    870e:	07 20       	jnz	$+16     	;abs 0x871e
    8710:	b2 43 66 11 	mov	#-1,	&0x1166	;r3 As==11
    8714:	b2 43 64 11 	mov	#-1,	&0x1164	;r3 As==11
    8718:	b0 12 98 86 	call	#0x8698	
    871c:	7d 3c       	jmp	$+252    	;abs 0x8818
    871e:	1a 42 62 11 	mov	&0x1162,r10	
    8722:	4d 4a       	mov.b	r10,	r13	
    8724:	02 12       	push	r2		
    8726:	32 c2       	dint			
    8728:	03 43       	nop			
    872a:	82 4d 32 01 	mov	r13,	&0x0132	
    872e:	b2 40 18 00 38 01 	mov	#24,	&0x0138	;#0x0018
    8734:	1c 42 3a 01 	mov	&0x013a,r12	
    8738:	32 41       	pop	r2		
    873a:	3c 50 dc 13 	add	#5084,	r12	;#0x13dc
    873e:	1b 4c 0e 00 	mov	14(r12),r11	;0x000e(r12)
    8742:	4d 4b       	mov.b	r11,	r13	
    8744:	8d 10       	swpb	r13		
    8746:	8b 10       	swpb	r11		
    8748:	4b 4b       	mov.b	r11,	r11	
    874a:	0d db       	bis	r11,	r13	
    874c:	0d 93       	tst	r13		
    874e:	0b 24       	jz	$+24     	;abs 0x8766
    8750:	1b 4c 10 00 	mov	16(r12),r11	;0x0010(r12)
    8754:	0b 5b       	rla	r11		
    8756:	0d 4b       	mov	r11,	r13	
    8758:	0d 5d       	rla	r13		
    875a:	0d 5d       	rla	r13		
    875c:	0d 5b       	add	r11,	r13	
    875e:	1d 5c 14 00 	add	20(r12),r13	;0x0014(r12)
    8762:	82 4d 64 11 	mov	r13,	&0x1164	
    8766:	0f 5f       	rla	r15		
    8768:	0d 4f       	mov	r15,	r13	
    876a:	0d 5d       	rla	r13		
    876c:	0d 5d       	rla	r13		
    876e:	0f 5d       	add	r13,	r15	
    8770:	0f 59       	add	r9,	r15	
    8772:	4d 4e       	mov.b	r14,	r13	
    8774:	0d 9a       	cmp	r10,	r13	
    8776:	02 20       	jnz	$+6      	;abs 0x877c
    8778:	82 4f 64 11 	mov	r15,	&0x1164	
    877c:	49 4e       	mov.b	r14,	r9	
    877e:	59 53       	inc.b	r9		
    8780:	15 42 66 11 	mov	&0x1166,r5	
    8784:	16 42 62 11 	mov	&0x1162,r6	
    8788:	1c 42 64 11 	mov	&0x1164,r12	
    878c:	2e 3c       	jmp	$+94     	;abs 0x87ea
    878e:	47 49       	mov.b	r9,	r7	
    8790:	02 12       	push	r2		
    8792:	32 c2       	dint			
    8794:	03 43       	nop			
    8796:	82 47 32 01 	mov	r7,	&0x0132	
    879a:	b2 40 18 00 38 01 	mov	#24,	&0x0138	;#0x0018
    87a0:	1b 42 3a 01 	mov	&0x013a,r11	
    87a4:	32 41       	pop	r2		
    87a6:	3b 50 dc 13 	add	#5084,	r11	;#0x13dc
    87aa:	cb 93 16 00 	tst.b	22(r11)	;0x0016(r11)
    87ae:	15 24       	jz	$+44     	;abs 0x87da
    87b0:	18 4b 10 00 	mov	16(r11),r8	;0x0010(r11)
    87b4:	0a 48       	mov	r8,	r10	
    87b6:	0a 5a       	rla	r10		
    87b8:	0d 4a       	mov	r10,	r13	
    87ba:	0d 5d       	rla	r13		
    87bc:	0d 5d       	rla	r13		
    87be:	0d 5a       	add	r10,	r13	
    87c0:	1d 5b 14 00 	add	20(r11),r13	;0x0014(r11)
    87c4:	0d 9f       	cmp	r15,	r13	
    87c6:	09 2c       	jc	$+20     	;abs 0x87da
    87c8:	08 95       	cmp	r5,	r8	
    87ca:	07 2c       	jc	$+16     	;abs 0x87da
    87cc:	38 93       	cmp	#-1,	r8	;r3 As==11
    87ce:	05 24       	jz	$+12     	;abs 0x87da
    87d0:	07 96       	cmp	r6,	r7	
    87d2:	08 20       	jnz	$+18     	;abs 0x87e4
    87d4:	0c 4d       	mov	r13,	r12	
    87d6:	0f 4d       	mov	r13,	r15	
    87d8:	06 3c       	jmp	$+14     	;abs 0x87e6
    87da:	4d 4e       	mov.b	r14,	r13	
    87dc:	0d 96       	cmp	r6,	r13	
    87de:	04 20       	jnz	$+10     	;abs 0x87e8
    87e0:	0c 4f       	mov	r15,	r12	
    87e2:	02 3c       	jmp	$+6      	;abs 0x87e8
    87e4:	0f 4d       	mov	r13,	r15	
    87e6:	4e 49       	mov.b	r9,	r14	
    87e8:	59 53       	inc.b	r9		
    87ea:	79 90 14 00 	cmp.b	#20,	r9	;#0x0014
    87ee:	cf 2b       	jnc	$-96     	;abs 0x878e
    87f0:	82 4c 64 11 	mov	r12,	&0x1164	
    87f4:	4d 4e       	mov.b	r14,	r13	
    87f6:	02 12       	push	r2		
    87f8:	32 c2       	dint			
    87fa:	03 43       	nop			
    87fc:	82 4d 32 01 	mov	r13,	&0x0132	
    8800:	b2 40 18 00 38 01 	mov	#24,	&0x0138	;#0x0018
    8806:	1d 42 3a 01 	mov	&0x013a,r13	
    880a:	32 41       	pop	r2		
    880c:	bd 93 ec 13 	cmp	#-1,	5100(r13);r3 As==11, 0x13ec(r13)
    8810:	0b 20       	jnz	$+24     	;abs 0x8828
    8812:	b2 40 14 00 62 11 	mov	#20,	&0x1162	;#0x0014
    8818:	1f 42 5c 11 	mov	&0x115c,r15	
    881c:	b0 12 16 4e 	call	#0x4e16	
    8820:	b2 43 5c 11 	mov	#-1,	&0x115c	;r3 As==11
    8824:	4f 43       	clr.b	r15		
    8826:	4d 3c       	jmp	$+156    	;abs 0x88c2
    8828:	19 42 62 11 	mov	&0x1162,r9	
    882c:	0b 4f       	mov	r15,	r11	
    882e:	0b 5b       	rla	r11		
    8830:	0d 4b       	mov	r11,	r13	
    8832:	0d 5d       	rla	r13		
    8834:	0d 5d       	rla	r13		
    8836:	0a 4b       	mov	r11,	r10	
    8838:	0a 5d       	add	r13,	r10	
    883a:	3a 50 05 00 	add	#5,	r10	;#0x0005
    883e:	0b 4c       	mov	r12,	r11	
    8840:	0b 5b       	rla	r11		
    8842:	0d 4b       	mov	r11,	r13	
    8844:	0d 5d       	rla	r13		
    8846:	0d 5d       	rla	r13		
    8848:	0d 5b       	add	r11,	r13	
    884a:	0a 9d       	cmp	r13,	r10	
    884c:	13 28       	jnc	$+40     	;abs 0x8874
    884e:	0c 93       	tst	r12		
    8850:	11 24       	jz	$+36     	;abs 0x8874
    8852:	4d 49       	mov.b	r9,	r13	
    8854:	02 12       	push	r2		
    8856:	32 c2       	dint			
    8858:	03 43       	nop			
    885a:	82 4d 32 01 	mov	r13,	&0x0132	
    885e:	b2 40 18 00 38 01 	mov	#24,	&0x0138	;#0x0018
    8864:	1d 42 3a 01 	mov	&0x013a,r13	
    8868:	32 41       	pop	r2		
    886a:	cd 93 f2 13 	tst.b	5106(r13)	;0x13f2(r13)
    886e:	02 24       	jz	$+6      	;abs 0x8874
    8870:	0f 4c       	mov	r12,	r15	
    8872:	4e 49       	mov.b	r9,	r14	
    8874:	82 4f 64 11 	mov	r15,	&0x1164	
    8878:	4e 4e       	mov.b	r14,	r14	
    887a:	82 4e 62 11 	mov	r14,	&0x1162	
    887e:	02 12       	push	r2		
    8880:	32 c2       	dint			
    8882:	03 43       	nop			
    8884:	82 4e 32 01 	mov	r14,	&0x0132	
    8888:	b2 40 18 00 38 01 	mov	#24,	&0x0138	;#0x0018
    888e:	1b 42 3a 01 	mov	&0x013a,r11	
    8892:	32 41       	pop	r2		
    8894:	3b 50 dc 13 	add	#5084,	r11	;#0x13dc
    8898:	0d 4b       	mov	r11,	r13	
    889a:	0e 43       	clr	r14		
    889c:	0f 43       	clr	r15		
    889e:	b0 12 a6 74 	call	#0x74a6	
    88a2:	82 4f 5c 11 	mov	r15,	&0x115c	
    88a6:	92 9b 0e 00 e0 15 	cmp	14(r11),&0x15e0	;0x000e(r11)
    88ac:	06 24       	jz	$+14     	;abs 0x88ba
    88ae:	d2 43 bc 11 	mov.b	#1,	&0x11bc	;r3 As==01
    88b2:	7f 40 19 00 	mov.b	#25,	r15	;#0x0019
    88b6:	b0 12 8a 63 	call	#0x638a	
    88ba:	92 4b 0e 00 e0 15 	mov	14(r11),&0x15e0	;0x000e(r11)
    88c0:	5f 43       	mov.b	#1,	r15	;r3 As==01
    88c2:	35 41       	pop	r5		
    88c4:	36 41       	pop	r6		
    88c6:	37 41       	pop	r7		
    88c8:	38 41       	pop	r8		
    88ca:	39 41       	pop	r9		
    88cc:	3a 41       	pop	r10		
    88ce:	3b 41       	pop	r11		
    88d0:	30 41       	ret			

000088d2 <RPLRankP__getNewRank>:
    88d2:	0b 12       	push	r11		
    88d4:	1d 42 8c 11 	mov	&0x118c,r13	
    88d8:	1f 42 62 11 	mov	&0x1162,r15	
    88dc:	3f 90 14 00 	cmp	#20,	r15	;#0x0014
    88e0:	03 20       	jnz	$+8      	;abs 0x88e8
    88e2:	b2 43 66 11 	mov	#-1,	&0x1166	;r3 As==11
    88e6:	23 3c       	jmp	$+72     	;abs 0x892e
    88e8:	4f 4f       	mov.b	r15,	r15	
    88ea:	02 12       	push	r2		
    88ec:	32 c2       	dint			
    88ee:	03 43       	nop			
    88f0:	82 4f 32 01 	mov	r15,	&0x0132	
    88f4:	b2 40 18 00 38 01 	mov	#24,	&0x0138	;#0x0018
    88fa:	1f 42 3a 01 	mov	&0x013a,r15	
    88fe:	32 41       	pop	r2		
    8900:	3f 50 dc 13 	add	#5084,	r15	;#0x13dc
    8904:	92 4f 14 00 60 11 	mov	20(r15),&0x1160	;0x0014(r15)
    890a:	1e 42 5e 11 	mov	&0x115e,r14	
    890e:	1f 4f 10 00 	mov	16(r15),r15	;0x0010(r15)
    8912:	0f 5e       	add	r14,	r15	
    8914:	82 4f 66 11 	mov	r15,	&0x1166	
    8918:	0f 9e       	cmp	r14,	r15	
    891a:	02 2c       	jc	$+6      	;abs 0x8920
    891c:	b2 43 66 11 	mov	#-1,	&0x1166	;r3 As==11
    8920:	c2 93 bc 11 	tst.b	&0x11bc	
    8924:	04 24       	jz	$+10     	;abs 0x892e
    8926:	c2 43 bc 11 	mov.b	#0,	&0x11bc	;r3 As==00
    892a:	5f 43       	mov.b	#1,	r15	;r3 As==01
    892c:	01 3c       	jmp	$+4      	;abs 0x8930
    892e:	4f 43       	clr.b	r15		
    8930:	1b 42 66 11 	mov	&0x1166,r11	
    8934:	82 4b 8c 11 	mov	r11,	&0x118c	
    8938:	4f 93       	tst.b	r15		
    893a:	04 20       	jnz	$+10     	;abs 0x8944
    893c:	1e 42 8a 11 	mov	&0x118a,r14	
    8940:	0b 9e       	cmp	r14,	r11	
    8942:	03 2c       	jc	$+8      	;abs 0x894a
    8944:	82 4b 8a 11 	mov	r11,	&0x118a	
    8948:	41 3c       	jmp	$+132    	;abs 0x89cc
    894a:	0d 9b       	cmp	r11,	r13	
    894c:	0f 2c       	jc	$+32     	;abs 0x896c
    894e:	1f 42 88 11 	mov	&0x1188,r15	
    8952:	0d 4b       	mov	r11,	r13	
    8954:	0d 8e       	sub	r14,	r13	
    8956:	0f 9d       	cmp	r13,	r15	
    8958:	09 2c       	jc	$+20     	;abs 0x896c
    895a:	0f 93       	tst	r15		
    895c:	07 24       	jz	$+16     	;abs 0x896c
    895e:	b2 43 8c 11 	mov	#-1,	&0x118c	;r3 As==11
    8962:	b2 43 8a 11 	mov	#-1,	&0x118a	;r3 As==11
    8966:	b0 12 98 86 	call	#0x8698	
    896a:	30 3c       	jmp	$+98     	;abs 0x89cc
    896c:	5f 42 62 11 	mov.b	&0x1162,r15	
    8970:	02 12       	push	r2		
    8972:	32 c2       	dint			
    8974:	03 43       	nop			
    8976:	82 4f 32 01 	mov	r15,	&0x0132	
    897a:	b2 40 18 00 38 01 	mov	#24,	&0x0138	;#0x0018
    8980:	1f 42 3a 01 	mov	&0x013a,r15	
    8984:	32 41       	pop	r2		
    8986:	3f 50 dc 13 	add	#5084,	r15	;#0x13dc
    898a:	b0 12 4c 51 	call	#0x514c	
    898e:	5d 42 ea 11 	mov.b	&0x11ea,r13	
    8992:	3e 40 f2 13 	mov	#5106,	r14	;#0x13f2
    8996:	4c 43       	clr.b	r12		
    8998:	ce 93 00 00 	tst.b	0(r14)		;0x0000(r14)
    899c:	0f 24       	jz	$+32     	;abs 0x89bc
    899e:	8e 9b fa ff 	cmp	r11,	-6(r14)	;0xfffa(r14)
    89a2:	0c 28       	jnc	$+26     	;abs 0x89bc
    89a4:	ce 43 00 00 	mov.b	#0,	0(r14)	;r3 As==00, 0x0000(r14)
    89a8:	7d 53       	add.b	#-1,	r13	;r3 As==11
    89aa:	4c 9f       	cmp.b	r15,	r12	
    89ac:	07 20       	jnz	$+16     	;abs 0x89bc
    89ae:	c2 4d ea 11 	mov.b	r13,	&0x11ea	
    89b2:	7f 40 13 00 	mov.b	#19,	r15	;#0x0013
    89b6:	b0 12 8a 63 	call	#0x638a	
    89ba:	08 3c       	jmp	$+18     	;abs 0x89cc
    89bc:	5c 53       	inc.b	r12		
    89be:	3e 50 18 00 	add	#24,	r14	;#0x0018
    89c2:	7c 90 14 00 	cmp.b	#20,	r12	;#0x0014
    89c6:	e8 23       	jnz	$-46     	;abs 0x8998
    89c8:	c2 4d ea 11 	mov.b	r13,	&0x11ea	
    89cc:	3b 41       	pop	r11		
    89ce:	30 41       	ret			

000089d0 <IPForwardingEngineP__IPForward__sendDone.constprop.363>:
    89d0:	0b 12       	push	r11		
    89d2:	0a 12       	push	r10		
    89d4:	09 12       	push	r9		
    89d6:	08 12       	push	r8		
    89d8:	07 12       	push	r7		
    89da:	06 12       	push	r6		
    89dc:	05 12       	push	r5		
    89de:	04 12       	push	r4		
    89e0:	31 50 f0 ff 	add	#-16,	r1	;#0xfff0
    89e4:	0b 4f       	mov	r15,	r11	
    89e6:	29 4f       	mov	@r15,	r9	
    89e8:	3d 40 10 00 	mov	#16,	r13	;#0x0010
    89ec:	0e 43       	clr	r14		
    89ee:	0f 41       	mov	r1,	r15	
    89f0:	b0 12 74 ea 	call	#0xea74	
    89f4:	b1 40 fe 80 00 00 	mov	#-32514,0(r1)	;#0x80fe, 0x0000(r1)
    89fa:	09 93       	tst	r9		
    89fc:	87 24       	jz	$+272    	;abs 0x8b0c
    89fe:	3d 42       	mov	#8,	r13	;r2 As==11
    8a00:	0e 49       	mov	r9,	r14	
    8a02:	0f 41       	mov	r1,	r15	
    8a04:	3f 52       	add	#8,	r15	;r2 As==11
    8a06:	b0 12 80 e8 	call	#0xe880	
    8a0a:	54 4b 03 00 	mov.b	3(r11),	r4	;0x0003(r11)
    8a0e:	55 4b 04 00 	mov.b	4(r11),	r5	;0x0004(r11)
    8a12:	5f 42 62 11 	mov.b	&0x1162,r15	
    8a16:	02 12       	push	r2		
    8a18:	32 c2       	dint			
    8a1a:	03 43       	nop			
    8a1c:	82 4f 32 01 	mov	r15,	&0x0132	
    8a20:	b2 40 18 00 38 01 	mov	#24,	&0x0138	;#0x0018
    8a26:	1f 42 3a 01 	mov	&0x013a,r15	
    8a2a:	32 41       	pop	r2		
    8a2c:	3f 50 dc 13 	add	#5084,	r15	;#0x13dc
    8a30:	b0 12 4c 51 	call	#0x514c	
    8a34:	47 4f       	mov.b	r15,	r7	
    8a36:	92 92 9e 11 8c 11 	cmp	&0x119e,&0x118c	
    8a3c:	60 24       	jz	$+194    	;abs 0x8afe
    8a3e:	3a 40 f2 13 	mov	#5106,	r10	;#0x13f2
    8a42:	0b 43       	clr	r11		
    8a44:	46 4b       	mov.b	r11,	r6	
    8a46:	ca 93 00 00 	tst.b	0(r10)		;0x0000(r10)
    8a4a:	15 24       	jz	$+44     	;abs 0x8a76
    8a4c:	02 12       	push	r2		
    8a4e:	32 c2       	dint			
    8a50:	03 43       	nop			
    8a52:	82 4b 32 01 	mov	r11,	&0x0132	
    8a56:	b2 40 18 00 38 01 	mov	#24,	&0x0138	;#0x0018
    8a5c:	18 42 3a 01 	mov	&0x013a,r8	
    8a60:	32 41       	pop	r2		
    8a62:	3d 40 10 00 	mov	#16,	r13	;#0x0010
    8a66:	0e 41       	mov	r1,	r14	
    8a68:	0f 48       	mov	r8,	r15	
    8a6a:	3f 50 dc 13 	add	#5084,	r15	;#0x13dc
    8a6e:	b0 12 22 e8 	call	#0xe822	
    8a72:	0f 93       	tst	r15		
    8a74:	07 24       	jz	$+16     	;abs 0x8a84
    8a76:	1b 53       	inc	r11		
    8a78:	3a 50 18 00 	add	#24,	r10	;#0x0018
    8a7c:	3b 90 14 00 	cmp	#20,	r11	;#0x0014
    8a80:	e1 23       	jnz	$-60     	;abs 0x8a44
    8a82:	3d 3c       	jmp	$+124    	;abs 0x8afe
    8a84:	4c 44       	mov.b	r4,	r12	
    8a86:	0c 5c       	rla	r12		
    8a88:	0d 4c       	mov	r12,	r13	
    8a8a:	0d 5d       	rla	r13		
    8a8c:	0d 5d       	rla	r13		
    8a8e:	4e 45       	mov.b	r5,	r14	
    8a90:	0f 4c       	mov	r12,	r15	
    8a92:	0f 5d       	add	r13,	r15	
    8a94:	b0 12 8a e7 	call	#0xe78a	
    8a98:	02 12       	push	r2		
    8a9a:	32 c2       	dint			
    8a9c:	03 43       	nop			
    8a9e:	82 4b 32 01 	mov	r11,	&0x0132	
    8aa2:	b2 40 18 00 38 01 	mov	#24,	&0x0138	;#0x0018
    8aa8:	1d 42 3a 01 	mov	&0x013a,r13	
    8aac:	32 41       	pop	r2		
    8aae:	3d 50 dc 13 	add	#5084,	r13	;#0x13dc
    8ab2:	1d 4d 14 00 	mov	20(r13),r13	;0x0014(r13)
    8ab6:	0d 5d       	rla	r13		
    8ab8:	0d 5d       	rla	r13		
    8aba:	0f 5d       	add	r13,	r15	
    8abc:	0f 5f       	rla	r15		
    8abe:	3e 40 0a 00 	mov	#10,	r14	;#0x000a
    8ac2:	b0 12 68 e7 	call	#0xe768	
    8ac6:	02 12       	push	r2		
    8ac8:	32 c2       	dint			
    8aca:	03 43       	nop			
    8acc:	82 4b 32 01 	mov	r11,	&0x0132	
    8ad0:	b2 40 18 00 38 01 	mov	#24,	&0x0138	;#0x0018
    8ad6:	1e 42 3a 01 	mov	&0x013a,r14	
    8ada:	32 41       	pop	r2		
    8adc:	8e 4f f0 13 	mov	r15,	5104(r14);0x13f0(r14)
    8ae0:	3f 90 1f 00 	cmp	#31,	r15	;#0x001f
    8ae4:	0a 28       	jnc	$+22     	;abs 0x8afa
    8ae6:	4f 4b       	mov.b	r11,	r15	
    8ae8:	b0 12 6a 86 	call	#0x866a	
    8aec:	46 97       	cmp.b	r7,	r6	
    8aee:	05 20       	jnz	$+12     	;abs 0x8afa
    8af0:	c2 93 ea 11 	tst.b	&0x11ea	
    8af4:	02 24       	jz	$+6      	;abs 0x8afa
    8af6:	b0 12 b6 86 	call	#0x86b6	
    8afa:	b0 12 d2 88 	call	#0x88d2	
    8afe:	f2 90 03 00 8e 13 	cmp.b	#3,	&0x138e	;#0x0003
    8b04:	03 2c       	jc	$+8      	;abs 0x8b0c
    8b06:	0f 49       	mov	r9,	r15	
    8b08:	b0 12 0c 51 	call	#0x510c	
    8b0c:	31 50 10 00 	add	#16,	r1	;#0x0010
    8b10:	34 41       	pop	r4		
    8b12:	35 41       	pop	r5		
    8b14:	36 41       	pop	r6		
    8b16:	37 41       	pop	r7		
    8b18:	38 41       	pop	r8		
    8b1a:	39 41       	pop	r9		
    8b1c:	3a 41       	pop	r10		
    8b1e:	3b 41       	pop	r11		
    8b20:	30 41       	ret			

00008b22 <TransformAlarmC__0__Counter__get>:
    8b22:	0b 12       	push	r11		
    8b24:	0a 12       	push	r10		
    8b26:	09 12       	push	r9		
    8b28:	b0 12 b2 5f 	call	#0x5fb2	
    8b2c:	49 4f       	mov.b	r15,	r9	
    8b2e:	1b 42 da 1b 	mov	&0x1bda,r11	
    8b32:	b0 12 6a 4a 	call	#0x4a6a	
    8b36:	0a 4f       	mov	r15,	r10	
    8b38:	1f 42 80 01 	mov	&0x0180,r15	
    8b3c:	5f f3       	and.b	#1,	r15	;r3 As==01
    8b3e:	04 24       	jz	$+10     	;abs 0x8b48
    8b40:	1b 53       	inc	r11		
    8b42:	b0 12 6a 4a 	call	#0x4a6a	
    8b46:	0a 4f       	mov	r15,	r10	
    8b48:	0c 43       	clr	r12		
    8b4a:	0d 43       	clr	r13		
    8b4c:	0d 4b       	mov	r11,	r13	
    8b4e:	0e 4a       	mov	r10,	r14	
    8b50:	0f 43       	clr	r15		
    8b52:	0a 4c       	mov	r12,	r10	
    8b54:	0b 4d       	mov	r13,	r11	
    8b56:	0a de       	bis	r14,	r10	
    8b58:	0b df       	bis	r15,	r11	
    8b5a:	4f 49       	mov.b	r9,	r15	
    8b5c:	b0 12 c4 5f 	call	#0x5fc4	
    8b60:	0e 4a       	mov	r10,	r14	
    8b62:	0f 4b       	mov	r11,	r15	
    8b64:	39 41       	pop	r9		
    8b66:	3a 41       	pop	r10		
    8b68:	3b 41       	pop	r11		
    8b6a:	30 41       	ret			

00008b6c <TransformAlarmC__0__set_alarm>:
    8b6c:	0b 12       	push	r11		
    8b6e:	0a 12       	push	r10		
    8b70:	09 12       	push	r9		
    8b72:	08 12       	push	r8		
    8b74:	b0 12 22 8b 	call	#0x8b22	
    8b78:	08 4e       	mov	r14,	r8	
    8b7a:	09 4f       	mov	r15,	r9	
    8b7c:	1e 42 44 16 	mov	&0x1644,r14	
    8b80:	1f 42 46 16 	mov	&0x1646,r15	
    8b84:	0a 4e       	mov	r14,	r10	
    8b86:	0b 4f       	mov	r15,	r11	
    8b88:	1a 52 ea 15 	add	&0x15ea,r10	
    8b8c:	1b 62 ec 15 	addc	&0x15ec,r11	
    8b90:	09 9f       	cmp	r15,	r9	
    8b92:	09 28       	jnc	$+20     	;abs 0x8ba6
    8b94:	02 20       	jnz	$+6      	;abs 0x8b9a
    8b96:	08 9e       	cmp	r14,	r8	
    8b98:	06 28       	jnc	$+14     	;abs 0x8ba6
    8b9a:	0b 9f       	cmp	r15,	r11	
    8b9c:	10 28       	jnc	$+34     	;abs 0x8bbe
    8b9e:	09 20       	jnz	$+20     	;abs 0x8bb2
    8ba0:	0a 9e       	cmp	r14,	r10	
    8ba2:	0d 28       	jnc	$+28     	;abs 0x8bbe
    8ba4:	06 3c       	jmp	$+14     	;abs 0x8bb2
    8ba6:	0b 9f       	cmp	r15,	r11	
    8ba8:	04 28       	jnc	$+10     	;abs 0x8bb2
    8baa:	0f 9b       	cmp	r11,	r15	
    8bac:	27 28       	jnc	$+80     	;abs 0x8bfc
    8bae:	0a 9e       	cmp	r14,	r10	
    8bb0:	25 2c       	jc	$+76     	;abs 0x8bfc
    8bb2:	09 9b       	cmp	r11,	r9	
    8bb4:	04 28       	jnc	$+10     	;abs 0x8bbe
    8bb6:	0b 99       	cmp	r9,	r11	
    8bb8:	21 28       	jnc	$+68     	;abs 0x8bfc
    8bba:	08 9a       	cmp	r10,	r8	
    8bbc:	1f 2c       	jc	$+64     	;abs 0x8bfc
    8bbe:	0c 4a       	mov	r10,	r12	
    8bc0:	0d 4b       	mov	r11,	r13	
    8bc2:	0c 88       	sub	r8,	r12	
    8bc4:	0d 79       	subc	r9,	r13	
    8bc6:	0d 93       	tst	r13		
    8bc8:	03 20       	jnz	$+8      	;abs 0x8bd0
    8bca:	3c 90 01 80 	cmp	#-32767,r12	;#0x8001
    8bce:	18 28       	jnc	$+50     	;abs 0x8c00
    8bd0:	0e 48       	mov	r8,	r14	
    8bd2:	0f 49       	mov	r9,	r15	
    8bd4:	3e 50 00 80 	add	#-32768,r14	;#0x8000
    8bd8:	0f 63       	adc	r15		
    8bda:	82 4e 44 16 	mov	r14,	&0x1644	
    8bde:	82 4f 46 16 	mov	r15,	&0x1646	
    8be2:	0e 4c       	mov	r12,	r14	
    8be4:	0f 4d       	mov	r13,	r15	
    8be6:	3e 50 00 80 	add	#-32768,r14	;#0x8000
    8bea:	3f 63       	addc	#-1,	r15	;r3 As==11
    8bec:	82 4e ea 15 	mov	r14,	&0x15ea	
    8bf0:	82 4f ec 15 	mov	r15,	&0x15ec	
    8bf4:	3c 40 00 80 	mov	#-32768,r12	;#0x8000
    8bf8:	0d 43       	clr	r13		
    8bfa:	0a 3c       	jmp	$+22     	;abs 0x8c10
    8bfc:	0c 43       	clr	r12		
    8bfe:	0d 43       	clr	r13		
    8c00:	82 4a 44 16 	mov	r10,	&0x1644	
    8c04:	82 4b 46 16 	mov	r11,	&0x1646	
    8c08:	82 43 ea 15 	mov	#0,	&0x15ea	;r3 As==00
    8c0c:	82 43 ec 15 	mov	#0,	&0x15ec	;r3 As==00
    8c10:	0a 4c       	mov	r12,	r10	
    8c12:	b0 12 6a 4a 	call	#0x4a6a	
    8c16:	0e 4f       	mov	r15,	r14	
    8c18:	0e 88       	sub	r8,	r14	
    8c1a:	0e 9a       	cmp	r10,	r14	
    8c1c:	05 2c       	jc	$+12     	;abs 0x8c28
    8c1e:	0c 4a       	mov	r10,	r12	
    8c20:	0c 8e       	sub	r14,	r12	
    8c22:	3c 90 03 00 	cmp	#3,	r12	;#0x0003
    8c26:	06 2c       	jc	$+14     	;abs 0x8c34
    8c28:	b0 12 6a 4a 	call	#0x4a6a	
    8c2c:	2f 53       	incd	r15		
    8c2e:	82 4f 92 01 	mov	r15,	&0x0192	
    8c32:	03 3c       	jmp	$+8      	;abs 0x8c3a
    8c34:	0c 5f       	add	r15,	r12	
    8c36:	82 4c 92 01 	mov	r12,	&0x0192	
    8c3a:	b2 f0 fe ff 82 01 	and	#-2,	&0x0182	;#0xfffe
    8c40:	b2 d0 10 00 82 01 	bis	#16,	&0x0182	;#0x0010
    8c46:	38 41       	pop	r8		
    8c48:	39 41       	pop	r9		
    8c4a:	3a 41       	pop	r10		
    8c4c:	3b 41       	pop	r11		
    8c4e:	30 41       	ret			

00008c50 <TransformAlarmC__0__Alarm__start>:
    8c50:	0b 12       	push	r11		
    8c52:	0a 12       	push	r10		
    8c54:	09 12       	push	r9		
    8c56:	08 12       	push	r8		
    8c58:	21 83       	decd	r1		
    8c5a:	0a 4e       	mov	r14,	r10	
    8c5c:	0b 4f       	mov	r15,	r11	
    8c5e:	b0 12 22 8b 	call	#0x8b22	
    8c62:	08 4e       	mov	r14,	r8	
    8c64:	09 4f       	mov	r15,	r9	
    8c66:	b0 12 b2 5f 	call	#0x5fb2	
    8c6a:	82 48 44 16 	mov	r8,	&0x1644	
    8c6e:	82 49 46 16 	mov	r9,	&0x1646	
    8c72:	82 4a ea 15 	mov	r10,	&0x15ea	
    8c76:	82 4b ec 15 	mov	r11,	&0x15ec	
    8c7a:	81 4f 00 00 	mov	r15,	0(r1)	;0x0000(r1)
    8c7e:	b0 12 6c 8b 	call	#0x8b6c	
    8c82:	2f 41       	mov	@r1,	r15	
    8c84:	b0 12 c4 5f 	call	#0x5fc4	
    8c88:	21 53       	incd	r1		
    8c8a:	38 41       	pop	r8		
    8c8c:	39 41       	pop	r9		
    8c8e:	3a 41       	pop	r10		
    8c90:	3b 41       	pop	r11		
    8c92:	30 41       	ret			

00008c94 <CC2420TransmitP__congestionBackoff>:
    8c94:	0b 12       	push	r11		
    8c96:	b0 12 b2 5f 	call	#0x5fb2	
    8c9a:	4b 4f       	mov.b	r15,	r11	
    8c9c:	b0 12 92 84 	call	#0x8492	
    8ca0:	0d 4e       	mov	r14,	r13	
    8ca2:	3e 40 46 00 	mov	#70,	r14	;#0x0046
    8ca6:	0f 4d       	mov	r13,	r15	
    8ca8:	b0 12 82 e7 	call	#0xe782	
    8cac:	0e 4f       	mov	r15,	r14	
    8cae:	3e 50 0b 00 	add	#11,	r14	;#0x000b
    8cb2:	82 4e 06 26 	mov	r14,	&0x2606	
    8cb6:	0f 43       	clr	r15		
    8cb8:	b0 12 50 8c 	call	#0x8c50	
    8cbc:	4f 4b       	mov.b	r11,	r15	
    8cbe:	b0 12 c4 5f 	call	#0x5fc4	
    8cc2:	3b 41       	pop	r11		
    8cc4:	30 41       	ret			

00008cc6 <CC2420TransmitP__attemptSend>:
    8cc6:	0b 12       	push	r11		
    8cc8:	0a 12       	push	r10		
    8cca:	b0 12 b2 5f 	call	#0x5fb2	
    8cce:	4a 4f       	mov.b	r15,	r10	
    8cd0:	b2 92 fa 11 	cmp	#8,	&0x11fa	;r2 As==11
    8cd4:	12 20       	jnz	$+38     	;abs 0x8cfa
    8cd6:	7f 40 09 00 	mov.b	#9,	r15	;#0x0009
    8cda:	b0 12 90 80 	call	#0x8090	
    8cde:	b0 12 86 84 	call	#0x8486	
    8ce2:	b0 12 c2 83 	call	#0x83c2	
    8ce6:	92 43 fa 11 	mov	#1,	&0x11fa	;r3 As==01
    8cea:	7f 40 03 00 	mov.b	#3,	r15	;#0x0003
    8cee:	b0 12 9e 82 	call	#0x829e	
    8cf2:	4f 4a       	mov.b	r10,	r15	
    8cf4:	b0 12 c4 5f 	call	#0x5fc4	
    8cf8:	2f 3c       	jmp	$+96     	;abs 0x8d58
    8cfa:	b0 12 e0 80 	call	#0x80e0	
    8cfe:	c2 93 20 26 	tst.b	&0x2620	
    8d02:	03 24       	jz	$+8      	;abs 0x8d0a
    8d04:	7f 40 05 00 	mov.b	#5,	r15	;#0x0005
    8d08:	01 3c       	jmp	$+4      	;abs 0x8d0c
    8d0a:	6f 42       	mov.b	#4,	r15	;r2 As==10
    8d0c:	b0 12 90 80 	call	#0x8090	
    8d10:	4e 4f       	mov.b	r15,	r14	
    8d12:	3e f2       	and	#8,	r14	;r2 As==11
    8d14:	05 20       	jnz	$+12     	;abs 0x8d20
    8d16:	4f 43       	clr.b	r15		
    8d18:	b0 12 90 80 	call	#0x8090	
    8d1c:	3f f2       	and	#8,	r15	;r2 As==11
    8d1e:	04 20       	jnz	$+10     	;abs 0x8d28
    8d20:	5b 43       	mov.b	#1,	r11	;r3 As==01
    8d22:	3f 40 03 00 	mov	#3,	r15	;#0x0003
    8d26:	03 3c       	jmp	$+8      	;abs 0x8d2e
    8d28:	4b 43       	clr.b	r11		
    8d2a:	3f 40 05 00 	mov	#5,	r15	;#0x0005
    8d2e:	82 4f fa 11 	mov	r15,	&0x11fa	
    8d32:	b0 12 c2 83 	call	#0x83c2	
    8d36:	4f 4a       	mov.b	r10,	r15	
    8d38:	b0 12 c4 5f 	call	#0x5fc4	
    8d3c:	4b 93       	tst.b	r11		
    8d3e:	07 24       	jz	$+16     	;abs 0x8d4e
    8d40:	c2 43 58 12 	mov.b	#0,	&0x1258	;r3 As==00
    8d44:	b0 12 86 84 	call	#0x8486	
    8d48:	b0 12 94 8c 	call	#0x8c94	
    8d4c:	05 3c       	jmp	$+12     	;abs 0x8d58
    8d4e:	3e 40 40 01 	mov	#320,	r14	;#0x0140
    8d52:	0f 43       	clr	r15		
    8d54:	b0 12 50 8c 	call	#0x8c50	
    8d58:	3a 41       	pop	r10		
    8d5a:	3b 41       	pop	r11		
    8d5c:	30 41       	ret			

00008d5e <Stm25pSpiP__CSN__clr>:
    8d5e:	b0 12 b2 5f 	call	#0x5fb2	
    8d62:	f2 f0 ef ff 1d 00 	and.b	#-17,	&0x001d	;#0xffef
    8d68:	b0 12 c4 5f 	call	#0x5fc4	
    8d6c:	30 41       	ret			

00008d6e <Stm25pSpiP__CSN__set>:
    8d6e:	b0 12 b2 5f 	call	#0x5fb2	
    8d72:	f2 d0 10 00 1d 00 	bis.b	#16,	&0x001d	;#0x0010
    8d78:	b0 12 c4 5f 	call	#0x5fc4	
    8d7c:	30 41       	ret			

00008d7e <Stm25pSpiP__sendCmd>:
    8d7e:	0b 12       	push	r11		
    8d80:	0a 12       	push	r10		
    8d82:	09 12       	push	r9		
    8d84:	08 12       	push	r8		
    8d86:	48 4f       	mov.b	r15,	r8	
    8d88:	49 4e       	mov.b	r14,	r9	
    8d8a:	b0 12 5e 8d 	call	#0x8d5e	
    8d8e:	0b 43       	clr	r11		
    8d90:	4a 43       	clr.b	r10		
    8d92:	49 49       	mov.b	r9,	r9	
    8d94:	05 3c       	jmp	$+12     	;abs 0x8da0
    8d96:	4f 48       	mov.b	r8,	r15	
    8d98:	b0 12 7c 4a 	call	#0x4a7c	
    8d9c:	4a 4f       	mov.b	r15,	r10	
    8d9e:	1b 53       	inc	r11		
    8da0:	0b 99       	cmp	r9,	r11	
    8da2:	f9 3b       	jl	$-12     	;abs 0x8d96
    8da4:	b0 12 6e 8d 	call	#0x8d6e	
    8da8:	4f 4a       	mov.b	r10,	r15	
    8daa:	38 41       	pop	r8		
    8dac:	39 41       	pop	r9		
    8dae:	3a 41       	pop	r10		
    8db0:	3b 41       	pop	r11		
    8db2:	30 41       	ret			

00008db4 <Stm25pSpiP__newRequest.constprop.362>:
    8db4:	1c 42 f0 1c 	mov	&0x1cf0,r12	
    8db8:	1d 42 f2 1c 	mov	&0x1cf2,r13	
    8dbc:	c2 4d 91 12 	mov.b	r13,	&0x1291	
    8dc0:	0e 4c       	mov	r12,	r14	
    8dc2:	8e 10       	swpb	r14		
    8dc4:	8d 10       	swpb	r13		
    8dc6:	4e ed       	xor.b	r13,	r14	
    8dc8:	0e ed       	xor	r13,	r14	
    8dca:	c2 4e 92 12 	mov.b	r14,	&0x1292	
    8dce:	c2 4c 93 12 	mov.b	r12,	&0x1293	
    8dd2:	4f 93       	tst.b	r15		
    8dd4:	05 24       	jz	$+12     	;abs 0x8de0
    8dd6:	5e 43       	mov.b	#1,	r14	;r3 As==01
    8dd8:	7f 40 06 00 	mov.b	#6,	r15	;#0x0006
    8ddc:	b0 12 7e 8d 	call	#0x8d7e	
    8de0:	b0 12 5e 8d 	call	#0x8d5e	
    8de4:	2d 42       	mov	#4,	r13	;r2 As==10
    8de6:	0e 43       	clr	r14		
    8de8:	3f 40 90 12 	mov	#4752,	r15	;#0x1290
    8dec:	b0 12 34 81 	call	#0x8134	
    8df0:	4f 43       	clr.b	r15		
    8df2:	30 41       	ret			

00008df4 <Stm25pConfigP__Sector__read>:
    8df4:	0b 12       	push	r11		
    8df6:	0a 12       	push	r10		
    8df8:	09 12       	push	r9		
    8dfa:	08 12       	push	r8		
    8dfc:	18 41 0a 00 	mov	10(r1),	r8	;0x000a(r1)
    8e00:	19 41 0c 00 	mov	12(r1),	r9	;0x000c(r1)
    8e04:	4f 93       	tst.b	r15		
    8e06:	1c 20       	jnz	$+58     	;abs 0x8e40
    8e08:	92 43 98 18 	mov	#1,	&0x1898	;r3 As==01
    8e0c:	82 4d 96 1c 	mov	r13,	&0x1c96	
    8e10:	82 4e 98 1c 	mov	r14,	&0x1c98	
    8e14:	82 4c 08 26 	mov	r12,	&0x2608	
    8e18:	82 48 fa 23 	mov	r8,	&0x23fa	
    8e1c:	82 49 fc 23 	mov	r9,	&0x23fc	
    8e20:	f2 40 03 00 90 12 	mov.b	#3,	&0x1290	;#0x0003
    8e26:	82 4d f0 1c 	mov	r13,	&0x1cf0	
    8e2a:	82 4e f2 1c 	mov	r14,	&0x1cf2	
    8e2e:	82 4c de 1b 	mov	r12,	&0x1bde	
    8e32:	82 48 22 1d 	mov	r8,	&0x1d22	
    8e36:	82 49 24 1d 	mov	r9,	&0x1d24	
    8e3a:	b0 12 b4 8d 	call	#0x8db4	
    8e3e:	01 3c       	jmp	$+4      	;abs 0x8e42
    8e40:	5f 43       	mov.b	#1,	r15	;r3 As==01
    8e42:	38 41       	pop	r8		
    8e44:	39 41       	pop	r9		
    8e46:	3a 41       	pop	r10		
    8e48:	3b 41       	pop	r11		
    8e4a:	30 41       	ret			

00008e4c <Stm25pConfigP__Sector__write.part.282>:
    8e4c:	0b 12       	push	r11		
    8e4e:	0a 12       	push	r10		
    8e50:	1a 41 06 00 	mov	6(r1),	r10	;0x0006(r1)
    8e54:	1b 41 08 00 	mov	8(r1),	r11	;0x0008(r1)
    8e58:	a2 43 98 18 	mov	#2,	&0x1898	;r3 As==10
    8e5c:	82 4e 96 1c 	mov	r14,	&0x1c96	
    8e60:	82 4f 98 1c 	mov	r15,	&0x1c98	
    8e64:	82 4d 08 26 	mov	r13,	&0x2608	
    8e68:	82 4a d2 15 	mov	r10,	&0x15d2	
    8e6c:	82 4b d4 15 	mov	r11,	&0x15d4	
    8e70:	82 4a fa 23 	mov	r10,	&0x23fa	
    8e74:	82 4b fc 23 	mov	r11,	&0x23fc	
    8e78:	e2 43 90 12 	mov.b	#2,	&0x1290	;r3 As==10
    8e7c:	82 4e f0 1c 	mov	r14,	&0x1cf0	
    8e80:	82 4f f2 1c 	mov	r15,	&0x1cf2	
    8e84:	82 4d de 1b 	mov	r13,	&0x1bde	
    8e88:	3e f0 ff 00 	and	#255,	r14	;#0x00ff
    8e8c:	0f f3       	and	#0,	r15	;r3 As==00
    8e8e:	3c 40 00 01 	mov	#256,	r12	;#0x0100
    8e92:	0d 43       	clr	r13		
    8e94:	0c 8e       	sub	r14,	r12	
    8e96:	0d 7f       	subc	r15,	r13	
    8e98:	0e 4c       	mov	r12,	r14	
    8e9a:	0f 4d       	mov	r13,	r15	
    8e9c:	0b 9d       	cmp	r13,	r11	
    8e9e:	04 28       	jnc	$+10     	;abs 0x8ea8
    8ea0:	0d 9b       	cmp	r11,	r13	
    8ea2:	04 28       	jnc	$+10     	;abs 0x8eac
    8ea4:	0a 9c       	cmp	r12,	r10	
    8ea6:	02 2c       	jc	$+6      	;abs 0x8eac
    8ea8:	0e 4a       	mov	r10,	r14	
    8eaa:	0f 4b       	mov	r11,	r15	
    8eac:	82 4e 22 1d 	mov	r14,	&0x1d22	
    8eb0:	82 4f 24 1d 	mov	r15,	&0x1d24	
    8eb4:	5f 43       	mov.b	#1,	r15	;r3 As==01
    8eb6:	b0 12 b4 8d 	call	#0x8db4	
    8eba:	3a 41       	pop	r10		
    8ebc:	3b 41       	pop	r11		
    8ebe:	30 41       	ret			

00008ec0 <Stm25pConfigP__Sector__erase.part.288.constprop.364>:
    8ec0:	b2 40 03 00 98 18 	mov	#3,	&0x1898	;#0x0003
    8ec6:	4f 4f       	mov.b	r15,	r15	
    8ec8:	82 4f 96 1c 	mov	r15,	&0x1c96	
    8ecc:	82 43 98 1c 	mov	#0,	&0x1c98	;r3 As==00
    8ed0:	92 43 fa 23 	mov	#1,	&0x23fa	;r3 As==01
    8ed4:	82 43 fc 23 	mov	#0,	&0x23fc	;r3 As==00
    8ed8:	82 43 d2 15 	mov	#0,	&0x15d2	;r3 As==00
    8edc:	82 43 d4 15 	mov	#0,	&0x15d4	;r3 As==00
    8ee0:	f2 40 d8 ff 90 12 	mov.b	#-40,	&0x1290	;#0xffd8
    8ee6:	82 43 f0 1c 	mov	#0,	&0x1cf0	;r3 As==00
    8eea:	82 4f f2 1c 	mov	r15,	&0x1cf2	
    8eee:	5f 43       	mov.b	#1,	r15	;r3 As==01
    8ef0:	b0 12 b4 8d 	call	#0x8db4	
    8ef4:	30 41       	ret			

00008ef6 <Stm25pSpiP__signalDone.constprop.365>:
    8ef6:	0b 12       	push	r11		
    8ef8:	0a 12       	push	r10		
    8efa:	09 12       	push	r9		
    8efc:	c2 43 ae 11 	mov.b	#0,	&0x11ae	;r3 As==00
    8f00:	5f 42 90 12 	mov.b	&0x1290,r15	
    8f04:	7f 90 03 00 	cmp.b	#3,	r15	;#0x0003
    8f08:	06 24       	jz	$+14     	;abs 0x8f16
    8f0a:	7f 90 d8 ff 	cmp.b	#-40,	r15	;#0xffd8
    8f0e:	44 24       	jz	$+138    	;abs 0x8f98
    8f10:	6f 93       	cmp.b	#2,	r15	;r3 As==10
    8f12:	71 20       	jnz	$+228    	;abs 0x8ff6
    8f14:	09 3c       	jmp	$+20     	;abs 0x8f28
    8f16:	c2 93 ac 11 	tst.b	&0x11ac	
    8f1a:	6a 24       	jz	$+214    	;abs 0x8ff0
    8f1c:	c2 43 ac 11 	mov.b	#0,	&0x11ac	;r3 As==00
    8f20:	92 42 c8 1b 40 24 	mov	&0x1bc8,&0x2440	
    8f26:	64 3c       	jmp	$+202    	;abs 0x8ff0
    8f28:	1c 42 22 1d 	mov	&0x1d22,r12	
    8f2c:	1d 42 24 1d 	mov	&0x1d24,r13	
    8f30:	19 42 de 1b 	mov	&0x1bde,r9	
    8f34:	1a 42 f0 1c 	mov	&0x1cf0,r10	
    8f38:	1b 42 f2 1c 	mov	&0x1cf2,r11	
    8f3c:	1e 42 d2 15 	mov	&0x15d2,r14	
    8f40:	1f 42 d4 15 	mov	&0x15d4,r15	
    8f44:	0e 8c       	sub	r12,	r14	
    8f46:	0f 7d       	subc	r13,	r15	
    8f48:	82 4e d2 15 	mov	r14,	&0x15d2	
    8f4c:	82 4f d4 15 	mov	r15,	&0x15d4	
    8f50:	0e 93       	tst	r14		
    8f52:	02 20       	jnz	$+6      	;abs 0x8f58
    8f54:	0f 93       	tst	r15		
    8f56:	4d 24       	jz	$+156    	;abs 0x8ff2
    8f58:	0a 5c       	add	r12,	r10	
    8f5a:	0b 6d       	addc	r13,	r11	
    8f5c:	e2 43 90 12 	mov.b	#2,	&0x1290	;r3 As==10
    8f60:	82 4a f0 1c 	mov	r10,	&0x1cf0	
    8f64:	82 4b f2 1c 	mov	r11,	&0x1cf2	
    8f68:	09 5c       	add	r12,	r9	
    8f6a:	82 49 de 1b 	mov	r9,	&0x1bde	
    8f6e:	3a f0 ff 00 	and	#255,	r10	;#0x00ff
    8f72:	0b f3       	and	#0,	r11	;r3 As==00
    8f74:	3c 40 00 01 	mov	#256,	r12	;#0x0100
    8f78:	0d 43       	clr	r13		
    8f7a:	0c 8a       	sub	r10,	r12	
    8f7c:	0d 7b       	subc	r11,	r13	
    8f7e:	0f 9d       	cmp	r13,	r15	
    8f80:	04 28       	jnc	$+10     	;abs 0x8f8a
    8f82:	0d 9f       	cmp	r15,	r13	
    8f84:	04 28       	jnc	$+10     	;abs 0x8f8e
    8f86:	0e 9c       	cmp	r12,	r14	
    8f88:	02 2c       	jc	$+6      	;abs 0x8f8e
    8f8a:	0c 4e       	mov	r14,	r12	
    8f8c:	0d 4f       	mov	r15,	r13	
    8f8e:	82 4c 22 1d 	mov	r12,	&0x1d22	
    8f92:	82 4d 24 1d 	mov	r13,	&0x1d24	
    8f96:	28 3c       	jmp	$+82     	;abs 0x8fe8
    8f98:	1e 42 d2 15 	mov	&0x15d2,r14	
    8f9c:	1f 42 d4 15 	mov	&0x15d4,r15	
    8fa0:	1e 53       	inc	r14		
    8fa2:	0f 63       	adc	r15		
    8fa4:	82 4e d2 15 	mov	r14,	&0x15d2	
    8fa8:	82 4f d4 15 	mov	r15,	&0x15d4	
    8fac:	1f 92 fc 23 	cmp	&0x23fc,r15	
    8fb0:	06 28       	jnc	$+14     	;abs 0x8fbe
    8fb2:	82 9f fc 23 	cmp	r15,	&0x23fc	
    8fb6:	1c 28       	jnc	$+58     	;abs 0x8ff0
    8fb8:	1e 92 fa 23 	cmp	&0x23fa,r14	
    8fbc:	19 2c       	jc	$+52     	;abs 0x8ff0
    8fbe:	c2 93 64 12 	tst.b	&0x1264	
    8fc2:	02 24       	jz	$+6      	;abs 0x8fc8
    8fc4:	7d 43       	mov.b	#-1,	r13	;r3 As==11
    8fc6:	01 3c       	jmp	$+4      	;abs 0x8fca
    8fc8:	4d 43       	clr.b	r13		
    8fca:	4f 4d       	mov.b	r13,	r15	
    8fcc:	0f 5f       	rla	r15		
    8fce:	5f 4f dc f8 	mov.b	-1828(r15),r15	;0xf8dc(r15)
    8fd2:	5f 52 96 1c 	add.b	&0x1c96,r15	
    8fd6:	4f 5e       	add.b	r14,	r15	
    8fd8:	f2 40 d8 ff 90 12 	mov.b	#-40,	&0x1290	;#0xffd8
    8fde:	4f 4f       	mov.b	r15,	r15	
    8fe0:	82 43 f0 1c 	mov	#0,	&0x1cf0	;r3 As==00
    8fe4:	82 4f f2 1c 	mov	r15,	&0x1cf2	
    8fe8:	5f 43       	mov.b	#1,	r15	;r3 As==01
    8fea:	b0 12 b4 8d 	call	#0x8db4	
    8fee:	03 3c       	jmp	$+8      	;abs 0x8ff6
    8ff0:	4f 43       	clr.b	r15		
    8ff2:	b0 12 98 74 	call	#0x7498	
    8ff6:	39 41       	pop	r9		
    8ff8:	3a 41       	pop	r10		
    8ffa:	3b 41       	pop	r11		
    8ffc:	30 41       	ret			

00008ffe <Stm25pSectorP__Sector__computeCrc.constprop.367>:
    8ffe:	a2 42 98 18 	mov	#4,	&0x1898	;r2 As==10
    9002:	82 4e 96 1c 	mov	r14,	&0x1c96	
    9006:	82 4f 98 1c 	mov	r15,	&0x1c98	
    900a:	b2 40 00 08 fa 23 	mov	#2048,	&0x23fa	;#0x0800
    9010:	82 43 fc 23 	mov	#0,	&0x23fc	;r3 As==00
    9014:	d2 43 ac 11 	mov.b	#1,	&0x11ac	;r3 As==01
    9018:	82 43 c8 1b 	mov	#0,	&0x1bc8	;r3 As==00
    901c:	82 4e 7e 12 	mov	r14,	&0x127e	
    9020:	82 4f 80 12 	mov	r15,	&0x1280	
    9024:	82 4e f0 1c 	mov	r14,	&0x1cf0	
    9028:	82 4f f2 1c 	mov	r15,	&0x1cf2	
    902c:	b2 40 00 08 60 12 	mov	#2048,	&0x1260	;#0x0800
    9032:	82 43 62 12 	mov	#0,	&0x1262	;r3 As==00
    9036:	f2 40 03 00 90 12 	mov.b	#3,	&0x1290	;#0x0003
    903c:	b2 40 6e 13 de 1b 	mov	#4974,	&0x1bde	;#0x136e
    9042:	b2 40 10 00 22 1d 	mov	#16,	&0x1d22	;#0x0010
    9048:	82 43 24 1d 	mov	#0,	&0x1d24	;r3 As==00
    904c:	4f 43       	clr.b	r15		
    904e:	b0 12 b4 8d 	call	#0x8db4	
    9052:	30 41       	ret			

00009054 <CC2420SpiP__Reg__write>:
    9054:	0b 12       	push	r11		
    9056:	0a 12       	push	r10		
    9058:	09 12       	push	r9		
    905a:	49 4f       	mov.b	r15,	r9	
    905c:	0a 4e       	mov	r14,	r10	
    905e:	b0 12 b2 5f 	call	#0x5fb2	
    9062:	4b 4f       	mov.b	r15,	r11	
    9064:	b0 12 76 80 	call	#0x8076	
    9068:	4f 93       	tst.b	r15		
    906a:	05 24       	jz	$+12     	;abs 0x9076
    906c:	4f 4b       	mov.b	r11,	r15	
    906e:	b0 12 c4 5f 	call	#0x5fc4	
    9072:	4f 43       	clr.b	r15		
    9074:	0d 3c       	jmp	$+28     	;abs 0x9090
    9076:	4f 4b       	mov.b	r11,	r15	
    9078:	b0 12 c4 5f 	call	#0x5fc4	
    907c:	4f 49       	mov.b	r9,	r15	
    907e:	b0 12 7c 4a 	call	#0x4a7c	
    9082:	0f 4a       	mov	r10,	r15	
    9084:	8f 10       	swpb	r15		
    9086:	b0 12 7c 4a 	call	#0x4a7c	
    908a:	4f 4a       	mov.b	r10,	r15	
    908c:	b0 12 7c 4a 	call	#0x4a7c	
    9090:	39 41       	pop	r9		
    9092:	3a 41       	pop	r10		
    9094:	3b 41       	pop	r11		
    9096:	30 41       	ret			

00009098 <CC2420SpiP__Ram__write>:
    9098:	0b 12       	push	r11		
    909a:	0a 12       	push	r10		
    909c:	09 12       	push	r9		
    909e:	08 12       	push	r8		
    90a0:	07 12       	push	r7		
    90a2:	08 4f       	mov	r15,	r8	
    90a4:	4a 4e       	mov.b	r14,	r10	
    90a6:	07 4d       	mov	r13,	r7	
    90a8:	4b 4c       	mov.b	r12,	r11	
    90aa:	b0 12 b2 5f 	call	#0x5fb2	
    90ae:	49 4f       	mov.b	r15,	r9	
    90b0:	b0 12 76 80 	call	#0x8076	
    90b4:	4f 93       	tst.b	r15		
    90b6:	05 24       	jz	$+12     	;abs 0x90c2
    90b8:	4f 49       	mov.b	r9,	r15	
    90ba:	b0 12 c4 5f 	call	#0x5fc4	
    90be:	4f 43       	clr.b	r15		
    90c0:	21 3c       	jmp	$+68     	;abs 0x9104
    90c2:	4f 49       	mov.b	r9,	r15	
    90c4:	b0 12 c4 5f 	call	#0x5fc4	
    90c8:	4a 4a       	mov.b	r10,	r10	
    90ca:	0a 58       	add	r8,	r10	
    90cc:	4f 4a       	mov.b	r10,	r15	
    90ce:	7f d0 80 ff 	bis.b	#-128,	r15	;#0xff80
    90d2:	b0 12 7c 4a 	call	#0x4a7c	
    90d6:	49 4f       	mov.b	r15,	r9	
    90d8:	0e 4a       	mov	r10,	r14	
    90da:	12 c3       	clrc			
    90dc:	0e 10       	rrc	r14		
    90de:	4f 4e       	mov.b	r14,	r15	
    90e0:	7f f0 c0 ff 	and.b	#-64,	r15	;#0xffc0
    90e4:	b0 12 7c 4a 	call	#0x4a7c	
    90e8:	4a 4b       	mov.b	r11,	r10	
    90ea:	09 3c       	jmp	$+20     	;abs 0x90fe
    90ec:	4e 4b       	mov.b	r11,	r14	
    90ee:	0f 4a       	mov	r10,	r15	
    90f0:	0f 8e       	sub	r14,	r15	
    90f2:	0e 4f       	mov	r15,	r14	
    90f4:	0e 57       	add	r7,	r14	
    90f6:	6f 4e       	mov.b	@r14,	r15	
    90f8:	b0 12 7c 4a 	call	#0x4a7c	
    90fc:	7b 53       	add.b	#-1,	r11	;r3 As==11
    90fe:	4b 93       	tst.b	r11		
    9100:	f5 23       	jnz	$-20     	;abs 0x90ec
    9102:	4f 49       	mov.b	r9,	r15	
    9104:	37 41       	pop	r7		
    9106:	38 41       	pop	r8		
    9108:	39 41       	pop	r9		
    910a:	3a 41       	pop	r10		
    910c:	3b 41       	pop	r11		
    910e:	30 41       	ret			

00009110 <CC2420ControlP__writeId>:
    9110:	0b 12       	push	r11		
    9112:	31 50 f4 ff 	add	#-12,	r1	;#0xfff4
    9116:	b0 12 b2 5f 	call	#0x5fb2	
    911a:	4b 4f       	mov.b	r15,	r11	
    911c:	3d 42       	mov	#8,	r13	;r2 As==11
    911e:	3e 40 40 1d 	mov	#7488,	r14	;#0x1d40
    9122:	0f 41       	mov	r1,	r15	
    9124:	b0 12 80 e8 	call	#0xe880	
    9128:	1e 42 be 15 	mov	&0x15be,r14	
    912c:	c1 4e 08 00 	mov.b	r14,	8(r1)	;0x0008(r1)
    9130:	8e 10       	swpb	r14		
    9132:	c1 4e 09 00 	mov.b	r14,	9(r1)	;0x0009(r1)
    9136:	1e 42 48 16 	mov	&0x1648,r14	
    913a:	c1 4e 0a 00 	mov.b	r14,	10(r1)	;0x000a(r1)
    913e:	8e 10       	swpb	r14		
    9140:	c1 4e 0b 00 	mov.b	r14,	11(r1)	;0x000b(r1)
    9144:	4f 4b       	mov.b	r11,	r15	
    9146:	b0 12 c4 5f 	call	#0x5fc4	
    914a:	7c 40 0c 00 	mov.b	#12,	r12	;#0x000c
    914e:	0d 41       	mov	r1,	r13	
    9150:	4e 43       	clr.b	r14		
    9152:	3f 40 60 01 	mov	#352,	r15	;#0x0160
    9156:	b0 12 98 90 	call	#0x9098	
    915a:	31 50 0c 00 	add	#12,	r1	;#0x000c
    915e:	3b 41       	pop	r11		
    9160:	30 41       	ret			

00009162 <LedsP__Leds__led0On>:
    9162:	b0 12 b2 5f 	call	#0x5fb2	
    9166:	f2 f0 ef ff 31 00 	and.b	#-17,	&0x0031	;#0xffef
    916c:	b0 12 c4 5f 	call	#0x5fc4	
    9170:	30 41       	ret			

00009172 <SensingP__Leds__set>:
    9172:	0b 12       	push	r11		
    9174:	0a 12       	push	r10		
    9176:	4b 4f       	mov.b	r15,	r11	
    9178:	b0 12 b2 5f 	call	#0x5fb2	
    917c:	4a 4f       	mov.b	r15,	r10	
    917e:	4b 4b       	mov.b	r11,	r11	
    9180:	1b b3       	bit	#1,	r11	;r3 As==01
    9182:	03 24       	jz	$+8      	;abs 0x918a
    9184:	b0 12 62 91 	call	#0x9162	
    9188:	03 3c       	jmp	$+8      	;abs 0x9190
    918a:	f2 d0 10 00 31 00 	bis.b	#16,	&0x0031	;#0x0010
    9190:	0f 4b       	mov	r11,	r15	
    9192:	2f f3       	and	#2,	r15	;r3 As==10
    9194:	5e 42 31 00 	mov.b	&0x0031,r14	
    9198:	03 24       	jz	$+8      	;abs 0x91a0
    919a:	7e f0 df ff 	and.b	#-33,	r14	;#0xffdf
    919e:	02 3c       	jmp	$+6      	;abs 0x91a4
    91a0:	7e d0 20 00 	bis.b	#32,	r14	;#0x0020
    91a4:	c2 4e 31 00 	mov.b	r14,	&0x0031	
    91a8:	2b f2       	and	#4,	r11	;r2 As==10
    91aa:	5e 42 31 00 	mov.b	&0x0031,r14	
    91ae:	03 24       	jz	$+8      	;abs 0x91b6
    91b0:	7e f0 bf ff 	and.b	#-65,	r14	;#0xffbf
    91b4:	02 3c       	jmp	$+6      	;abs 0x91ba
    91b6:	7e d0 40 00 	bis.b	#64,	r14	;#0x0040
    91ba:	c2 4e 31 00 	mov.b	r14,	&0x0031	
    91be:	4f 4a       	mov.b	r10,	r15	
    91c0:	b0 12 c4 5f 	call	#0x5fc4	
    91c4:	3a 41       	pop	r10		
    91c6:	3b 41       	pop	r11		
    91c8:	30 41       	ret			

000091ca <CC2420ControlP__writeFsctrl>:
    91ca:	0b 12       	push	r11		
    91cc:	b0 12 b2 5f 	call	#0x5fb2	
    91d0:	5b 42 66 1d 	mov.b	&0x1d66,r11	
    91d4:	b0 12 c4 5f 	call	#0x5fc4	
    91d8:	0f 4b       	mov	r11,	r15	
    91da:	0f 5f       	rla	r15		
    91dc:	0f 5f       	rla	r15		
    91de:	0f 5b       	add	r11,	r15	
    91e0:	3f 50 2e 01 	add	#302,	r15	;#0x012e
    91e4:	0e 4f       	mov	r15,	r14	
    91e6:	3e d0 00 40 	bis	#16384,	r14	;#0x4000
    91ea:	7f 40 18 00 	mov.b	#24,	r15	;#0x0018
    91ee:	b0 12 54 90 	call	#0x9054	
    91f2:	3b 41       	pop	r11		
    91f4:	30 41       	ret			

000091f6 <CC2420ControlP__writeMdmctrl0>:
    91f6:	0b 12       	push	r11		
    91f8:	b0 12 b2 5f 	call	#0x5fb2	
    91fc:	4b 4f       	mov.b	r15,	r11	
    91fe:	c2 93 91 13 	tst.b	&0x1391	
    9202:	04 24       	jz	$+10     	;abs 0x920c
    9204:	1e 43       	mov	#1,	r14	;r3 As==01
    9206:	c2 93 b2 25 	tst.b	&0x25b2	
    920a:	01 20       	jnz	$+4      	;abs 0x920e
    920c:	0e 43       	clr	r14		
    920e:	4e 4e       	mov.b	r14,	r14	
    9210:	8e 10       	swpb	r14		
    9212:	0e 5e       	rla	r14		
    9214:	0e 5e       	rla	r14		
    9216:	0e 5e       	rla	r14		
    9218:	c2 93 c1 15 	tst.b	&0x15c1	
    921c:	04 24       	jz	$+10     	;abs 0x9226
    921e:	1d 43       	mov	#1,	r13	;r3 As==01
    9220:	c2 93 3a 1d 	tst.b	&0x1d3a	
    9224:	01 20       	jnz	$+4      	;abs 0x9228
    9226:	0d 43       	clr	r13		
    9228:	3e d0 e2 22 	bis	#8930,	r14	;#0x22e2
    922c:	0d 5d       	rla	r13		
    922e:	0d 5d       	rla	r13		
    9230:	0d 5d       	rla	r13		
    9232:	0d 5d       	rla	r13		
    9234:	0e dd       	bis	r13,	r14	
    9236:	7f 40 11 00 	mov.b	#17,	r15	;#0x0011
    923a:	b0 12 54 90 	call	#0x9054	
    923e:	4f 4b       	mov.b	r11,	r15	
    9240:	b0 12 c4 5f 	call	#0x5fc4	
    9244:	3b 41       	pop	r11		
    9246:	30 41       	ret			

00009248 <CC2420TransmitP__loadTXFIFO>:
    9248:	0b 12       	push	r11		
    924a:	0a 12       	push	r10		
    924c:	09 12       	push	r9		
    924e:	1b 42 c6 15 	mov	&0x15c6,r11	
    9252:	5a 4b 7e 00 	mov.b	126(r11),r10	;0x007e(r11)
    9256:	4a 93       	tst.b	r10		
    9258:	02 20       	jnz	$+6      	;abs 0x925e
    925a:	7a 40 1f 00 	mov.b	#31,	r10	;#0x001f
    925e:	b0 12 e0 80 	call	#0x80e0	
    9262:	c2 9a 90 13 	cmp.b	r10,	&0x1390	
    9266:	07 24       	jz	$+16     	;abs 0x9276
    9268:	4e 4a       	mov.b	r10,	r14	
    926a:	3e d0 e0 80 	bis	#-32544,r14	;#0x80e0
    926e:	7f 40 15 00 	mov.b	#21,	r15	;#0x0015
    9272:	b0 12 54 90 	call	#0x9054	
    9276:	c2 4a 90 13 	mov.b	r10,	&0x1390	
    927a:	69 4b       	mov.b	@r11,	r9	
    927c:	b0 12 b2 5f 	call	#0x5fb2	
    9280:	4a 4f       	mov.b	r15,	r10	
    9282:	b0 12 76 80 	call	#0x8076	
    9286:	4f 93       	tst.b	r15		
    9288:	04 24       	jz	$+10     	;abs 0x9292
    928a:	4f 4a       	mov.b	r10,	r15	
    928c:	b0 12 c4 5f 	call	#0x5fc4	
    9290:	1f 3c       	jmp	$+64     	;abs 0x92d0
    9292:	4f 4a       	mov.b	r10,	r15	
    9294:	b0 12 c4 5f 	call	#0x5fc4	
    9298:	b2 40 3e 00 4c 16 	mov	#62,	&0x164c	;#0x003e
    929e:	7f 40 3e 00 	mov.b	#62,	r15	;#0x003e
    92a2:	b0 12 7c 4a 	call	#0x4a7c	
    92a6:	4f 49       	mov.b	r9,	r15	
    92a8:	7f 53       	add.b	#-1,	r15	;r3 As==11
    92aa:	4f 4f       	mov.b	r15,	r15	
    92ac:	c2 43 4a 16 	mov.b	#0,	&0x164a	;r3 As==00
    92b0:	82 4b e8 15 	mov	r11,	&0x15e8	
    92b4:	82 43 9e 1c 	mov	#0,	&0x1c9e	;r3 As==00
    92b8:	82 4f 18 25 	mov	r15,	&0x2518	
    92bc:	82 43 0e 25 	mov	#0,	&0x250e	;r3 As==00
    92c0:	0f 93       	tst	r15		
    92c2:	03 24       	jz	$+8      	;abs 0x92ca
    92c4:	b0 12 f0 80 	call	#0x80f0	
    92c8:	03 3c       	jmp	$+8      	;abs 0x92d0
    92ca:	7f 42       	mov.b	#8,	r15	;r2 As==11
    92cc:	b0 12 8a 63 	call	#0x638a	
    92d0:	39 41       	pop	r9		
    92d2:	3a 41       	pop	r10		
    92d4:	3b 41       	pop	r11		
    92d6:	30 41       	ret			

000092d8 <DeferredPowerManagerP__0__ResourceDefaultOwner__release>:
    92d8:	0b 12       	push	r11		
    92da:	b0 12 b2 5f 	call	#0x5fb2	
    92de:	4b 4f       	mov.b	r15,	r11	
    92e0:	d2 93 00 11 	cmp.b	#1,	&0x1100	;r3 As==01
    92e4:	16 20       	jnz	$+46     	;abs 0x9312
    92e6:	5e 42 b6 11 	mov.b	&0x11b6,r14	
    92ea:	5e 93       	cmp.b	#1,	r14	;r3 As==01
    92ec:	06 20       	jnz	$+14     	;abs 0x92fa
    92ee:	7f 40 22 00 	mov.b	#34,	r15	;#0x0022
    92f2:	b0 12 8a 63 	call	#0x638a	
    92f6:	4f 4b       	mov.b	r11,	r15	
    92f8:	08 3c       	jmp	$+18     	;abs 0x930a
    92fa:	6e 93       	cmp.b	#2,	r14	;r3 As==10
    92fc:	0a 20       	jnz	$+22     	;abs 0x9312
    92fe:	d2 42 c0 15 00 11 	mov.b	&0x15c0,&0x1100	
    9304:	f2 40 03 00 b6 11 	mov.b	#3,	&0x11b6	;#0x0003
    930a:	b0 12 c4 5f 	call	#0x5fc4	
    930e:	4f 43       	clr.b	r15		
    9310:	04 3c       	jmp	$+10     	;abs 0x931a
    9312:	4f 4b       	mov.b	r11,	r15	
    9314:	b0 12 c4 5f 	call	#0x5fc4	
    9318:	5f 43       	mov.b	#1,	r15	;r3 As==01
    931a:	3b 41       	pop	r11		
    931c:	30 41       	ret			

0000931e <DeferredPowerManagerP__0__SplitControl__stopDone.isra.307>:
    931e:	d2 93 b2 11 	cmp.b	#1,	&0x11b2	;r3 As==01
    9322:	07 20       	jnz	$+16     	;abs 0x9332
    9324:	5f 43       	mov.b	#1,	r15	;r3 As==01
    9326:	b0 12 a2 83 	call	#0x83a2	
    932a:	4f 93       	tst.b	r15		
    932c:	02 20       	jnz	$+6      	;abs 0x9332
    932e:	92 43 c4 15 	mov	#1,	&0x15c4	;r3 As==01
    9332:	b0 12 b2 5f 	call	#0x5fb2	
    9336:	c2 43 b2 11 	mov.b	#0,	&0x11b2	;r3 As==00
    933a:	c2 43 b4 11 	mov.b	#0,	&0x11b4	;r3 As==00
    933e:	b0 12 c4 5f 	call	#0x5fc4	
    9342:	30 41       	ret			

00009344 <Msp430Adc12ImplP__SingleChannel__configureSingle.part.321>:
    9344:	0b 12       	push	r11		
    9346:	0a 12       	push	r10		
    9348:	09 12       	push	r9		
    934a:	08 12       	push	r8		
    934c:	07 12       	push	r7		
    934e:	4b 4f       	mov.b	r15,	r11	
    9350:	0a 4e       	mov	r14,	r10	
    9352:	b0 12 b2 5f 	call	#0x5fb2	
    9356:	48 4f       	mov.b	r15,	r8	
    9358:	5e 42 c4 1b 	mov.b	&0x1bc4,r14	
    935c:	3e f0 20 00 	and	#32,	r14	;#0x0020
    9360:	05 24       	jz	$+12     	;abs 0x936c
    9362:	b0 12 c4 5f 	call	#0x5fc4	
    9366:	7b 40 05 00 	mov.b	#5,	r11	;#0x0005
    936a:	5e 3c       	jmp	$+190    	;abs 0x9428
    936c:	e2 93 b8 11 	cmp.b	#2,	&0x11b8	;r3 As==10
    9370:	03 20       	jnz	$+8      	;abs 0x9378
    9372:	5e 42 0a 11 	mov.b	&0x110a,r14	
    9376:	01 3c       	jmp	$+4      	;abs 0x937a
    9378:	7e 43       	mov.b	#-1,	r14	;r3 As==11
    937a:	4e 9b       	cmp.b	r11,	r14	
    937c:	51 20       	jnz	$+164    	;abs 0x9420
    937e:	5c 4a 01 00 	mov.b	1(r10),	r12	;0x0001(r10)
    9382:	3c f0 03 00 	and	#3,	r12	;#0x0003
    9386:	0c 5c       	rla	r12		
    9388:	0c 5c       	rla	r12		
    938a:	0c 5c       	rla	r12		
    938c:	5d 4a 01 00 	mov.b	1(r10),	r13	;0x0001(r10)
    9390:	12 c3       	clrc			
    9392:	4d 10       	rrc.b	r13		
    9394:	12 c3       	clrc			
    9396:	4d 10       	rrc.b	r13		
    9398:	3d f0 07 00 	and	#7,	r13	;#0x0007
    939c:	0d 5d       	rla	r13		
    939e:	0d 5d       	rla	r13		
    93a0:	0d 5d       	rla	r13		
    93a2:	0d 5d       	rla	r13		
    93a4:	0d 5d       	rla	r13		
    93a6:	09 4c       	mov	r12,	r9	
    93a8:	09 dd       	bis	r13,	r9	
    93aa:	39 d0 00 02 	bis	#512,	r9	;#0x0200
    93ae:	67 4a       	mov.b	@r10,	r7	
    93b0:	77 d0 80 ff 	bis.b	#-128,	r7	;#0xff80
    93b4:	b0 12 14 48 	call	#0x4814	
    93b8:	0b 4f       	mov	r15,	r11	
    93ba:	3b d0 80 00 	bis	#128,	r11	;#0x0080
    93be:	5d 4a 01 00 	mov.b	1(r10),	r13	;0x0001(r10)
    93c2:	12 c3       	clrc			
    93c4:	4d 10       	rrc.b	r13		
    93c6:	12 c3       	clrc			
    93c8:	4d 10       	rrc.b	r13		
    93ca:	12 c3       	clrc			
    93cc:	4d 10       	rrc.b	r13		
    93ce:	12 c3       	clrc			
    93d0:	4d 10       	rrc.b	r13		
    93d2:	12 c3       	clrc			
    93d4:	4d 10       	rrc.b	r13		
    93d6:	5c 4a 02 00 	mov.b	2(r10),	r12	;0x0002(r10)
    93da:	1c f3       	and	#1,	r12	;r3 As==01
    93dc:	0c 5c       	rla	r12		
    93de:	0c 5c       	rla	r12		
    93e0:	0c 5c       	rla	r12		
    93e2:	4c dd       	bis.b	r13,	r12	
    93e4:	4c 4c       	mov.b	r12,	r12	
    93e6:	0f 4c       	mov	r12,	r15	
    93e8:	8f 10       	swpb	r15		
    93ea:	3b f0 ff f0 	and	#-3841,	r11	;#0xf0ff
    93ee:	0b df       	bis	r15,	r11	
    93f0:	0c 4f       	mov	r15,	r12	
    93f2:	0c 5c       	rla	r12		
    93f4:	0c 5c       	rla	r12		
    93f6:	0c 5c       	rla	r12		
    93f8:	0c 5c       	rla	r12		
    93fa:	3b f0 ff 0f 	and	#4095,	r11	;#0x0fff
    93fe:	d2 43 c4 1b 	mov.b	#1,	&0x1bc4	;r3 As==01
    9402:	0f 4b       	mov	r11,	r15	
    9404:	0f dc       	bis	r12,	r15	
    9406:	b0 12 0e 48 	call	#0x480e	
    940a:	0f 49       	mov	r9,	r15	
    940c:	b0 12 08 48 	call	#0x4808	
    9410:	4e 47       	mov.b	r7,	r14	
    9412:	4f 43       	clr.b	r15		
    9414:	b0 12 fa 47 	call	#0x47fa	
    9418:	92 43 a6 01 	mov	#1,	&0x01a6	;r3 As==01
    941c:	4b 43       	clr.b	r11		
    941e:	01 3c       	jmp	$+4      	;abs 0x9422
    9420:	7b 42       	mov.b	#8,	r11	;r2 As==11
    9422:	4f 48       	mov.b	r8,	r15	
    9424:	b0 12 c4 5f 	call	#0x5fc4	
    9428:	4f 4b       	mov.b	r11,	r15	
    942a:	37 41       	pop	r7		
    942c:	38 41       	pop	r8		
    942e:	39 41       	pop	r9		
    9430:	3a 41       	pop	r10		
    9432:	3b 41       	pop	r11		
    9434:	30 41       	ret			

00009436 <SimpleArbiterP__0__Resource__release>:
    9436:	0b 12       	push	r11		
    9438:	0a 12       	push	r10		
    943a:	09 12       	push	r9		
    943c:	08 12       	push	r8		
    943e:	4b 4f       	mov.b	r15,	r11	
    9440:	b0 12 b2 5f 	call	#0x5fb2	
    9444:	49 4f       	mov.b	r15,	r9	
    9446:	e2 93 b8 11 	cmp.b	#2,	&0x11b8	;r3 As==10
    944a:	3e 20       	jnz	$+126    	;abs 0x94c8
    944c:	c2 9b 0a 11 	cmp.b	r11,	&0x110a	
    9450:	3b 20       	jnz	$+120    	;abs 0x94c8
    9452:	c2 93 e1 1b 	tst.b	&0x1be1	
    9456:	05 20       	jnz	$+12     	;abs 0x9462
    9458:	f2 43 0a 11 	mov.b	#-1,	&0x110a	;r3 As==11
    945c:	c2 43 b8 11 	mov.b	#0,	&0x11b8	;r3 As==00
    9460:	2e 3c       	jmp	$+94     	;abs 0x94be
    9462:	5f 42 ba 11 	mov.b	&0x11ba,r15	
    9466:	0d 4f       	mov	r15,	r13	
    9468:	1d 53       	inc	r13		
    946a:	2d 93       	cmp	#2,	r13	;r3 As==10
    946c:	01 20       	jnz	$+4      	;abs 0x9470
    946e:	0d 43       	clr	r13		
    9470:	4b 4d       	mov.b	r13,	r11	
    9472:	4e 4d       	mov.b	r13,	r14	
    9474:	12 c3       	clrc			
    9476:	4e 10       	rrc.b	r14		
    9478:	12 c3       	clrc			
    947a:	4e 10       	rrc.b	r14		
    947c:	12 c3       	clrc			
    947e:	4e 10       	rrc.b	r14		
    9480:	4e 4e       	mov.b	r14,	r14	
    9482:	58 4e e1 1b 	mov.b	7137(r14),r8	;0x1be1(r14)
    9486:	1c 43       	mov	#1,	r12	;r3 As==01
    9488:	4a 4b       	mov.b	r11,	r10	
    948a:	7a f0 07 00 	and.b	#7,	r10	;#0x0007
    948e:	4a 93       	tst.b	r10		
    9490:	03 24       	jz	$+8      	;abs 0x9498
    9492:	0c 5c       	rla	r12		
    9494:	7a 53       	add.b	#-1,	r10	;r3 As==11
    9496:	fb 3f       	jmp	$-8      	;abs 0x948e
    9498:	48 bc       	bit.b	r12,	r8	
    949a:	06 24       	jz	$+14     	;abs 0x94a8
    949c:	48 cc       	bic.b	r12,	r8	
    949e:	ce 48 e1 1b 	mov.b	r8,	7137(r14);0x1be1(r14)
    94a2:	c2 4b ba 11 	mov.b	r11,	&0x11ba	
    94a6:	03 3c       	jmp	$+8      	;abs 0x94ae
    94a8:	0d 9f       	cmp	r15,	r13	
    94aa:	de 23       	jnz	$-66     	;abs 0x9468
    94ac:	7b 43       	mov.b	#-1,	r11	;r3 As==11
    94ae:	c2 4b 0a 11 	mov.b	r11,	&0x110a	
    94b2:	d2 43 b8 11 	mov.b	#1,	&0x11b8	;r3 As==01
    94b6:	7f 40 1c 00 	mov.b	#28,	r15	;#0x001c
    94ba:	b0 12 8a 63 	call	#0x638a	
    94be:	4f 49       	mov.b	r9,	r15	
    94c0:	b0 12 c4 5f 	call	#0x5fc4	
    94c4:	4f 43       	clr.b	r15		
    94c6:	04 3c       	jmp	$+10     	;abs 0x94d0
    94c8:	4f 49       	mov.b	r9,	r15	
    94ca:	b0 12 c4 5f 	call	#0x5fc4	
    94ce:	5f 43       	mov.b	#1,	r15	;r3 As==01
    94d0:	38 41       	pop	r8		
    94d2:	39 41       	pop	r9		
    94d4:	3a 41       	pop	r10		
    94d6:	3b 41       	pop	r11		
    94d8:	30 41       	ret			

000094da <Msp430RefVoltArbiterImplP__AdcResource__release>:
    94da:	4f 93       	tst.b	r15		
    94dc:	02 24       	jz	$+6      	;abs 0x94e2
    94de:	5f 93       	cmp.b	#1,	r15	;r3 As==01
    94e0:	03 20       	jnz	$+8      	;abs 0x94e8
    94e2:	b0 12 36 94 	call	#0x9436	
    94e6:	30 41       	ret			
    94e8:	5f 43       	mov.b	#1,	r15	;r3 As==01
    94ea:	30 41       	ret			

000094ec <AdcP__ResourceRead__release.part.323>:
    94ec:	c2 93 09 11 	tst.b	&0x1109	
    94f0:	04 20       	jnz	$+10     	;abs 0x94fa
    94f2:	7f 40 1d 00 	mov.b	#29,	r15	;#0x001d
    94f6:	b0 12 8a 63 	call	#0x638a	
    94fa:	4f 43       	clr.b	r15		
    94fc:	b0 12 da 94 	call	#0x94da	
    9500:	30 41       	ret			

00009502 <Msp430RefVoltArbiterImplP__ClientResource__granted>:
    9502:	4f 93       	tst.b	r15		
    9504:	03 24       	jz	$+8      	;abs 0x950c
    9506:	5f 93       	cmp.b	#1,	r15	;r3 As==01
    9508:	51 20       	jnz	$+164    	;abs 0x95ac
    950a:	15 3c       	jmp	$+44     	;abs 0x9536
    950c:	5e 42 04 11 	mov.b	&0x1104,r14	
    9510:	7e f0 0f 00 	and.b	#15,	r14	;#0x000f
    9514:	7e 90 0c 00 	cmp.b	#12,	r14	;#0x000c
    9518:	0b 24       	jz	$+24     	;abs 0x9530
    951a:	3e 40 04 11 	mov	#4356,	r14	;#0x1104
    951e:	b0 12 44 93 	call	#0x9344	
    9522:	4f 93       	tst.b	r15		
    9524:	05 20       	jnz	$+12     	;abs 0x9530
    9526:	c2 43 96 18 	mov.b	#0,	&0x1896	;r3 As==00
    952a:	b0 12 d0 7b 	call	#0x7bd0	
    952e:	30 41       	ret			
    9530:	b0 12 ec 94 	call	#0x94ec	
    9534:	30 41       	ret			
    9536:	1e 42 d0 13 	mov	&0x13d0,r14	
    953a:	1f 42 d2 13 	mov	&0x13d2,r15	
    953e:	0c 4e       	mov	r14,	r12	
    9540:	0d 4f       	mov	r15,	r13	
    9542:	0c f3       	and	#0,	r12	;r3 As==00
    9544:	3d f3       	and	#-1,	r13	;r3 As==11
    9546:	0c 93       	tst	r12		
    9548:	02 20       	jnz	$+6      	;abs 0x954e
    954a:	0d 93       	tst	r13		
    954c:	20 24       	jz	$+66     	;abs 0x958e
    954e:	3c 40 e8 03 	mov	#1000,	r12	;#0x03e8
    9552:	0d 43       	clr	r13		
    9554:	b0 12 c4 e7 	call	#0xe7c4	
    9558:	82 4e 9a 1c 	mov	r14,	&0x1c9a	
    955c:	82 4f 9c 1c 	mov	r15,	&0x1c9c	
    9560:	d2 43 e0 1b 	mov.b	#1,	&0x1be0	;r3 As==01
    9564:	c2 43 08 11 	mov.b	#0,	&0x1108	;r3 As==00
    9568:	b0 12 78 76 	call	#0x7678	
    956c:	82 4e b4 25 	mov	r14,	&0x25b4	
    9570:	82 4f b6 25 	mov	r15,	&0x25b6	
    9574:	3e 40 04 11 	mov	#4356,	r14	;#0x1104
    9578:	5f 43       	mov.b	#1,	r15	;r3 As==01
    957a:	b0 12 44 93 	call	#0x9344	
    957e:	4f 43       	clr.b	r15		
    9580:	b0 12 ca 7a 	call	#0x7aca	
    9584:	4f 93       	tst.b	r15		
    9586:	12 20       	jnz	$+38     	;abs 0x95ac
    9588:	b0 12 12 7d 	call	#0x7d12	
    958c:	30 41       	ret			
    958e:	82 4e 9a 1c 	mov	r14,	&0x1c9a	
    9592:	82 4f 9c 1c 	mov	r15,	&0x1c9c	
    9596:	c2 43 e0 1b 	mov.b	#0,	&0x1be0	;r3 As==00
    959a:	c2 43 08 11 	mov.b	#0,	&0x1108	;r3 As==00
    959e:	4f 43       	clr.b	r15		
    95a0:	b0 12 ca 7a 	call	#0x7aca	
    95a4:	4f 93       	tst.b	r15		
    95a6:	02 20       	jnz	$+6      	;abs 0x95ac
    95a8:	b0 12 20 7d 	call	#0x7d20	
    95ac:	30 41       	ret			

000095ae <Msp430RefVoltGeneratorP__signalStartDone.isra.331>:
    95ae:	0e 4f       	mov	r15,	r14	
    95b0:	5f 42 09 11 	mov.b	&0x1109,r15	
    95b4:	1e 93       	cmp	#1,	r14	;r3 As==01
    95b6:	03 24       	jz	$+8      	;abs 0x95be
    95b8:	3e 90 03 00 	cmp	#3,	r14	;#0x0003
    95bc:	05 20       	jnz	$+12     	;abs 0x95c8
    95be:	7f 93       	cmp.b	#-1,	r15	;r3 As==11
    95c0:	07 24       	jz	$+16     	;abs 0x95d0
    95c2:	b0 12 02 95 	call	#0x9502	
    95c6:	30 41       	ret			
    95c8:	7f 93       	cmp.b	#-1,	r15	;r3 As==11
    95ca:	02 24       	jz	$+6      	;abs 0x95d0
    95cc:	b0 12 02 95 	call	#0x9502	
    95d0:	30 41       	ret			

000095d2 <AdcStreamP__ReadStream__readDone.isra.334>:
    95d2:	0b 12       	push	r11		
    95d4:	4b 4e       	mov.b	r14,	r11	
    95d6:	4f 93       	tst.b	r15		
    95d8:	0f 20       	jnz	$+32     	;abs 0x95f8
    95da:	d2 93 09 11 	cmp.b	#1,	&0x1109	;r3 As==01
    95de:	04 20       	jnz	$+10     	;abs 0x95e8
    95e0:	7f 40 1d 00 	mov.b	#29,	r15	;#0x001d
    95e4:	b0 12 8a 63 	call	#0x638a	
    95e8:	5f 43       	mov.b	#1,	r15	;r3 As==01
    95ea:	b0 12 da 94 	call	#0x94da	
    95ee:	4b 93       	tst.b	r11		
    95f0:	03 20       	jnz	$+8      	;abs 0x95f8
    95f2:	6f 43       	mov.b	#2,	r15	;r3 As==10
    95f4:	b0 12 8a 63 	call	#0x638a	
    95f8:	3b 41       	pop	r11		
    95fa:	30 41       	ret			

000095fc <Msp430RefVoltGeneratorP__switchOff>:
    95fc:	0b 12       	push	r11		
    95fe:	0a 12       	push	r10		
    9600:	b0 12 b2 5f 	call	#0x5fb2	
    9604:	4a 4f       	mov.b	r15,	r10	
    9606:	1e 42 a2 01 	mov	&0x01a2,r14	
    960a:	5e f3       	and.b	#1,	r14	;r3 As==01
    960c:	05 24       	jz	$+12     	;abs 0x9618
    960e:	b0 12 c4 5f 	call	#0x5fc4	
    9612:	7f 40 05 00 	mov.b	#5,	r15	;#0x0005
    9616:	10 3c       	jmp	$+34     	;abs 0x9638
    9618:	b0 12 ee 47 	call	#0x47ee	
    961c:	0b 4f       	mov	r15,	r11	
    961e:	3f f0 fd ff 	and	#-3,	r15	;#0xfffd
    9622:	b0 12 f4 47 	call	#0x47f4	
    9626:	0f 4b       	mov	r11,	r15	
    9628:	3f f0 dd ff 	and	#-35,	r15	;#0xffdd
    962c:	b0 12 f4 47 	call	#0x47f4	
    9630:	4f 4a       	mov.b	r10,	r15	
    9632:	b0 12 c4 5f 	call	#0x5fc4	
    9636:	4f 43       	clr.b	r15		
    9638:	3a 41       	pop	r10		
    963a:	3b 41       	pop	r11		
    963c:	30 41       	ret			

0000963e <Msp430RefVoltGeneratorP__stop>:
    963e:	0b 12       	push	r11		
    9640:	1e 42 42 24 	mov	&0x2442,r14	
    9644:	0e 93       	tst	r14		
    9646:	26 24       	jz	$+78     	;abs 0x9694
    9648:	0d 4e       	mov	r14,	r13	
    964a:	3d 53       	add	#-1,	r13	;r3 As==11
    964c:	2d 93       	cmp	#2,	r13	;r3 As==10
    964e:	0a 2c       	jc	$+22     	;abs 0x9664
    9650:	82 4f 42 24 	mov	r15,	&0x2442	
    9654:	3d 40 14 00 	mov	#20,	r13	;#0x0014
    9658:	0e 43       	clr	r14		
    965a:	7f 40 0c 00 	mov.b	#12,	r15	;#0x000c
    965e:	b0 12 98 77 	call	#0x7798	
    9662:	16 3c       	jmp	$+46     	;abs 0x9690
    9664:	0d 4e       	mov	r14,	r13	
    9666:	3d 50 fd ff 	add	#-3,	r13	;#0xfffd
    966a:	2d 93       	cmp	#2,	r13	;r3 As==10
    966c:	0f 2c       	jc	$+32     	;abs 0x968c
    966e:	b0 12 fc 95 	call	#0x95fc	
    9672:	4b 4f       	mov.b	r15,	r11	
    9674:	4f 93       	tst.b	r15		
    9676:	13 20       	jnz	$+40     	;abs 0x969e
    9678:	1f 42 42 24 	mov	&0x2442,r15	
    967c:	f2 f0 fd ff 58 1c 	and.b	#-3,	&0x1c58	;#0xfffd
    9682:	82 43 42 24 	mov	#0,	&0x2442	;r3 As==00
    9686:	b0 12 ae 95 	call	#0x95ae	
    968a:	09 3c       	jmp	$+20     	;abs 0x969e
    968c:	0e 9f       	cmp	r15,	r14	
    968e:	05 20       	jnz	$+12     	;abs 0x969a
    9690:	4b 43       	clr.b	r11		
    9692:	05 3c       	jmp	$+12     	;abs 0x969e
    9694:	7b 40 09 00 	mov.b	#9,	r11	;#0x0009
    9698:	02 3c       	jmp	$+6      	;abs 0x969e
    969a:	7b 40 05 00 	mov.b	#5,	r11	;#0x0005
    969e:	4f 4b       	mov.b	r11,	r15	
    96a0:	3b 41       	pop	r11		
    96a2:	30 41       	ret			

000096a4 <SimpleArbiterP__0__Resource__request>:
    96a4:	0b 12       	push	r11		
    96a6:	0a 12       	push	r10		
    96a8:	4b 4f       	mov.b	r15,	r11	
    96aa:	b0 12 b2 5f 	call	#0x5fb2	
    96ae:	4a 4f       	mov.b	r15,	r10	
    96b0:	c2 93 b8 11 	tst.b	&0x11b8	
    96b4:	0d 20       	jnz	$+28     	;abs 0x96d0
    96b6:	d2 43 b8 11 	mov.b	#1,	&0x11b8	;r3 As==01
    96ba:	c2 4b 0a 11 	mov.b	r11,	&0x110a	
    96be:	7f 40 1c 00 	mov.b	#28,	r15	;#0x001c
    96c2:	b0 12 8a 63 	call	#0x638a	
    96c6:	4f 4a       	mov.b	r10,	r15	
    96c8:	b0 12 c4 5f 	call	#0x5fc4	
    96cc:	4f 43       	clr.b	r15		
    96ce:	21 3c       	jmp	$+68     	;abs 0x9712
    96d0:	4e 4b       	mov.b	r11,	r14	
    96d2:	12 c3       	clrc			
    96d4:	4e 10       	rrc.b	r14		
    96d6:	12 c3       	clrc			
    96d8:	4e 10       	rrc.b	r14		
    96da:	12 c3       	clrc			
    96dc:	4e 10       	rrc.b	r14		
    96de:	4e 4e       	mov.b	r14,	r14	
    96e0:	5f 4e e1 1b 	mov.b	7137(r14),r15	;0x1be1(r14)
    96e4:	1d 43       	mov	#1,	r13	;r3 As==01
    96e6:	4c 4b       	mov.b	r11,	r12	
    96e8:	7c f0 07 00 	and.b	#7,	r12	;#0x0007
    96ec:	4c 93       	tst.b	r12		
    96ee:	03 24       	jz	$+8      	;abs 0x96f6
    96f0:	0d 5d       	rla	r13		
    96f2:	7c 53       	add.b	#-1,	r12	;r3 As==11
    96f4:	fb 3f       	jmp	$-8      	;abs 0x96ec
    96f6:	4d 4d       	mov.b	r13,	r13	
    96f8:	4d bf       	bit.b	r15,	r13	
    96fa:	05 20       	jnz	$+12     	;abs 0x9706
    96fc:	4d df       	bis.b	r15,	r13	
    96fe:	ce 4d e1 1b 	mov.b	r13,	7137(r14);0x1be1(r14)
    9702:	4b 43       	clr.b	r11		
    9704:	02 3c       	jmp	$+6      	;abs 0x970a
    9706:	7b 40 05 00 	mov.b	#5,	r11	;#0x0005
    970a:	4f 4a       	mov.b	r10,	r15	
    970c:	b0 12 c4 5f 	call	#0x5fc4	
    9710:	4f 4b       	mov.b	r11,	r15	
    9712:	3a 41       	pop	r10		
    9714:	3b 41       	pop	r11		
    9716:	30 41       	ret			

00009718 <Msp430RefVoltArbiterImplP__AdcResource__request>:
    9718:	4f 93       	tst.b	r15		
    971a:	02 24       	jz	$+6      	;abs 0x9720
    971c:	5f 93       	cmp.b	#1,	r15	;r3 As==01
    971e:	03 20       	jnz	$+8      	;abs 0x9726
    9720:	b0 12 a4 96 	call	#0x96a4	
    9724:	30 41       	ret			
    9726:	5f 43       	mov.b	#1,	r15	;r3 As==01
    9728:	30 41       	ret			

0000972a <VirtualizeTimerC__0__fireTimers>:
    972a:	0b 12       	push	r11		
    972c:	0a 12       	push	r10		
    972e:	09 12       	push	r9		
    9730:	08 12       	push	r8		
    9732:	07 12       	push	r7		
    9734:	06 12       	push	r6		
    9736:	05 12       	push	r5		
    9738:	31 50 fa ff 	add	#-6,	r1	;#0xfffa
    973c:	06 4e       	mov	r14,	r6	
    973e:	07 4f       	mov	r15,	r7	
    9740:	05 43       	clr	r5		
    9742:	0e 45       	mov	r5,	r14	
    9744:	0e 5e       	rla	r14		
    9746:	0f 4e       	mov	r14,	r15	
    9748:	0f 5f       	rla	r15		
    974a:	0f 5f       	rla	r15		
    974c:	0f 5e       	add	r14,	r15	
    974e:	3f 50 e2 1b 	add	#7138,	r15	;#0x1be2
    9752:	5e 4f 08 00 	mov.b	8(r15),	r14	;0x0008(r15)
    9756:	6e b3       	bit.b	#2,	r14	;r3 As==10
    9758:	02 20       	jnz	$+6      	;abs 0x975e
    975a:	30 40 c4 9b 	br	#0x9bc4	
    975e:	2a 4f       	mov	@r15,	r10	
    9760:	1b 4f 02 00 	mov	2(r15),	r11	;0x0002(r15)
    9764:	1c 4f 04 00 	mov	4(r15),	r12	;0x0004(r15)
    9768:	1d 4f 06 00 	mov	6(r15),	r13	;0x0006(r15)
    976c:	08 46       	mov	r6,	r8	
    976e:	09 47       	mov	r7,	r9	
    9770:	08 8a       	sub	r10,	r8	
    9772:	09 7b       	subc	r11,	r9	
    9774:	09 9d       	cmp	r13,	r9	
    9776:	02 2c       	jc	$+6      	;abs 0x977c
    9778:	30 40 c4 9b 	br	#0x9bc4	
    977c:	04 20       	jnz	$+10     	;abs 0x9786
    977e:	08 9c       	cmp	r12,	r8	
    9780:	02 2c       	jc	$+6      	;abs 0x9786
    9782:	30 40 c4 9b 	br	#0x9bc4	
    9786:	5e f3       	and.b	#1,	r14	;r3 As==01
    9788:	04 24       	jz	$+10     	;abs 0x9792
    978a:	ff f0 fd ff 08 00 	and.b	#-3,	8(r15)	;#0xfffd, 0x0008(r15)
    9790:	08 3c       	jmp	$+18     	;abs 0x97a2
    9792:	08 4c       	mov	r12,	r8	
    9794:	09 4d       	mov	r13,	r9	
    9796:	08 5a       	add	r10,	r8	
    9798:	09 6b       	addc	r11,	r9	
    979a:	8f 48 00 00 	mov	r8,	0(r15)	;0x0000(r15)
    979e:	8f 49 02 00 	mov	r9,	2(r15)	;0x0002(r15)
    97a2:	75 90 12 00 	cmp.b	#18,	r5	;#0x0012
    97a6:	02 28       	jnc	$+6      	;abs 0x97ac
    97a8:	30 40 d0 9b 	br	#0x9bd0	
    97ac:	4f 45       	mov.b	r5,	r15	
    97ae:	0f 5f       	rla	r15		
    97b0:	10 4f 1e f6 	br	-2530(r15)	;0xf61e(r15)
    97b4:	1f 42 16 12 	mov	&0x1216,r15	
    97b8:	1f 53       	inc	r15		
    97ba:	82 4f 16 12 	mov	r15,	&0x1216	
    97be:	3f 90 03 00 	cmp	#3,	r15	;#0x0003
    97c2:	04 28       	jnc	$+10     	;abs 0x97cc
    97c4:	3d 40 00 f0 	mov	#-4096,	r13	;#0xf000
    97c8:	0e 43       	clr	r14		
    97ca:	03 3c       	jmp	$+8      	;abs 0x97d2
    97cc:	3d 40 00 28 	mov	#10240,	r13	;#0x2800
    97d0:	0e 43       	clr	r14		
    97d2:	4f 43       	clr.b	r15		
    97d4:	b0 12 98 77 	call	#0x7798	
    97d8:	6f 42       	mov.b	#4,	r15	;r2 As==10
    97da:	30 40 10 9b 	br	#0x9b10	
    97de:	b0 12 b2 5f 	call	#0x5fb2	
    97e2:	5b 42 2c 1d 	mov.b	&0x1d2c,r11	
    97e6:	b0 12 c4 5f 	call	#0x5fc4	
    97ea:	5b 93       	cmp.b	#1,	r11	;r3 As==01
    97ec:	02 24       	jz	$+6      	;abs 0x97f2
    97ee:	30 40 d0 9b 	br	#0x9bd0	
    97f2:	7f 40 12 00 	mov.b	#18,	r15	;#0x0012
    97f6:	30 40 10 9b 	br	#0x9b10	
    97fa:	3e 40 62 5f 	mov	#24418,	r14	;#0x5f62
    97fe:	3f 40 be 1b 	mov	#7102,	r15	;#0x1bbe
    9802:	b0 12 84 e6 	call	#0xe684	
    9806:	30 40 d0 9b 	br	#0x9bd0	
    980a:	c2 93 e0 11 	tst.b	&0x11e0	
    980e:	21 24       	jz	$+68     	;abs 0x9852
    9810:	c2 43 e0 11 	mov.b	#0,	&0x11e0	;r3 As==00
    9814:	5f 42 d2 11 	mov.b	&0x11d2,r15	
    9818:	5f 92 7c 11 	cmp.b	&0x117c,r15	
    981c:	09 2c       	jc	$+20     	;abs 0x9830
    981e:	5f 53       	inc.b	r15		
    9820:	c2 4f d2 11 	mov.b	r15,	&0x11d2	
    9824:	92 52 2e 13 2e 13 	rla	&0x132e	
    982a:	92 62 30 13 30 13 	rlc	&0x1330	
    9830:	e2 b3 12 1c 	bit.b	#2,	&0x1c12	;r3 As==10
    9834:	0f 43       	clr	r15		
    9836:	0f 6f       	rlc	r15		
    9838:	4f 93       	tst.b	r15		
    983a:	02 24       	jz	$+6      	;abs 0x9840
    983c:	30 40 d0 9b 	br	#0x9bd0	
    9840:	c2 93 da 11 	tst.b	&0x11da	
    9844:	02 20       	jnz	$+6      	;abs 0x984a
    9846:	30 40 d0 9b 	br	#0x9bd0	
    984a:	b0 12 da 85 	call	#0x85da	
    984e:	30 40 d0 9b 	br	#0x9bd0	
    9852:	7f 40 14 00 	mov.b	#20,	r15	;#0x0014
    9856:	b0 12 8a 63 	call	#0x638a	
    985a:	7f 40 18 00 	mov.b	#24,	r15	;#0x0018
    985e:	30 40 10 9b 	br	#0x9b10	
    9862:	7f 40 15 00 	mov.b	#21,	r15	;#0x0015
    9866:	30 40 10 9b 	br	#0x9b10	
    986a:	d2 53 d4 11 	inc.b	&0x11d4	
    986e:	b0 12 2a 86 	call	#0x862a	
    9872:	30 40 d0 9b 	br	#0x9bd0	
    9876:	7f 40 1a 00 	mov.b	#26,	r15	;#0x001a
    987a:	30 40 10 9b 	br	#0x9b10	
    987e:	b0 12 92 84 	call	#0x8492	
    9882:	08 4e       	mov	r14,	r8	
    9884:	1a 42 70 11 	mov	&0x1170,r10	
    9888:	1b 42 72 11 	mov	&0x1172,r11	
    988c:	3c 40 0a 00 	mov	#10,	r12	;#0x000a
    9890:	0d 43       	clr	r13		
    9892:	0e 4a       	mov	r10,	r14	
    9894:	0f 4b       	mov	r11,	r15	
    9896:	b0 12 c4 e7 	call	#0xe7c4	
    989a:	0c 4e       	mov	r14,	r12	
    989c:	0d 4f       	mov	r15,	r13	
    989e:	0e 48       	mov	r8,	r14	
    98a0:	0f 43       	clr	r15		
    98a2:	b0 12 fa e7 	call	#0xe7fa	
    98a6:	0a 5e       	add	r14,	r10	
    98a8:	0b 6f       	addc	r15,	r11	
    98aa:	7f 40 19 00 	mov.b	#25,	r15	;#0x0019
    98ae:	b0 12 8a 63 	call	#0x638a	
    98b2:	0d 4a       	mov	r10,	r13	
    98b4:	0e 4b       	mov	r11,	r14	
    98b6:	7f 42       	mov.b	#8,	r15	;r2 As==11
    98b8:	30 40 f2 9a 	br	#0x9af2	
    98bc:	48 4a       	mov.b	r10,	r8	
    98be:	1c 42 68 11 	mov	&0x1168,r12	
    98c2:	1d 42 6a 11 	mov	&0x116a,r13	
    98c6:	0e 48       	mov	r8,	r14	
    98c8:	0e 5e       	rla	r14		
    98ca:	0e 58       	add	r8,	r14	
    98cc:	0e 5e       	rla	r14		
    98ce:	0b 4e       	mov	r14,	r11	
    98d0:	3b 50 1e 25 	add	#9502,	r11	;#0x251e
    98d4:	2b 53       	incd	r11		
    98d6:	2e 4b       	mov	@r11,	r14	
    98d8:	1f 4b 02 00 	mov	2(r11),	r15	;0x0002(r11)
    98dc:	0e 8c       	sub	r12,	r14	
    98de:	0f 7d       	subc	r13,	r15	
    98e0:	8b 4e 00 00 	mov	r14,	0(r11)	;0x0000(r11)
    98e4:	8b 4f 02 00 	mov	r15,	2(r11)	;0x0002(r11)
    98e8:	0d 9f       	cmp	r15,	r13	
    98ea:	31 28       	jnc	$+100    	;abs 0x994e
    98ec:	02 20       	jnz	$+6      	;abs 0x98f2
    98ee:	0c 9e       	cmp	r14,	r12	
    98f0:	2e 28       	jnc	$+94     	;abs 0x994e
    98f2:	0f 48       	mov	r8,	r15	
    98f4:	0f 5f       	rla	r15		
    98f6:	0f 58       	add	r8,	r15	
    98f8:	0f 5f       	rla	r15		
    98fa:	1f 4f 1e 25 	mov	9502(r15),r15	;0x251e(r15)
    98fe:	b0 12 16 4e 	call	#0x4e16	
    9902:	4b 4a       	mov.b	r10,	r11	
    9904:	12 3c       	jmp	$+38     	;abs 0x992a
    9906:	0f 4e       	mov	r14,	r15	
    9908:	0f 5f       	rla	r15		
    990a:	0f 5e       	add	r14,	r15	
    990c:	0f 5f       	rla	r15		
    990e:	1e 53       	inc	r14		
    9910:	0d 4e       	mov	r14,	r13	
    9912:	0d 5d       	rla	r13		
    9914:	0e 5d       	add	r13,	r14	
    9916:	0e 5e       	rla	r14		
    9918:	3d 40 06 00 	mov	#6,	r13	;#0x0006
    991c:	3e 50 1e 25 	add	#9502,	r14	;#0x251e
    9920:	3f 50 1e 25 	add	#9502,	r15	;#0x251e
    9924:	b0 12 80 e8 	call	#0xe880	
    9928:	5b 53       	inc.b	r11		
    992a:	4e 4b       	mov.b	r11,	r14	
    992c:	5c 42 c6 11 	mov.b	&0x11c6,r12	
    9930:	4d 4c       	mov.b	r12,	r13	
    9932:	3d 53       	add	#-1,	r13	;r3 As==11
    9934:	0e 9d       	cmp	r13,	r14	
    9936:	e7 3b       	jl	$-48     	;abs 0x9906
    9938:	0f 4d       	mov	r13,	r15	
    993a:	0f 5f       	rla	r15		
    993c:	0f 5d       	add	r13,	r15	
    993e:	0f 5f       	rla	r15		
    9940:	8f 43 20 25 	mov	#0,	9504(r15);r3 As==00, 0x2520(r15)
    9944:	8f 43 22 25 	mov	#0,	9506(r15);r3 As==00, 0x2522(r15)
    9948:	7c 53       	add.b	#-1,	r12	;r3 As==11
    994a:	c2 4c c6 11 	mov.b	r12,	&0x11c6	
    994e:	5a 53       	inc.b	r10		
    9950:	01 3c       	jmp	$+4      	;abs 0x9954
    9952:	4a 43       	clr.b	r10		
    9954:	5a 92 c6 11 	cmp.b	&0x11c6,r10	
    9958:	b1 2b       	jnc	$-156    	;abs 0x98bc
    995a:	30 40 d0 9b 	br	#0x9bd0	
    995e:	1a 42 52 26 	mov	&0x2652,r10	
    9962:	1a 92 48 1d 	cmp	&0x1d48,r10	
    9966:	1f 20       	jnz	$+64     	;abs 0x99a6
    9968:	1f 42 b0 25 	mov	&0x25b0,r15	
    996c:	c2 93 d4 13 	tst.b	&0x13d4	
    9970:	15 20       	jnz	$+44     	;abs 0x999c
    9972:	0f 12       	push	r15		
    9974:	0a 12       	push	r10		
    9976:	12 12 54 11 	push	&0x1154	
    997a:	30 12 80 00 	push	#128		;#0x0080
    997e:	30 12 94 12 	push	#4756		;#0x1294
    9982:	b0 12 e2 eb 	call	#0xebe2	
    9986:	31 50 0a 00 	add	#10,	r1	;#0x000a
    998a:	0c 4f       	mov	r15,	r12	
    998c:	3d 40 94 12 	mov	#4756,	r13	;#0x1294
    9990:	3e 40 28 24 	mov	#9256,	r14	;#0x2428
    9994:	7f 40 03 00 	mov.b	#3,	r15	;#0x0003
    9998:	b0 12 6a 70 	call	#0x706a	
    999c:	f2 f0 fd ff 4e 1c 	and.b	#-3,	&0x1c4e	;#0xfffd
    99a2:	30 40 d0 9b 	br	#0x9bd0	
    99a6:	3f 40 38 00 	mov	#56,	r15	;#0x0038
    99aa:	b0 12 9a e1 	call	#0xe19a	
    99ae:	0b 4f       	mov	r15,	r11	
    99b0:	0f 93       	tst	r15		
    99b2:	67 24       	jz	$+208    	;abs 0x9a82
    99b4:	09 4f       	mov	r15,	r9	
    99b6:	39 50 2c 00 	add	#44,	r9	;#0x002c
    99ba:	81 49 00 00 	mov	r9,	0(r1)	;0x0000(r1)
    99be:	b1 40 0c 00 02 00 	mov	#12,	2(r1)	;#0x000c, 0x0002(r1)
    99c4:	81 43 04 00 	mov	#0,	4(r1)	;r3 As==00, 0x0004(r1)
    99c8:	8f 41 02 00 	mov	r1,	2(r15)	;0x0002(r15)
    99cc:	ff 40 80 ff 2c 00 	mov.b	#-128,	44(r15)	;#0xff80, 0x002c(r15)
    99d2:	cf 43 2d 00 	mov.b	#0,	45(r15)	;r3 As==00, 0x002d(r15)
    99d6:	cf 43 2f 00 	mov.b	#0,	47(r15)	;r3 As==00, 0x002f(r15)
    99da:	cf 43 2e 00 	mov.b	#0,	46(r15)	;r3 As==00, 0x002e(r15)
    99de:	1f 42 d4 13 	mov	&0x13d4,r15	
    99e2:	cb 4f 31 00 	mov.b	r15,	49(r11)	;0x0031(r11)
    99e6:	8f 10       	swpb	r15		
    99e8:	cb 4f 30 00 	mov.b	r15,	48(r11)	;0x0030(r11)
    99ec:	cb 4a 33 00 	mov.b	r10,	51(r11)	;0x0033(r11)
    99f0:	8a 10       	swpb	r10		
    99f2:	cb 4a 32 00 	mov.b	r10,	50(r11)	;0x0032(r11)
    99f6:	b0 12 78 76 	call	#0x7678	
    99fa:	cb 4e 37 00 	mov.b	r14,	55(r11)	;0x0037(r11)
    99fe:	0d 4f       	mov	r15,	r13	
    9a00:	8e 10       	swpb	r14		
    9a02:	8d 10       	swpb	r13		
    9a04:	4e ed       	xor.b	r13,	r14	
    9a06:	0e ed       	xor	r13,	r14	
    9a08:	cb 4e 36 00 	mov.b	r14,	54(r11)	;0x0036(r11)
    9a0c:	cb 4f 35 00 	mov.b	r15,	53(r11)	;0x0035(r11)
    9a10:	8f 10       	swpb	r15		
    9a12:	cb 4f 34 00 	mov.b	r15,	52(r11)	;0x0034(r11)
    9a16:	0a 4b       	mov	r11,	r10	
    9a18:	2a 52       	add	#4,	r10	;r2 As==10
    9a1a:	3d 40 28 00 	mov	#40,	r13	;#0x0028
    9a1e:	0e 43       	clr	r14		
    9a20:	0f 4a       	mov	r10,	r15	
    9a22:	b0 12 74 ea 	call	#0xea74	
    9a26:	fb 40 60 00 04 00 	mov.b	#96,	4(r11)	;#0x0060, 0x0004(r11)
    9a2c:	fb 40 3a 00 0a 00 	mov.b	#58,	10(r11)	;#0x003a, 0x000a(r11)
    9a32:	1d 41 02 00 	mov	2(r1),	r13	;0x0002(r1)
    9a36:	0e 4d       	mov	r13,	r14	
    9a38:	8e 10       	swpb	r14		
    9a3a:	4e 4e       	mov.b	r14,	r14	
    9a3c:	4d 4d       	mov.b	r13,	r13	
    9a3e:	8d 10       	swpb	r13		
    9a40:	0d de       	bis	r14,	r13	
    9a42:	8b 4d 08 00 	mov	r13,	8(r11)	;0x0008(r11)
    9a46:	3d 40 10 00 	mov	#16,	r13	;#0x0010
    9a4a:	3e 40 f6 25 	mov	#9718,	r14	;#0x25f6
    9a4e:	0f 4b       	mov	r11,	r15	
    9a50:	3f 50 1c 00 	add	#28,	r15	;#0x001c
    9a54:	b0 12 80 e8 	call	#0xe880	
    9a58:	0f 4a       	mov	r10,	r15	
    9a5a:	b0 12 30 62 	call	#0x6230	
    9a5e:	7d 40 3a 00 	mov.b	#58,	r13	;#0x003a
    9a62:	1e 4b 02 00 	mov	2(r11),	r14	;0x0002(r11)
    9a66:	0f 4a       	mov	r10,	r15	
    9a68:	b0 12 08 e1 	call	#0xe108	
    9a6c:	cb 4f 2f 00 	mov.b	r15,	47(r11)	;0x002f(r11)
    9a70:	8f 10       	swpb	r15		
    9a72:	cb 4f 2e 00 	mov.b	r15,	46(r11)	;0x002e(r11)
    9a76:	0f 4b       	mov	r11,	r15	
    9a78:	b0 12 38 74 	call	#0x7438	
    9a7c:	0f 4b       	mov	r11,	r15	
    9a7e:	b0 12 30 e2 	call	#0xe230	
    9a82:	92 53 52 26 	inc	&0x2652	
    9a86:	a4 3c       	jmp	$+330    	;abs 0x9bd0
    9a88:	1f 42 42 24 	mov	&0x2442,r15	
    9a8c:	3f 90 03 00 	cmp	#3,	r15	;#0x0003
    9a90:	03 24       	jz	$+8      	;abs 0x9a98
    9a92:	2f 92       	cmp	#4,	r15	;r2 As==10
    9a94:	9d 20       	jnz	$+316    	;abs 0x9bd0
    9a96:	03 3c       	jmp	$+8      	;abs 0x9a9e
    9a98:	92 43 42 24 	mov	#1,	&0x2442	;r3 As==01
    9a9c:	02 3c       	jmp	$+6      	;abs 0x9aa2
    9a9e:	a2 43 42 24 	mov	#2,	&0x2442	;r3 As==10
    9aa2:	5f 42 09 11 	mov.b	&0x1109,r15	
    9aa6:	7f 93       	cmp.b	#-1,	r15	;r3 As==11
    9aa8:	93 24       	jz	$+296    	;abs 0x9bd0
    9aaa:	b0 12 02 95 	call	#0x9502	
    9aae:	90 3c       	jmp	$+290    	;abs 0x9bd0
    9ab0:	1f 42 42 24 	mov	&0x2442,r15	
    9ab4:	3f 90 05 00 	cmp	#5,	r15	;#0x0005
    9ab8:	04 24       	jz	$+10     	;abs 0x9ac2
    9aba:	3f 90 06 00 	cmp	#6,	r15	;#0x0006
    9abe:	88 20       	jnz	$+274    	;abs 0x9bd0
    9ac0:	07 3c       	jmp	$+16     	;abs 0x9ad0
    9ac2:	b0 12 fc 95 	call	#0x95fc	
    9ac6:	4f 93       	tst.b	r15		
    9ac8:	0f 20       	jnz	$+32     	;abs 0x9ae8
    9aca:	82 43 42 24 	mov	#0,	&0x2442	;r3 As==00
    9ace:	80 3c       	jmp	$+258    	;abs 0x9bd0
    9ad0:	b0 12 fc 95 	call	#0x95fc	
    9ad4:	4f 93       	tst.b	r15		
    9ad6:	08 20       	jnz	$+18     	;abs 0x9ae8
    9ad8:	82 43 42 24 	mov	#0,	&0x2442	;r3 As==00
    9adc:	3d 40 00 08 	mov	#2048,	r13	;#0x0800
    9ae0:	0e 43       	clr	r14		
    9ae2:	7f 40 0d 00 	mov.b	#13,	r15	;#0x000d
    9ae6:	05 3c       	jmp	$+12     	;abs 0x9af2
    9ae8:	3d 40 14 00 	mov	#20,	r13	;#0x0014
    9aec:	0e 43       	clr	r14		
    9aee:	7f 40 0c 00 	mov.b	#12,	r15	;#0x000c
    9af2:	b0 12 98 77 	call	#0x7798	
    9af6:	6c 3c       	jmp	$+218    	;abs 0x9bd0
    9af8:	d2 93 ce 25 	cmp.b	#1,	&0x25ce	;r3 As==01
    9afc:	08 20       	jnz	$+18     	;abs 0x9b0e
    9afe:	2c 42       	mov	#4,	r12	;r2 As==10
    9b00:	3d 40 cc 25 	mov	#9676,	r13	;#0x25cc
    9b04:	3e 40 ba 25 	mov	#9658,	r14	;#0x25ba
    9b08:	5f 43       	mov.b	#1,	r15	;r3 As==01
    9b0a:	b0 12 6a 70 	call	#0x706a	
    9b0e:	5f 43       	mov.b	#1,	r15	;r3 As==01
    9b10:	b0 12 8a 63 	call	#0x638a	
    9b14:	5d 3c       	jmp	$+188    	;abs 0x9bd0
    9b16:	b0 12 b2 5f 	call	#0x5fb2	
    9b1a:	1e 42 f8 24 	mov	&0x24f8,r14	
    9b1e:	0e 93       	tst	r14		
    9b20:	0b 24       	jz	$+24     	;abs 0x9b38
    9b22:	b2 40 0a 00 16 13 	mov	#10,	&0x1316	;#0x000a
    9b28:	82 43 18 13 	mov	#0,	&0x1318	;r3 As==00
    9b2c:	be 40 16 13 00 00 	mov	#4886,	0(r14)	;#0x1316, 0x0000(r14)
    9b32:	b2 40 18 13 f8 24 	mov	#4888,	&0x24f8	;#0x1318
    9b38:	b0 12 c4 5f 	call	#0x5fc4	
    9b3c:	5f 43       	mov.b	#1,	r15	;r3 As==01
    9b3e:	b0 12 18 97 	call	#0x9718	
    9b42:	4f 93       	tst.b	r15		
    9b44:	45 20       	jnz	$+140    	;abs 0x9bd0
    9b46:	b2 40 a0 0f d0 13 	mov	#4000,	&0x13d0	;#0x0fa0
    9b4c:	82 43 d2 13 	mov	#0,	&0x13d2	;r3 As==00
    9b50:	3f 3c       	jmp	$+128    	;abs 0x9bd0
    9b52:	b0 12 7e f4 	call	#0xf47e	
    9b56:	3e 40 03 00 	mov	#3,	r14	;#0x0003
    9b5a:	b0 12 bc e7 	call	#0xe7bc	
    9b5e:	0b 4f       	mov	r15,	r11	
    9b60:	3b 50 03 00 	add	#3,	r11	;#0x0003
    9b64:	4f 43       	clr.b	r15		
    9b66:	b0 12 72 91 	call	#0x9172	
    9b6a:	f2 f0 fd ff 80 1c 	and.b	#-3,	&0x1c80	;#0xfffd
    9b70:	4d 4b       	mov.b	r11,	r13	
    9b72:	8d 10       	swpb	r13		
    9b74:	0d 5d       	rla	r13		
    9b76:	0d 5d       	rla	r13		
    9b78:	0d 5d       	rla	r13		
    9b7a:	0e 4d       	mov	r13,	r14	
    9b7c:	8e 10       	swpb	r14		
    9b7e:	8e 11       	sxt	r14		
    9b80:	8e 10       	swpb	r14		
    9b82:	8e 11       	sxt	r14		
    9b84:	7f 40 0e 00 	mov.b	#14,	r15	;#0x000e
    9b88:	b0 12 98 77 	call	#0x7798	
    9b8c:	82 4b 3a 24 	mov	r11,	&0x243a	
    9b90:	1f 3c       	jmp	$+64     	;abs 0x9bd0
    9b92:	b0 12 b2 5f 	call	#0x5fb2	
    9b96:	4b 4f       	mov.b	r15,	r11	
    9b98:	c2 93 b0 11 	tst.b	&0x11b0	
    9b9c:	0f 20       	jnz	$+32     	;abs 0x9bbc
    9b9e:	d2 43 b4 11 	mov.b	#1,	&0x11b4	;r3 As==01
    9ba2:	5f 43       	mov.b	#1,	r15	;r3 As==01
    9ba4:	b0 12 a2 83 	call	#0x83a2	
    9ba8:	4f 93       	tst.b	r15		
    9baa:	03 20       	jnz	$+8      	;abs 0x9bb2
    9bac:	a2 43 c4 15 	mov	#2,	&0x15c4	;r3 As==10
    9bb0:	05 3c       	jmp	$+12     	;abs 0x9bbc
    9bb2:	7f 90 09 00 	cmp.b	#9,	r15	;#0x0009
    9bb6:	02 20       	jnz	$+6      	;abs 0x9bbc
    9bb8:	b0 12 1e 93 	call	#0x931e	
    9bbc:	4f 4b       	mov.b	r11,	r15	
    9bbe:	b0 12 c4 5f 	call	#0x5fc4	
    9bc2:	06 3c       	jmp	$+14     	;abs 0x9bd0
    9bc4:	15 53       	inc	r5		
    9bc6:	35 90 12 00 	cmp	#18,	r5	;#0x0012
    9bca:	02 24       	jz	$+6      	;abs 0x9bd0
    9bcc:	30 40 42 97 	br	#0x9742	
    9bd0:	7f 40 0b 00 	mov.b	#11,	r15	;#0x000b
    9bd4:	b0 12 8a 63 	call	#0x638a	
    9bd8:	31 50 06 00 	add	#6,	r1	;#0x0006
    9bdc:	35 41       	pop	r5		
    9bde:	36 41       	pop	r6		
    9be0:	37 41       	pop	r7		
    9be2:	38 41       	pop	r8		
    9be4:	39 41       	pop	r9		
    9be6:	3a 41       	pop	r10		
    9be8:	3b 41       	pop	r11		
    9bea:	30 41       	ret			

00009bec <CC2420CsmaP__SplitControlState__forceState>:
    9bec:	0b 12       	push	r11		
    9bee:	4b 4f       	mov.b	r15,	r11	
    9bf0:	b0 12 b2 5f 	call	#0x5fb2	
    9bf4:	c2 4b 29 1d 	mov.b	r11,	&0x1d29	
    9bf8:	b0 12 c4 5f 	call	#0x5fc4	
    9bfc:	3b 41       	pop	r11		
    9bfe:	30 41       	ret			

00009c00 <CC2420ControlP__RSTN__clr>:
    9c00:	b0 12 b2 5f 	call	#0x5fb2	
    9c04:	f2 f0 bf ff 1d 00 	and.b	#-65,	&0x001d	;#0xffbf
    9c0a:	b0 12 c4 5f 	call	#0x5fc4	
    9c0e:	30 41       	ret			

00009c10 <CC2420ControlP__RSTN__set>:
    9c10:	b0 12 b2 5f 	call	#0x5fb2	
    9c14:	f2 d0 40 00 1d 00 	bis.b	#64,	&0x001d	;#0x0040
    9c1a:	b0 12 c4 5f 	call	#0x5fc4	
    9c1e:	30 41       	ret			

00009c20 <CC2420CsmaP__shutdown>:
    9c20:	0b 12       	push	r11		
    9c22:	21 83       	decd	r1		
    9c24:	b0 12 b2 5f 	call	#0x5fb2	
    9c28:	4b 4f       	mov.b	r15,	r11	
    9c2a:	82 43 fa 11 	mov	#0,	&0x11fa	;r3 As==00
    9c2e:	b2 f0 ef ff 82 01 	and	#-17,	&0x0182	;#0xffef
    9c34:	b2 f0 ef ff 84 01 	and	#-17,	&0x0184	;#0xffef
    9c3a:	f2 f0 fd ff 1f 00 	and.b	#-3,	&0x001f	;#0xfffd
    9c40:	7f 40 03 00 	mov.b	#3,	r15	;#0x0003
    9c44:	b0 12 d0 83 	call	#0x83d0	
    9c48:	b0 12 c2 83 	call	#0x83c2	
    9c4c:	4f 4b       	mov.b	r11,	r15	
    9c4e:	b0 12 c4 5f 	call	#0x5fc4	
    9c52:	b0 12 b2 5f 	call	#0x5fb2	
    9c56:	82 43 6a 13 	mov	#0,	&0x136a	;r3 As==00
    9c5a:	81 4f 00 00 	mov	r15,	0(r1)	;0x0000(r1)
    9c5e:	b0 12 fa 4b 	call	#0x4bfa	
    9c62:	b0 12 c2 83 	call	#0x83c2	
    9c66:	f2 f0 fe ff 25 00 	and.b	#-2,	&0x0025	;#0xfffe
    9c6c:	f2 f0 fe ff 23 00 	and.b	#-2,	&0x0023	;#0xfffe
    9c72:	2f 41       	mov	@r1,	r15	
    9c74:	b0 12 c4 5f 	call	#0x5fc4	
    9c78:	82 43 04 12 	mov	#0,	&0x1204	;r3 As==00
    9c7c:	b0 12 00 9c 	call	#0x9c00	
    9c80:	b0 12 b2 5f 	call	#0x5fb2	
    9c84:	f2 f0 df ff 1d 00 	and.b	#-33,	&0x001d	;#0xffdf
    9c8a:	b0 12 c4 5f 	call	#0x5fc4	
    9c8e:	b0 12 10 9c 	call	#0x9c10	
    9c92:	7f 40 0e 00 	mov.b	#14,	r15	;#0x000e
    9c96:	b0 12 8a 63 	call	#0x638a	
    9c9a:	21 53       	incd	r1		
    9c9c:	3b 41       	pop	r11		
    9c9e:	30 41       	ret			

00009ca0 <PacketLinkP__signalDone.isra.346>:
    9ca0:	0b 12       	push	r11		
    9ca2:	0a 12       	push	r10		
    9ca4:	f2 f0 fd ff fe 1b 	and.b	#-3,	&0x1bfe	;#0xfffd
    9caa:	6f 42       	mov.b	#4,	r15	;r2 As==10
    9cac:	b0 12 1a 83 	call	#0x831a	
    9cb0:	1a 42 d6 15 	mov	&0x15d6,r10	
    9cb4:	5f 4a 88 00 	mov.b	136(r10),r15	;0x0088(r10)
    9cb8:	8f 10       	swpb	r15		
    9cba:	5e 4a 89 00 	mov.b	137(r10),r14	;0x0089(r10)
    9cbe:	0f de       	bis	r14,	r15	
    9cc0:	0f 93       	tst	r15		
    9cc2:	07 24       	jz	$+16     	;abs 0x9cd2
    9cc4:	1f 42 3e 24 	mov	&0x243e,r15	
    9cc8:	ca 4f 89 00 	mov.b	r15,	137(r10);0x0089(r10)
    9ccc:	8f 10       	swpb	r15		
    9cce:	ca 4f 88 00 	mov.b	r15,	136(r10);0x0088(r10)
    9cd2:	6f 43       	mov.b	#2,	r15	;r3 As==10
    9cd4:	b0 12 1a 83 	call	#0x831a	
    9cd8:	82 93 98 25 	tst	&0x2598	
    9cdc:	5a 24       	jz	$+182    	;abs 0x9d92
    9cde:	5f 42 f4 11 	mov.b	&0x11f4,r15	
    9ce2:	0f 5f       	rla	r15		
    9ce4:	1b 4f 10 24 	mov	9232(r15),r11	;0x2410(r15)
    9ce8:	c2 43 20 1d 	mov.b	#0,	&0x1d20	;r3 As==00
    9cec:	e2 93 92 11 	cmp.b	#2,	&0x1192	;r3 As==10
    9cf0:	21 20       	jnz	$+68     	;abs 0x9d34
    9cf2:	6f 43       	mov.b	#2,	r15	;r3 As==10
    9cf4:	b0 12 c0 80 	call	#0x80c0	
    9cf8:	4f 93       	tst.b	r15		
    9cfa:	07 24       	jz	$+16     	;abs 0x9d0a
    9cfc:	7f 40 03 00 	mov.b	#3,	r15	;#0x0003
    9d00:	b0 12 ec 9b 	call	#0x9bec	
    9d04:	b0 12 20 9c 	call	#0x9c20	
    9d08:	12 3c       	jmp	$+38     	;abs 0x9d2e
    9d0a:	b0 12 c0 80 	call	#0x80c0	
    9d0e:	4f 93       	tst.b	r15		
    9d10:	0e 20       	jnz	$+30     	;abs 0x9d2e
    9d12:	6f 42       	mov.b	#4,	r15	;r2 As==10
    9d14:	b0 12 c0 80 	call	#0x80c0	
    9d18:	4f 93       	tst.b	r15		
    9d1a:	05 24       	jz	$+12     	;abs 0x9d26
    9d1c:	7f 40 03 00 	mov.b	#3,	r15	;#0x0003
    9d20:	b0 12 ec 9b 	call	#0x9bec	
    9d24:	04 3c       	jmp	$+10     	;abs 0x9d2e
    9d26:	7f 40 03 00 	mov.b	#3,	r15	;#0x0003
    9d2a:	b0 12 c0 80 	call	#0x80c0	
    9d2e:	d2 43 92 11 	mov.b	#1,	&0x1192	;r3 As==01
    9d32:	1c 3c       	jmp	$+58     	;abs 0x9d6c
    9d34:	2e 4b       	mov	@r11,	r14	
    9d36:	5f 4a 88 00 	mov.b	136(r10),r15	;0x0088(r10)
    9d3a:	8f 10       	swpb	r15		
    9d3c:	5f da 89 00 	bis.b	137(r10),r15	;0x0089(r10)
    9d40:	ce 5f 03 00 	add.b	r15,	3(r14)	;0x0003(r14)
    9d44:	2f 4b       	mov	@r11,	r15	
    9d46:	df 53 04 00 	inc.b	4(r15)		;0x0004(r15)
    9d4a:	2f 4b       	mov	@r11,	r15	
    9d4c:	ca 93 80 00 	tst.b	128(r10)	;0x0080(r10)
    9d50:	07 20       	jnz	$+16     	;abs 0x9d60
    9d52:	c2 93 91 11 	tst.b	&0x1191	
    9d56:	04 24       	jz	$+10     	;abs 0x9d60
    9d58:	df 43 05 00 	mov.b	#1,	5(r15)	;r3 As==01, 0x0005(r15)
    9d5c:	2f 4b       	mov	@r11,	r15	
    9d5e:	04 3c       	jmp	$+10     	;abs 0x9d68
    9d60:	df 9f 02 00 04 00 	cmp.b	2(r15),	4(r15)	;0x0002(r15), 0x0004(r15)
    9d66:	02 20       	jnz	$+6      	;abs 0x9d6c
    9d68:	b0 12 d0 89 	call	#0x89d0	
    9d6c:	2f 4b       	mov	@r11,	r15	
    9d6e:	b0 12 d6 50 	call	#0x50d6	
    9d72:	1f 4b 02 00 	mov	2(r11),	r15	;0x0002(r11)
    9d76:	b0 12 a6 50 	call	#0x50a6	
    9d7a:	0f 4b       	mov	r11,	r15	
    9d7c:	b0 12 76 50 	call	#0x5076	
    9d80:	c2 93 f0 11 	tst.b	&0x11f0	
    9d84:	02 24       	jz	$+6      	;abs 0x9d8a
    9d86:	b0 12 32 51 	call	#0x5132	
    9d8a:	7f 40 0c 00 	mov.b	#12,	r15	;#0x000c
    9d8e:	b0 12 8a 63 	call	#0x638a	
    9d92:	3a 41       	pop	r10		
    9d94:	3b 41       	pop	r11		
    9d96:	30 41       	ret			

00009d98 <Msp430RefVoltGeneratorP__switchOn>:
    9d98:	0b 12       	push	r11		
    9d9a:	0a 12       	push	r10		
    9d9c:	09 12       	push	r9		
    9d9e:	49 4f       	mov.b	r15,	r9	
    9da0:	b0 12 b2 5f 	call	#0x5fb2	
    9da4:	4a 4f       	mov.b	r15,	r10	
    9da6:	1e 42 a2 01 	mov	&0x01a2,r14	
    9daa:	5e f3       	and.b	#1,	r14	;r3 As==01
    9dac:	05 24       	jz	$+12     	;abs 0x9db8
    9dae:	b0 12 c4 5f 	call	#0x5fc4	
    9db2:	7f 40 05 00 	mov.b	#5,	r15	;#0x0005
    9db6:	1c 3c       	jmp	$+58     	;abs 0x9df0
    9db8:	b0 12 ee 47 	call	#0x47ee	
    9dbc:	0b 4f       	mov	r15,	r11	
    9dbe:	3b f0 fd ff 	and	#-3,	r11	;#0xfffd
    9dc2:	0f 4b       	mov	r11,	r15	
    9dc4:	b0 12 f4 47 	call	#0x47f4	
    9dc8:	3b d0 20 00 	bis	#32,	r11	;#0x0020
    9dcc:	4e 49       	mov.b	r9,	r14	
    9dce:	7e 53       	add.b	#-1,	r14	;r3 As==11
    9dd0:	1e f3       	and	#1,	r14	;r3 As==01
    9dd2:	7d 40 06 00 	mov.b	#6,	r13	;#0x0006
    9dd6:	0e 5e       	rla	r14		
    9dd8:	7d 53       	add.b	#-1,	r13	;r3 As==11
    9dda:	fd 23       	jnz	$-4      	;abs 0x9dd6
    9ddc:	3b f0 bf ff 	and	#-65,	r11	;#0xffbf
    9de0:	0f 4b       	mov	r11,	r15	
    9de2:	0f de       	bis	r14,	r15	
    9de4:	b0 12 f4 47 	call	#0x47f4	
    9de8:	4f 4a       	mov.b	r10,	r15	
    9dea:	b0 12 c4 5f 	call	#0x5fc4	
    9dee:	4f 43       	clr.b	r15		
    9df0:	39 41       	pop	r9		
    9df2:	3a 41       	pop	r10		
    9df4:	3b 41       	pop	r11		
    9df6:	30 41       	ret			

00009df8 <Msp430RefVoltGeneratorP__start>:
    9df8:	0b 12       	push	r11		
    9dfa:	0a 12       	push	r10		
    9dfc:	0b 4f       	mov	r15,	r11	
    9dfe:	1f 42 42 24 	mov	&0x2442,r15	
    9e02:	0e 4f       	mov	r15,	r14	
    9e04:	3e 53       	add	#-1,	r14	;r3 As==11
    9e06:	2e 93       	cmp	#2,	r14	;r3 As==10
    9e08:	0c 2c       	jc	$+26     	;abs 0x9e22
    9e0a:	0b 9f       	cmp	r15,	r11	
    9e0c:	5f 24       	jz	$+192    	;abs 0x9ecc
    9e0e:	4f 4b       	mov.b	r11,	r15	
    9e10:	b0 12 98 9d 	call	#0x9d98	
    9e14:	4a 4f       	mov.b	r15,	r10	
    9e16:	4f 93       	tst.b	r15		
    9e18:	5e 20       	jnz	$+190    	;abs 0x9ed6
    9e1a:	92 93 42 24 	cmp	#1,	&0x2442	;r3 As==01
    9e1e:	46 20       	jnz	$+142    	;abs 0x9eac
    9e20:	3f 3c       	jmp	$+128    	;abs 0x9ea0
    9e22:	0f 93       	tst	r15		
    9e24:	20 20       	jnz	$+66     	;abs 0x9e66
    9e26:	4f 4b       	mov.b	r11,	r15	
    9e28:	b0 12 98 9d 	call	#0x9d98	
    9e2c:	4a 4f       	mov.b	r15,	r10	
    9e2e:	4f 93       	tst.b	r15		
    9e30:	52 20       	jnz	$+166    	;abs 0x9ed6
    9e32:	1b 93       	cmp	#1,	r11	;r3 As==01
    9e34:	0a 20       	jnz	$+22     	;abs 0x9e4a
    9e36:	e2 b3 6c 1c 	bit.b	#2,	&0x1c6c	;r3 As==10
    9e3a:	0f 43       	clr	r15		
    9e3c:	0f 6f       	rlc	r15		
    9e3e:	4f 93       	tst.b	r15		
    9e40:	04 24       	jz	$+10     	;abs 0x9e4a
    9e42:	3d 40 46 00 	mov	#70,	r13	;#0x0046
    9e46:	0e 43       	clr	r14		
    9e48:	03 3c       	jmp	$+8      	;abs 0x9e50
    9e4a:	3d 40 11 00 	mov	#17,	r13	;#0x0011
    9e4e:	0e 43       	clr	r14		
    9e50:	7f 40 0b 00 	mov.b	#11,	r15	;#0x000b
    9e54:	b0 12 98 77 	call	#0x7798	
    9e58:	f2 f0 fd ff 6c 1c 	and.b	#-3,	&0x1c6c	;#0xfffd
    9e5e:	2b 53       	incd	r11		
    9e60:	82 4b 42 24 	mov	r11,	&0x2442	
    9e64:	38 3c       	jmp	$+114    	;abs 0x9ed6
    9e66:	0e 4f       	mov	r15,	r14	
    9e68:	3e 50 fb ff 	add	#-5,	r14	;#0xfffb
    9e6c:	2e 93       	cmp	#2,	r14	;r3 As==10
    9e6e:	29 2c       	jc	$+84     	;abs 0x9ec2
    9e70:	4f 4b       	mov.b	r11,	r15	
    9e72:	b0 12 98 9d 	call	#0x9d98	
    9e76:	4a 4f       	mov.b	r15,	r10	
    9e78:	4f 93       	tst.b	r15		
    9e7a:	2d 20       	jnz	$+92     	;abs 0x9ed6
    9e7c:	f2 f0 fd ff 62 1c 	and.b	#-3,	&0x1c62	;#0xfffd
    9e82:	1f 42 42 24 	mov	&0x2442,r15	
    9e86:	0e 4f       	mov	r15,	r14	
    9e88:	2e 82       	sub	#4,	r14	;r2 As==10
    9e8a:	0b 9e       	cmp	r14,	r11	
    9e8c:	06 20       	jnz	$+14     	;abs 0x9e9a
    9e8e:	82 4b 42 24 	mov	r11,	&0x2442	
    9e92:	0f 4b       	mov	r11,	r15	
    9e94:	b0 12 ae 95 	call	#0x95ae	
    9e98:	1e 3c       	jmp	$+62     	;abs 0x9ed6
    9e9a:	3f 90 05 00 	cmp	#5,	r15	;#0x0005
    9e9e:	06 20       	jnz	$+14     	;abs 0x9eac
    9ea0:	a2 42 42 24 	mov	#4,	&0x2442	;r2 As==10
    9ea4:	3d 40 11 00 	mov	#17,	r13	;#0x0011
    9ea8:	0e 43       	clr	r14		
    9eaa:	06 3c       	jmp	$+14     	;abs 0x9eb8
    9eac:	b2 40 03 00 42 24 	mov	#3,	&0x2442	;#0x0003
    9eb2:	3d 40 46 00 	mov	#70,	r13	;#0x0046
    9eb6:	0e 43       	clr	r14		
    9eb8:	7f 40 0b 00 	mov.b	#11,	r15	;#0x000b
    9ebc:	b0 12 98 77 	call	#0x7798	
    9ec0:	0a 3c       	jmp	$+22     	;abs 0x9ed6
    9ec2:	2b 53       	incd	r11		
    9ec4:	0f 9b       	cmp	r11,	r15	
    9ec6:	05 20       	jnz	$+12     	;abs 0x9ed2
    9ec8:	4a 43       	clr.b	r10		
    9eca:	05 3c       	jmp	$+12     	;abs 0x9ed6
    9ecc:	7a 40 09 00 	mov.b	#9,	r10	;#0x0009
    9ed0:	02 3c       	jmp	$+6      	;abs 0x9ed6
    9ed2:	7a 40 05 00 	mov.b	#5,	r10	;#0x0005
    9ed6:	4f 4a       	mov.b	r10,	r15	
    9ed8:	3a 41       	pop	r10		
    9eda:	3b 41       	pop	r11		
    9edc:	30 41       	ret			

00009ede <Msp430RefVoltArbiterImplP__AdcResource__granted>:
    9ede:	0b 12       	push	r11		
    9ee0:	4b 4f       	mov.b	r15,	r11	
    9ee2:	6f 93       	cmp.b	#2,	r15	;r3 As==10
    9ee4:	03 28       	jnc	$+8      	;abs 0x9eec
    9ee6:	3f 40 06 f8 	mov	#-2042,	r15	;#0xf806
    9eea:	02 3c       	jmp	$+6      	;abs 0x9ef0
    9eec:	3f 40 04 11 	mov	#4356,	r15	;#0x1104
    9ef0:	6f 4f       	mov.b	@r15,	r15	
    9ef2:	4e 4f       	mov.b	r15,	r14	
    9ef4:	7e f0 70 00 	and.b	#112,	r14	;#0x0070
    9ef8:	7e 90 10 00 	cmp.b	#16,	r14	;#0x0010
    9efc:	03 24       	jz	$+8      	;abs 0x9f04
    9efe:	7e 90 50 00 	cmp.b	#80,	r14	;#0x0050
    9f02:	1b 20       	jnz	$+56     	;abs 0x9f3a
    9f04:	f2 93 09 11 	cmp.b	#-1,	&0x1109	;r3 As==11
    9f08:	11 20       	jnz	$+36     	;abs 0x9f2c
    9f0a:	c2 4b 09 11 	mov.b	r11,	&0x1109	
    9f0e:	4f 93       	tst.b	r15		
    9f10:	04 38       	jl	$+10     	;abs 0x9f1a
    9f12:	c2 43 3c 24 	mov.b	#0,	&0x243c	;r3 As==00
    9f16:	1f 43       	mov	#1,	r15	;r3 As==01
    9f18:	03 3c       	jmp	$+8      	;abs 0x9f20
    9f1a:	d2 43 3c 24 	mov.b	#1,	&0x243c	;r3 As==01
    9f1e:	2f 43       	mov	#2,	r15	;r3 As==10
    9f20:	b0 12 f8 9d 	call	#0x9df8	
    9f24:	4f 93       	tst.b	r15		
    9f26:	0c 24       	jz	$+26     	;abs 0x9f40
    9f28:	f2 43 09 11 	mov.b	#-1,	&0x1109	;r3 As==11
    9f2c:	4f 4b       	mov.b	r11,	r15	
    9f2e:	b0 12 da 94 	call	#0x94da	
    9f32:	4f 4b       	mov.b	r11,	r15	
    9f34:	b0 12 18 97 	call	#0x9718	
    9f38:	03 3c       	jmp	$+8      	;abs 0x9f40
    9f3a:	4f 4b       	mov.b	r11,	r15	
    9f3c:	b0 12 02 95 	call	#0x9502	
    9f40:	3b 41       	pop	r11		
    9f42:	30 41       	ret			

00009f44 <Stm25pConfigP__newRequest.part.291.constprop.353>:
    9f44:	b0 12 b2 5f 	call	#0x5fb2	
    9f48:	4d 4f       	mov.b	r15,	r13	
    9f4a:	c2 93 b6 11 	tst.b	&0x11b6	
    9f4e:	13 20       	jnz	$+40     	;abs 0x9f76
    9f50:	d2 43 b6 11 	mov.b	#1,	&0x11b6	;r3 As==01
    9f54:	c2 43 c0 15 	mov.b	#0,	&0x15c0	;r3 As==00
    9f58:	b0 12 c4 5f 	call	#0x5fc4	
    9f5c:	c2 93 b4 11 	tst.b	&0x11b4	
    9f60:	07 20       	jnz	$+16     	;abs 0x9f70
    9f62:	d2 43 b0 11 	mov.b	#1,	&0x11b0	;r3 As==01
    9f66:	7f 40 23 00 	mov.b	#35,	r15	;#0x0023
    9f6a:	b0 12 8a 63 	call	#0x638a	
    9f6e:	1f 3c       	jmp	$+64     	;abs 0x9fae
    9f70:	d2 43 b2 11 	mov.b	#1,	&0x11b2	;r3 As==01
    9f74:	1c 3c       	jmp	$+58     	;abs 0x9fae
    9f76:	c2 93 c0 15 	tst.b	&0x15c0	
    9f7a:	17 24       	jz	$+48     	;abs 0x9faa
    9f7c:	1e 43       	mov	#1,	r14	;r3 As==01
    9f7e:	f2 93 1a 25 	cmp.b	#-1,	&0x251a	;r3 As==11
    9f82:	04 20       	jnz	$+10     	;abs 0x9f8c
    9f84:	c2 93 01 11 	tst.b	&0x1101	
    9f88:	01 24       	jz	$+4      	;abs 0x9f8c
    9f8a:	0e 43       	clr	r14		
    9f8c:	0e 93       	tst	r14		
    9f8e:	0c 20       	jnz	$+26     	;abs 0x9fa8
    9f90:	f2 93 02 11 	cmp.b	#-1,	&0x1102	;r3 As==11
    9f94:	03 20       	jnz	$+8      	;abs 0x9f9c
    9f96:	c2 43 02 11 	mov.b	#0,	&0x1102	;r3 As==00
    9f9a:	04 3c       	jmp	$+10     	;abs 0x9fa4
    9f9c:	5f 42 01 11 	mov.b	&0x1101,r15	
    9fa0:	cf 43 1a 25 	mov.b	#0,	9498(r15);r3 As==00, 0x251a(r15)
    9fa4:	c2 43 01 11 	mov.b	#0,	&0x1101	;r3 As==00
    9fa8:	4f 4d       	mov.b	r13,	r15	
    9faa:	b0 12 c4 5f 	call	#0x5fc4	
    9fae:	92 42 e8 1c 66 12 	mov	&0x1ce8,&0x1266	
    9fb4:	92 42 ea 1c 68 12 	mov	&0x1cea,&0x1268	
    9fba:	92 42 ec 1c 6a 12 	mov	&0x1cec,&0x126a	
    9fc0:	92 42 ee 1c 6c 12 	mov	&0x1cee,&0x126c	
    9fc6:	4f 43       	clr.b	r15		
    9fc8:	30 41       	ret			

00009fca <StateImplP__State__requestState.constprop.357>:
    9fca:	0b 12       	push	r11		
    9fcc:	4b 4f       	mov.b	r15,	r11	
    9fce:	b0 12 b2 5f 	call	#0x5fb2	
    9fd2:	4e 4b       	mov.b	r11,	r14	
    9fd4:	3e 50 28 1d 	add	#7464,	r14	;#0x1d28
    9fd8:	ce 93 00 00 	tst.b	0(r14)		;0x0000(r14)
    9fdc:	04 20       	jnz	$+10     	;abs 0x9fe6
    9fde:	de 43 00 00 	mov.b	#1,	0(r14)	;r3 As==01, 0x0000(r14)
    9fe2:	4b 43       	clr.b	r11		
    9fe4:	01 3c       	jmp	$+4      	;abs 0x9fe8
    9fe6:	5b 43       	mov.b	#1,	r11	;r3 As==01
    9fe8:	b0 12 c4 5f 	call	#0x5fc4	
    9fec:	4f 4b       	mov.b	r11,	r15	
    9fee:	3b 41       	pop	r11		
    9ff0:	30 41       	ret			

00009ff2 <SensingP__RadioControl__start>:
    9ff2:	c2 93 ee 11 	tst.b	&0x11ee	
    9ff6:	2d 20       	jnz	$+92     	;abs 0xa052
    9ff8:	5f 43       	mov.b	#1,	r15	;r3 As==01
    9ffa:	b0 12 ca 9f 	call	#0x9fca	
    9ffe:	4f 93       	tst.b	r15		
    a000:	19 20       	jnz	$+52     	;abs 0xa034
    a002:	b0 12 b2 5f 	call	#0x5fb2	
    a006:	82 93 04 12 	tst	&0x1204	
    a00a:	03 24       	jz	$+8      	;abs 0xa012
    a00c:	b0 12 c4 5f 	call	#0x5fc4	
    a010:	1b 3c       	jmp	$+56     	;abs 0xa048
    a012:	92 43 04 12 	mov	#1,	&0x1204	;r3 As==01
    a016:	b0 12 c4 5f 	call	#0x5fc4	
    a01a:	b0 12 b2 5f 	call	#0x5fb2	
    a01e:	f2 d0 20 00 1d 00 	bis.b	#32,	&0x001d	;#0x0020
    a024:	b0 12 c4 5f 	call	#0x5fc4	
    a028:	3e 40 14 00 	mov	#20,	r14	;#0x0014
    a02c:	0f 43       	clr	r15		
    a02e:	b0 12 50 8c 	call	#0x8c50	
    a032:	0a 3c       	jmp	$+22     	;abs 0xa048
    a034:	6f 43       	mov.b	#2,	r15	;r3 As==10
    a036:	b0 12 c0 80 	call	#0x80c0	
    a03a:	4f 93       	tst.b	r15		
    a03c:	0d 20       	jnz	$+28     	;abs 0xa058
    a03e:	5f 43       	mov.b	#1,	r15	;r3 As==01
    a040:	b0 12 c0 80 	call	#0x80c0	
    a044:	4f 93       	tst.b	r15		
    a046:	02 24       	jz	$+6      	;abs 0xa04c
    a048:	4f 43       	clr.b	r15		
    a04a:	30 41       	ret			
    a04c:	7f 40 05 00 	mov.b	#5,	r15	;#0x0005
    a050:	30 41       	ret			
    a052:	7f 40 09 00 	mov.b	#9,	r15	;#0x0009
    a056:	30 41       	ret			
    a058:	7f 40 09 00 	mov.b	#9,	r15	;#0x0009
    a05c:	30 41       	ret			

0000a05e <Stm25pConfigP__signalDone>:
    a05e:	0b 12       	push	r11		
    a060:	0a 12       	push	r10		
    a062:	09 12       	push	r9		
    a064:	08 12       	push	r8		
    a066:	07 12       	push	r7		
    a068:	06 12       	push	r6		
    a06a:	4b 4f       	mov.b	r15,	r11	
    a06c:	46 4e       	mov.b	r14,	r6	
    a06e:	48 4f       	mov.b	r15,	r8	
    a070:	0c 48       	mov	r8,	r12	
    a072:	0c 5c       	rla	r12		
    a074:	0c 5c       	rla	r12		
    a076:	0c 5c       	rla	r12		
    a078:	5a 4c 6c 12 	mov.b	4716(r12),r10	;0x126c(r12)
    a07c:	4f 93       	tst.b	r15		
    a07e:	37 20       	jnz	$+112    	;abs 0xa0ee
    a080:	c2 93 64 12 	tst.b	&0x1264	
    a084:	34 20       	jnz	$+106    	;abs 0xa0ee
    a086:	82 43 98 18 	mov	#0,	&0x1898	;r3 As==00
    a08a:	f2 43 64 12 	mov.b	#-1,	&0x1264	;r3 As==11
    a08e:	5f 43       	mov.b	#1,	r15	;r3 As==01
    a090:	b0 12 50 82 	call	#0x8250	
    a094:	b0 12 b2 5f 	call	#0x5fb2	
    a098:	47 4f       	mov.b	r15,	r7	
    a09a:	f2 90 03 00 b6 11 	cmp.b	#3,	&0x11b6	;#0x0003
    a0a0:	23 20       	jnz	$+72     	;abs 0xa0e8
    a0a2:	c2 93 00 11 	tst.b	&0x1100	
    a0a6:	20 20       	jnz	$+66     	;abs 0xa0e8
    a0a8:	59 42 02 11 	mov.b	&0x1102,r9	
    a0ac:	79 93       	cmp.b	#-1,	r9	;r3 As==11
    a0ae:	14 24       	jz	$+42     	;abs 0xa0d8
    a0b0:	4c 49       	mov.b	r9,	r12	
    a0b2:	5f 4c 1a 25 	mov.b	9498(r12),r15	;0x251a(r12)
    a0b6:	c2 4f 02 11 	mov.b	r15,	&0x1102	
    a0ba:	7f 93       	cmp.b	#-1,	r15	;r3 As==11
    a0bc:	02 20       	jnz	$+6      	;abs 0xa0c2
    a0be:	f2 43 01 11 	mov.b	#-1,	&0x1101	;r3 As==11
    a0c2:	fc 43 1a 25 	mov.b	#-1,	9498(r12);r3 As==11, 0x251a(r12)
    a0c6:	c2 49 c0 15 	mov.b	r9,	&0x15c0	
    a0ca:	f2 43 00 11 	mov.b	#-1,	&0x1100	;r3 As==11
    a0ce:	d2 43 b6 11 	mov.b	#1,	&0x11b6	;r3 As==01
    a0d2:	7f 40 22 00 	mov.b	#34,	r15	;#0x0022
    a0d6:	06 3c       	jmp	$+14     	;abs 0xa0e4
    a0d8:	d2 43 00 11 	mov.b	#1,	&0x1100	;r3 As==01
    a0dc:	c2 43 b6 11 	mov.b	#0,	&0x11b6	;r3 As==00
    a0e0:	7f 40 24 00 	mov.b	#36,	r15	;#0x0024
    a0e4:	b0 12 8a 63 	call	#0x638a	
    a0e8:	4f 47       	mov.b	r7,	r15	
    a0ea:	b0 12 c4 5f 	call	#0x5fc4	
    a0ee:	0d 48       	mov	r8,	r13	
    a0f0:	0d 5d       	rla	r13		
    a0f2:	0d 5d       	rla	r13		
    a0f4:	0d 5d       	rla	r13		
    a0f6:	cd 43 6c 12 	mov.b	#0,	4716(r13);r3 As==00, 0x126c(r13)
    a0fa:	6a 93       	cmp.b	#2,	r10	;r3 As==10
    a0fc:	2d 24       	jz	$+92     	;abs 0xa158
    a0fe:	7a 90 03 00 	cmp.b	#3,	r10	;#0x0003
    a102:	2d 24       	jz	$+92     	;abs 0xa15e
    a104:	5a 93       	cmp.b	#1,	r10	;r3 As==01
    a106:	34 20       	jnz	$+106    	;abs 0xa170
    a108:	4b 93       	tst.b	r11		
    a10a:	32 20       	jnz	$+102    	;abs 0xa170
    a10c:	46 93       	tst.b	r6		
    a10e:	03 24       	jz	$+8      	;abs 0xa116
    a110:	b0 12 62 91 	call	#0x9162	
    a114:	1e 3c       	jmp	$+62     	;abs 0xa152
    a116:	d2 b3 57 12 	bit.b	#1,	&0x1257	;r3 As==01
    a11a:	0f 43       	clr	r15		
    a11c:	0f 6f       	rlc	r15		
    a11e:	4f 93       	tst.b	r15		
    a120:	0b 24       	jz	$+24     	;abs 0xa138
    a122:	e2 43 ee 1c 	mov.b	#2,	&0x1cee	;r3 As==10
    a126:	82 43 e8 1c 	mov	#0,	&0x1ce8	;r3 As==00
    a12a:	b2 40 e8 25 ea 1c 	mov	#9704,	&0x1cea	;#0x25e8
    a130:	b2 40 06 00 ec 1c 	mov	#6,	&0x1cec	;#0x0006
    a136:	17 3c       	jmp	$+48     	;abs 0xa166
    a138:	c2 43 ed 25 	mov.b	#0,	&0x25ed	;r3 As==00
    a13c:	e2 42 ec 25 	mov.b	#4,	&0x25ec	;r2 As==10
    a140:	c2 43 eb 25 	mov.b	#0,	&0x25eb	;r3 As==00
    a144:	c2 43 ea 25 	mov.b	#0,	&0x25ea	;r3 As==00
    a148:	f2 40 14 00 e9 25 	mov.b	#20,	&0x25e9	;#0x0014
    a14e:	c2 43 e8 25 	mov.b	#0,	&0x25e8	;r3 As==00
    a152:	b0 12 f2 9f 	call	#0x9ff2	
    a156:	0c 3c       	jmp	$+26     	;abs 0xa170
    a158:	4b 93       	tst.b	r11		
    a15a:	0a 20       	jnz	$+22     	;abs 0xa170
    a15c:	fa 3f       	jmp	$-10     	;abs 0xa152
    a15e:	4b 93       	tst.b	r11		
    a160:	07 20       	jnz	$+16     	;abs 0xa170
    a162:	e2 42 ee 1c 	mov.b	#4,	&0x1cee	;r2 As==10
    a166:	c2 93 6c 12 	tst.b	&0x126c	
    a16a:	02 20       	jnz	$+6      	;abs 0xa170
    a16c:	b0 12 44 9f 	call	#0x9f44	
    a170:	36 41       	pop	r6		
    a172:	37 41       	pop	r7		
    a174:	38 41       	pop	r8		
    a176:	39 41       	pop	r9		
    a178:	3a 41       	pop	r10		
    a17a:	3b 41       	pop	r11		
    a17c:	30 41       	ret			

0000a17e <Stm25pConfigP__continueMount>:
    a17e:	0b 12       	push	r11		
    a180:	4b 4f       	mov.b	r15,	r11	
    a182:	1c 42 aa 13 	mov	&0x13aa,r12	
    a186:	3c 90 06 00 	cmp	#6,	r12	;#0x0006
    a18a:	02 28       	jnc	$+6      	;abs 0xa190
    a18c:	30 40 98 a3 	br	#0xa398	
    a190:	0f 4c       	mov	r12,	r15	
    a192:	0f 5f       	rla	r15		
    a194:	10 4f 32 f7 	br	-2254(r15)	;0xf732(r15)
    a198:	0e 43       	clr	r14		
    a19a:	0f 43       	clr	r15		
    a19c:	88 3c       	jmp	$+274    	;abs 0xa2ae
    a19e:	0e 43       	clr	r14		
    a1a0:	0f 43       	clr	r15		
    a1a2:	9a 3c       	jmp	$+310    	;abs 0xa2d8
    a1a4:	4f 4b       	mov.b	r11,	r15	
    a1a6:	02 12       	push	r2		
    a1a8:	32 c2       	dint			
    a1aa:	03 43       	nop			
    a1ac:	82 4f 32 01 	mov	r15,	&0x0132	
    a1b0:	b2 40 16 00 38 01 	mov	#22,	&0x0138	;#0x0016
    a1b6:	1e 42 3a 01 	mov	&0x013a,r14	
    a1ba:	32 41       	pop	r2		
    a1bc:	8e 43 42 12 	mov	#0,	4674(r14);r3 As==00, 0x1242(r14)
    a1c0:	02 12       	push	r2		
    a1c2:	32 c2       	dint			
    a1c4:	03 43       	nop			
    a1c6:	82 4f 32 01 	mov	r15,	&0x0132	
    a1ca:	b2 40 16 00 38 01 	mov	#22,	&0x0138	;#0x0016
    a1d0:	1e 42 3a 01 	mov	&0x013a,r14	
    a1d4:	32 41       	pop	r2		
    a1d6:	be 40 00 01 44 12 	mov	#256,	4676(r14);#0x0100, 0x1244(r14)
    a1dc:	02 12       	push	r2		
    a1de:	32 c2       	dint			
    a1e0:	03 43       	nop			
    a1e2:	82 4f 32 01 	mov	r15,	&0x0132	
    a1e6:	b2 40 16 00 38 01 	mov	#22,	&0x0138	;#0x0016
    a1ec:	1e 42 3a 01 	mov	&0x013a,r14	
    a1f0:	32 41       	pop	r2		
    a1f2:	be 40 00 02 46 12 	mov	#512,	4678(r14);#0x0200, 0x1246(r14)
    a1f8:	02 12       	push	r2		
    a1fa:	32 c2       	dint			
    a1fc:	03 43       	nop			
    a1fe:	82 4f 32 01 	mov	r15,	&0x0132	
    a202:	b2 40 16 00 38 01 	mov	#22,	&0x0138	;#0x0016
    a208:	1e 42 3a 01 	mov	&0x013a,r14	
    a20c:	32 41       	pop	r2		
    a20e:	be 40 00 03 48 12 	mov	#768,	4680(r14);#0x0300, 0x1248(r14)
    a214:	02 12       	push	r2		
    a216:	32 c2       	dint			
    a218:	03 43       	nop			
    a21a:	82 4f 32 01 	mov	r15,	&0x0132	
    a21e:	b2 40 16 00 38 01 	mov	#22,	&0x0138	;#0x0016
    a224:	1e 42 3a 01 	mov	&0x013a,r14	
    a228:	32 41       	pop	r2		
    a22a:	be 40 00 04 4a 12 	mov	#1024,	4682(r14);#0x0400, 0x124a(r14)
    a230:	02 12       	push	r2		
    a232:	32 c2       	dint			
    a234:	03 43       	nop			
    a236:	82 4f 32 01 	mov	r15,	&0x0132	
    a23a:	b2 40 16 00 38 01 	mov	#22,	&0x0138	;#0x0016
    a240:	1e 42 3a 01 	mov	&0x013a,r14	
    a244:	32 41       	pop	r2		
    a246:	be 40 00 05 4c 12 	mov	#1280,	4684(r14);#0x0500, 0x124c(r14)
    a24c:	02 12       	push	r2		
    a24e:	32 c2       	dint			
    a250:	03 43       	nop			
    a252:	82 4f 32 01 	mov	r15,	&0x0132	
    a256:	b2 40 16 00 38 01 	mov	#22,	&0x0138	;#0x0016
    a25c:	1e 42 3a 01 	mov	&0x013a,r14	
    a260:	32 41       	pop	r2		
    a262:	be 40 00 06 4e 12 	mov	#1536,	4686(r14);#0x0600, 0x124e(r14)
    a268:	02 12       	push	r2		
    a26a:	32 c2       	dint			
    a26c:	03 43       	nop			
    a26e:	82 4f 32 01 	mov	r15,	&0x0132	
    a272:	b2 40 16 00 38 01 	mov	#22,	&0x0138	;#0x0016
    a278:	1e 42 3a 01 	mov	&0x013a,r14	
    a27c:	32 41       	pop	r2		
    a27e:	be 40 00 07 50 12 	mov	#1792,	4688(r14);#0x0700, 0x1250(r14)
    a284:	02 12       	push	r2		
    a286:	32 c2       	dint			
    a288:	03 43       	nop			
    a28a:	82 4f 32 01 	mov	r15,	&0x0132	
    a28e:	b2 40 16 00 38 01 	mov	#22,	&0x0138	;#0x0016
    a294:	1f 42 3a 01 	mov	&0x013a,r15	
    a298:	32 41       	pop	r2		
    a29a:	bf 40 00 08 52 12 	mov	#2048,	4690(r15);#0x0800, 0x1252(r15)
    a2a0:	4e 43       	clr.b	r14		
    a2a2:	4f 4b       	mov.b	r11,	r15	
    a2a4:	b0 12 5e a0 	call	#0xa05e	
    a2a8:	77 3c       	jmp	$+240    	;abs 0xa398
    a2aa:	0e 43       	clr	r14		
    a2ac:	1f 43       	mov	#1,	r15	;r3 As==01
    a2ae:	0d 4c       	mov	r12,	r13	
    a2b0:	0d 5d       	rla	r13		
    a2b2:	0c 5d       	add	r13,	r12	
    a2b4:	0c 5c       	rla	r12		
    a2b6:	03 12       	push	#0		;r3 As==00
    a2b8:	30 12 06 00 	push	#6		;#0x0006
    a2bc:	3c 50 14 26 	add	#9748,	r12	;#0x2614
    a2c0:	0d 4e       	mov	r14,	r13	
    a2c2:	0e 4f       	mov	r15,	r14	
    a2c4:	3d 50 fa ff 	add	#-6,	r13	;#0xfffa
    a2c8:	0e 63       	adc	r14		
    a2ca:	4f 4b       	mov.b	r11,	r15	
    a2cc:	b0 12 f4 8d 	call	#0x8df4	
    a2d0:	21 52       	add	#4,	r1	;r2 As==10
    a2d2:	62 3c       	jmp	$+198    	;abs 0xa398
    a2d4:	0e 43       	clr	r14		
    a2d6:	1f 43       	mov	#1,	r15	;r3 As==01
    a2d8:	4b 93       	tst.b	r11		
    a2da:	5e 20       	jnz	$+190    	;abs 0xa398
    a2dc:	b0 12 fe 8f 	call	#0x8ffe	
    a2e0:	5b 3c       	jmp	$+184    	;abs 0xa398
    a2e2:	1e 42 14 26 	mov	&0x2614,r14	
    a2e6:	1f 42 16 26 	mov	&0x2616,r15	
    a2ea:	3e 93       	cmp	#-1,	r14	;r3 As==11
    a2ec:	08 20       	jnz	$+18     	;abs 0xa2fe
    a2ee:	3f 93       	cmp	#-1,	r15	;r3 As==11
    a2f0:	06 20       	jnz	$+14     	;abs 0xa2fe
    a2f2:	b2 93 1a 26 	cmp	#-1,	&0x261a	;r3 As==11
    a2f6:	03 20       	jnz	$+8      	;abs 0xa2fe
    a2f8:	b2 93 1c 26 	cmp	#-1,	&0x261c	;r3 As==11
    a2fc:	26 24       	jz	$+78     	;abs 0xa34a
    a2fe:	4d 4b       	mov.b	r11,	r13	
    a300:	02 12       	push	r2		
    a302:	32 c2       	dint			
    a304:	03 43       	nop			
    a306:	82 4d 32 01 	mov	r13,	&0x0132	
    a30a:	b2 40 16 00 38 01 	mov	#22,	&0x0138	;#0x0016
    a310:	1d 42 3a 01 	mov	&0x013a,r13	
    a314:	32 41       	pop	r2		
    a316:	dd d3 57 12 	bis.b	#1,	4695(r13);r3 As==01, 0x1257(r13)
    a31a:	3e 93       	cmp	#-1,	r14	;r3 As==11
    a31c:	02 20       	jnz	$+6      	;abs 0xa322
    a31e:	3f 93       	cmp	#-1,	r15	;r3 As==11
    a320:	12 24       	jz	$+38     	;abs 0xa346
    a322:	1c 42 1a 26 	mov	&0x261a,r12	
    a326:	1d 42 1c 26 	mov	&0x261c,r13	
    a32a:	3c 93       	cmp	#-1,	r12	;r3 As==11
    a32c:	02 20       	jnz	$+6      	;abs 0xa332
    a32e:	3d 93       	cmp	#-1,	r13	;r3 As==11
    a330:	0c 24       	jz	$+26     	;abs 0xa34a
    a332:	0c 8e       	sub	r14,	r12	
    a334:	0d 7f       	subc	r15,	r13	
    a336:	5f 43       	mov.b	#1,	r15	;r3 As==01
    a338:	0d 93       	tst	r13		
    a33a:	07 38       	jl	$+16     	;abs 0xa34a
    a33c:	1d 93       	cmp	#1,	r13	;r3 As==01
    a33e:	06 34       	jge	$+14     	;abs 0xa34c
    a340:	1c 93       	cmp	#1,	r12	;r3 As==01
    a342:	04 2c       	jc	$+10     	;abs 0xa34c
    a344:	02 3c       	jmp	$+6      	;abs 0xa34a
    a346:	5f 43       	mov.b	#1,	r15	;r3 As==01
    a348:	01 3c       	jmp	$+4      	;abs 0xa34c
    a34a:	4f 43       	clr.b	r15		
    a34c:	4e 4b       	mov.b	r11,	r14	
    a34e:	02 12       	push	r2		
    a350:	32 c2       	dint			
    a352:	03 43       	nop			
    a354:	82 4e 32 01 	mov	r14,	&0x0132	
    a358:	b2 40 16 00 38 01 	mov	#22,	&0x0138	;#0x0016
    a35e:	1d 42 3a 01 	mov	&0x013a,r13	
    a362:	32 41       	pop	r2		
    a364:	cd 4f 56 12 	mov.b	r15,	4694(r13);0x1256(r13)
    a368:	02 12       	push	r2		
    a36a:	32 c2       	dint			
    a36c:	03 43       	nop			
    a36e:	82 4e 32 01 	mov	r14,	&0x0132	
    a372:	b2 40 16 00 38 01 	mov	#22,	&0x0138	;#0x0016
    a378:	1c 42 3a 01 	mov	&0x013a,r12	
    a37c:	32 41       	pop	r2		
    a37e:	4d 4f       	mov.b	r15,	r13	
    a380:	0e 4d       	mov	r13,	r14	
    a382:	0e 5e       	rla	r14		
    a384:	0e 5d       	add	r13,	r14	
    a386:	0e 5e       	rla	r14		
    a388:	9c 4e 14 26 54 12 	mov	9748(r14),4692(r12);0x2614(r14), 0x1254(r12)
    a38e:	4b 93       	tst.b	r11		
    a390:	03 20       	jnz	$+8      	;abs 0xa398
    a392:	5f e3       	xor.b	#1,	r15	;r3 As==01
    a394:	b0 12 c0 8e 	call	#0x8ec0	
    a398:	92 53 aa 13 	inc	&0x13aa	
    a39c:	3b 41       	pop	r11		
    a39e:	30 41       	ret			

0000a3a0 <Stm25pConfigP__continueWrite>:
    a3a0:	0b 12       	push	r11		
    a3a2:	0a 12       	push	r10		
    a3a4:	09 12       	push	r9		
    a3a6:	08 12       	push	r8		
    a3a8:	07 12       	push	r7		
    a3aa:	06 12       	push	r6		
    a3ac:	05 12       	push	r5		
    a3ae:	04 12       	push	r4		
    a3b0:	49 4f       	mov.b	r15,	r9	
    a3b2:	4c 4f       	mov.b	r15,	r12	
    a3b4:	02 12       	push	r2		
    a3b6:	32 c2       	dint			
    a3b8:	03 43       	nop			
    a3ba:	82 4c 32 01 	mov	r12,	&0x0132	
    a3be:	b2 40 16 00 38 01 	mov	#22,	&0x0138	;#0x0016
    a3c4:	1b 42 3a 01 	mov	&0x013a,r11	
    a3c8:	32 41       	pop	r2		
    a3ca:	3b 50 42 12 	add	#4674,	r11	;#0x1242
    a3ce:	16 42 aa 13 	mov	&0x13aa,r6	
    a3d2:	17 42 2c 13 	mov	&0x132c,r7	
    a3d6:	08 47       	mov	r7,	r8	
    a3d8:	88 10       	swpb	r8		
    a3da:	48 48       	mov.b	r8,	r8	
    a3dc:	4a 47       	mov.b	r7,	r10	
    a3de:	4f 48       	mov.b	r8,	r15	
    a3e0:	4f 56       	add.b	r6,	r15	
    a3e2:	4f 4f       	mov.b	r15,	r15	
    a3e4:	0f 5f       	rla	r15		
    a3e6:	0f 5b       	add	r11,	r15	
    a3e8:	24 4f       	mov	@r15,	r4	
    a3ea:	4f 4a       	mov.b	r10,	r15	
    a3ec:	0d 44       	mov	r4,	r13	
    a3ee:	0d 5f       	add	r15,	r13	
    a3f0:	0e 43       	clr	r14		
    a3f2:	02 12       	push	r2		
    a3f4:	32 c2       	dint			
    a3f6:	03 43       	nop			
    a3f8:	82 4c 32 01 	mov	r12,	&0x0132	
    a3fc:	b2 40 16 00 38 01 	mov	#22,	&0x0138	;#0x0016
    a402:	1f 42 3a 01 	mov	&0x013a,r15	
    a406:	32 41       	pop	r2		
    a408:	55 4f 56 12 	mov.b	4694(r15),r5	;0x1256(r15)
    a40c:	5f 43       	mov.b	#1,	r15	;r3 As==01
    a40e:	34 90 00 08 	cmp	#2048,	r4	;#0x0800
    a412:	01 28       	jnc	$+4      	;abs 0xa416
    a414:	4f 43       	clr.b	r15		
    a416:	4f 95       	cmp.b	r5,	r15	
    a418:	02 20       	jnz	$+6      	;abs 0xa41e
    a41a:	0d 53       	add	#0,	r13	;r3 As==00
    a41c:	1e 63       	addc	#1,	r14	;r3 As==01
    a41e:	5f 42 b8 25 	mov.b	&0x25b8,r15	
    a422:	4f 93       	tst.b	r15		
    a424:	03 24       	jz	$+8      	;abs 0xa42c
    a426:	5f 93       	cmp.b	#1,	r15	;r3 As==01
    a428:	53 20       	jnz	$+168    	;abs 0xa4d0
    a42a:	25 3c       	jmp	$+76     	;abs 0xa476
    a42c:	0c 5c       	rla	r12		
    a42e:	0c 5c       	rla	r12		
    a430:	0c 5c       	rla	r12		
    a432:	3c 50 66 12 	add	#4710,	r12	;#0x1266
    a436:	6f 4c       	mov.b	@r12,	r15	
    a438:	4a 9f       	cmp.b	r15,	r10	
    a43a:	03 2c       	jc	$+8      	;abs 0xa442
    a43c:	4f 4f       	mov.b	r15,	r15	
    a43e:	4a 4a       	mov.b	r10,	r10	
    a440:	1f 3c       	jmp	$+64     	;abs 0xa480
    a442:	4a 9f       	cmp.b	r15,	r10	
    a444:	45 20       	jnz	$+140    	;abs 0xa4d0
    a446:	1e 4b 10 00 	mov	16(r11),r14	;0x0010(r11)
    a44a:	0f 43       	clr	r15		
    a44c:	45 93       	tst.b	r5		
    a44e:	02 20       	jnz	$+6      	;abs 0xa454
    a450:	0e 53       	add	#0,	r14	;r3 As==00
    a452:	1f 63       	addc	#1,	r15	;r3 As==01
    a454:	1a 4c 04 00 	mov	4(r12),	r10	;0x0004(r12)
    a458:	1b 4c 02 00 	mov	2(r12),	r11	;0x0002(r12)
    a45c:	49 93       	tst.b	r9		
    a45e:	08 20       	jnz	$+18     	;abs 0xa470
    a460:	0c 4a       	mov	r10,	r12	
    a462:	0d 43       	clr	r13		
    a464:	0d 12       	push	r13		
    a466:	0c 12       	push	r12		
    a468:	0d 4b       	mov	r11,	r13	
    a46a:	b0 12 4c 8e 	call	#0x8e4c	
    a46e:	21 52       	add	#4,	r1	;r2 As==10
    a470:	d2 43 b8 25 	mov.b	#1,	&0x25b8	;r3 As==01
    a474:	2d 3c       	jmp	$+92     	;abs 0xa4d0
    a476:	4a 93       	tst.b	r10		
    a478:	14 24       	jz	$+42     	;abs 0xa4a2
    a47a:	4a 4a       	mov.b	r10,	r10	
    a47c:	3f 40 00 01 	mov	#256,	r15	;#0x0100
    a480:	0f 8a       	sub	r10,	r15	
    a482:	3f 90 11 00 	cmp	#17,	r15	;#0x0011
    a486:	02 28       	jnc	$+6      	;abs 0xa48c
    a488:	3f 40 10 00 	mov	#16,	r15	;#0x0010
    a48c:	0a 4f       	mov	r15,	r10	
    a48e:	0b 43       	clr	r11		
    a490:	0b 12       	push	r11		
    a492:	0a 12       	push	r10		
    a494:	3c 40 34 13 	mov	#4916,	r12	;#0x1334
    a498:	4f 49       	mov.b	r9,	r15	
    a49a:	b0 12 f4 8d 	call	#0x8df4	
    a49e:	21 52       	add	#4,	r1	;r2 As==10
    a4a0:	17 3c       	jmp	$+48     	;abs 0xa4d0
    a4a2:	8b 87 10 00 	sub	r7,	16(r11)	;0x0010(r11)
    a4a6:	4e 43       	clr.b	r14		
    a4a8:	0c 3c       	jmp	$+26     	;abs 0xa4c2
    a4aa:	1d 4b 10 00 	mov	16(r11),r13	;0x0010(r11)
    a4ae:	0f 56       	add	r6,	r15	
    a4b0:	0f 5f       	rla	r15		
    a4b2:	0f 5b       	add	r11,	r15	
    a4b4:	8f 4d 00 00 	mov	r13,	0(r15)	;0x0000(r15)
    a4b8:	3d 50 00 01 	add	#256,	r13	;#0x0100
    a4bc:	8b 4d 10 00 	mov	r13,	16(r11)	;0x0010(r11)
    a4c0:	5e 53       	inc.b	r14		
    a4c2:	4f 4e       	mov.b	r14,	r15	
    a4c4:	0f 98       	cmp	r8,	r15	
    a4c6:	f1 2b       	jnc	$-28     	;abs 0xa4aa
    a4c8:	4e 43       	clr.b	r14		
    a4ca:	4f 49       	mov.b	r9,	r15	
    a4cc:	b0 12 5e a0 	call	#0xa05e	
    a4d0:	34 41       	pop	r4		
    a4d2:	35 41       	pop	r5		
    a4d4:	36 41       	pop	r6		
    a4d6:	37 41       	pop	r7		
    a4d8:	38 41       	pop	r8		
    a4da:	39 41       	pop	r9		
    a4dc:	3a 41       	pop	r10		
    a4de:	3b 41       	pop	r11		
    a4e0:	30 41       	ret			

0000a4e2 <Stm25pConfigP__continueCommit>:
    a4e2:	0b 12       	push	r11		
    a4e4:	4b 4f       	mov.b	r15,	r11	
    a4e6:	4f 4f       	mov.b	r15,	r15	
    a4e8:	02 12       	push	r2		
    a4ea:	32 c2       	dint			
    a4ec:	03 43       	nop			
    a4ee:	82 4f 32 01 	mov	r15,	&0x0132	
    a4f2:	b2 40 16 00 38 01 	mov	#22,	&0x0138	;#0x0016
    a4f8:	1e 42 3a 01 	mov	&0x013a,r14	
    a4fc:	32 41       	pop	r2		
    a4fe:	3e 50 42 12 	add	#4674,	r14	;#0x1242
    a502:	b2 90 00 01 2c 13 	cmp	#256,	&0x132c	;#0x0100
    a508:	04 28       	jnc	$+10     	;abs 0xa512
    a50a:	92 53 aa 13 	inc	&0x13aa	
    a50e:	82 43 2c 13 	mov	#0,	&0x132c	;r3 As==00
    a512:	1f 42 aa 13 	mov	&0x13aa,r15	
    a516:	3f 92       	cmp	#8,	r15	;r2 As==11
    a518:	29 2c       	jc	$+84     	;abs 0xa56c
    a51a:	0f 5f       	rla	r15		
    a51c:	0e 5f       	add	r15,	r14	
    a51e:	2d 4e       	mov	@r14,	r13	
    a520:	0e 4d       	mov	r13,	r14	
    a522:	1e 52 2c 13 	add	&0x132c,r14	
    a526:	0f 43       	clr	r15		
    a528:	5c 43       	mov.b	#1,	r12	;r3 As==01
    a52a:	3d 90 00 08 	cmp	#2048,	r13	;#0x0800
    a52e:	01 28       	jnc	$+4      	;abs 0xa532
    a530:	4c 43       	clr.b	r12		
    a532:	4d 4b       	mov.b	r11,	r13	
    a534:	02 12       	push	r2		
    a536:	32 c2       	dint			
    a538:	03 43       	nop			
    a53a:	82 4d 32 01 	mov	r13,	&0x0132	
    a53e:	b2 40 16 00 38 01 	mov	#22,	&0x0138	;#0x0016
    a544:	1d 42 3a 01 	mov	&0x013a,r13	
    a548:	32 41       	pop	r2		
    a54a:	5c 9d 56 12 	cmp.b	4694(r13),r12	;0x1256(r13)
    a54e:	02 20       	jnz	$+6      	;abs 0xa554
    a550:	0e 53       	add	#0,	r14	;r3 As==00
    a552:	1f 63       	addc	#1,	r15	;r3 As==01
    a554:	03 12       	push	#0		;r3 As==00
    a556:	30 12 10 00 	push	#16		;#0x0010
    a55a:	3c 40 34 13 	mov	#4916,	r12	;#0x1334
    a55e:	0d 4e       	mov	r14,	r13	
    a560:	0e 4f       	mov	r15,	r14	
    a562:	4f 4b       	mov.b	r11,	r15	
    a564:	b0 12 f4 8d 	call	#0x8df4	
    a568:	21 52       	add	#4,	r1	;r2 As==10
    a56a:	4e 3c       	jmp	$+158    	;abs 0xa608
    a56c:	3f 92       	cmp	#8,	r15	;r2 As==11
    a56e:	0d 20       	jnz	$+28     	;abs 0xa58a
    a570:	c2 93 56 12 	tst.b	&0x1256	
    a574:	03 24       	jz	$+8      	;abs 0xa57c
    a576:	0e 43       	clr	r14		
    a578:	0f 43       	clr	r15		
    a57a:	02 3c       	jmp	$+6      	;abs 0xa580
    a57c:	0e 43       	clr	r14		
    a57e:	1f 43       	mov	#1,	r15	;r3 As==01
    a580:	4b 93       	tst.b	r11		
    a582:	2d 20       	jnz	$+92     	;abs 0xa5de
    a584:	b0 12 fe 8f 	call	#0x8ffe	
    a588:	2a 3c       	jmp	$+86     	;abs 0xa5de
    a58a:	3f 90 09 00 	cmp	#9,	r15	;#0x0009
    a58e:	2a 20       	jnz	$+86     	;abs 0xa5e4
    a590:	5d 4e 14 00 	mov.b	20(r14),r13	;0x0014(r14)
    a594:	5d e3       	xor.b	#1,	r13	;r3 As==01
    a596:	ce 4d 14 00 	mov.b	r13,	20(r14)	;0x0014(r14)
    a59a:	be 40 00 08 10 00 	mov	#2048,	16(r14)	;#0x0800, 0x0010(r14)
    a5a0:	8e 43 00 00 	mov	#0,	0(r14)	;r3 As==00, 0x0000(r14)
    a5a4:	be 40 00 01 02 00 	mov	#256,	2(r14)	;#0x0100, 0x0002(r14)
    a5aa:	be 40 00 02 04 00 	mov	#512,	4(r14)	;#0x0200, 0x0004(r14)
    a5b0:	be 40 00 03 06 00 	mov	#768,	6(r14)	;#0x0300, 0x0006(r14)
    a5b6:	be 40 00 04 08 00 	mov	#1024,	8(r14)	;#0x0400, 0x0008(r14)
    a5bc:	be 40 00 05 0a 00 	mov	#1280,	10(r14)	;#0x0500, 0x000a(r14)
    a5c2:	be 40 00 06 0c 00 	mov	#1536,	12(r14)	;#0x0600, 0x000c(r14)
    a5c8:	be 40 00 07 0e 00 	mov	#1792,	14(r14)	;#0x0700, 0x000e(r14)
    a5ce:	4b 93       	tst.b	r11		
    a5d0:	06 20       	jnz	$+14     	;abs 0xa5de
    a5d2:	5f 43       	mov.b	#1,	r15	;r3 As==01
    a5d4:	4d 93       	tst.b	r13		
    a5d6:	01 24       	jz	$+4      	;abs 0xa5da
    a5d8:	4f 43       	clr.b	r15		
    a5da:	b0 12 c0 8e 	call	#0x8ec0	
    a5de:	92 53 aa 13 	inc	&0x13aa	
    a5e2:	12 3c       	jmp	$+38     	;abs 0xa608
    a5e4:	4f 4b       	mov.b	r11,	r15	
    a5e6:	02 12       	push	r2		
    a5e8:	32 c2       	dint			
    a5ea:	03 43       	nop			
    a5ec:	82 4f 32 01 	mov	r15,	&0x0132	
    a5f0:	b2 40 16 00 38 01 	mov	#22,	&0x0138	;#0x0016
    a5f6:	1f 42 3a 01 	mov	&0x013a,r15	
    a5fa:	32 41       	pop	r2		
    a5fc:	df d3 57 12 	bis.b	#1,	4695(r15);r3 As==01, 0x1257(r15)
    a600:	4e 43       	clr.b	r14		
    a602:	4f 4b       	mov.b	r11,	r15	
    a604:	b0 12 5e a0 	call	#0xa05e	
    a608:	3b 41       	pop	r11		
    a60a:	30 41       	ret			

0000a60c <Stm25pConfigP__ClientResource__granted.constprop.360>:
    a60c:	0b 12       	push	r11		
    a60e:	0a 12       	push	r10		
    a610:	82 43 aa 13 	mov	#0,	&0x13aa	;r3 As==00
    a614:	82 43 2c 13 	mov	#0,	&0x132c	;r3 As==00
    a618:	5f 42 6c 12 	mov.b	&0x126c,r15	
    a61c:	6f 93       	cmp.b	#2,	r15	;r3 As==10
    a61e:	10 24       	jz	$+34     	;abs 0xa640
    a620:	7f 90 03 00 	cmp.b	#3,	r15	;#0x0003
    a624:	03 2c       	jc	$+8      	;abs 0xa62c
    a626:	5f 93       	cmp.b	#1,	r15	;r3 As==01
    a628:	30 20       	jnz	$+98     	;abs 0xa68a
    a62a:	06 3c       	jmp	$+14     	;abs 0xa638
    a62c:	7f 90 03 00 	cmp.b	#3,	r15	;#0x0003
    a630:	1d 24       	jz	$+60     	;abs 0xa66c
    a632:	6f 92       	cmp.b	#4,	r15	;r2 As==10
    a634:	2a 20       	jnz	$+86     	;abs 0xa68a
    a636:	26 3c       	jmp	$+78     	;abs 0xa684
    a638:	4f 43       	clr.b	r15		
    a63a:	b0 12 7e a1 	call	#0xa17e	
    a63e:	25 3c       	jmp	$+76     	;abs 0xa68a
    a640:	1a 42 6a 12 	mov	&0x126a,r10	
    a644:	0b 43       	clr	r11		
    a646:	1c 42 68 12 	mov	&0x1268,r12	
    a64a:	1e 42 66 12 	mov	&0x1266,r14	
    a64e:	0f 43       	clr	r15		
    a650:	d2 93 56 12 	cmp.b	#1,	&0x1256	;r3 As==01
    a654:	02 20       	jnz	$+6      	;abs 0xa65a
    a656:	0e 53       	add	#0,	r14	;r3 As==00
    a658:	1f 63       	addc	#1,	r15	;r3 As==01
    a65a:	0b 12       	push	r11		
    a65c:	0a 12       	push	r10		
    a65e:	0d 4e       	mov	r14,	r13	
    a660:	0e 4f       	mov	r15,	r14	
    a662:	4f 43       	clr.b	r15		
    a664:	b0 12 f4 8d 	call	#0x8df4	
    a668:	21 52       	add	#4,	r1	;r2 As==10
    a66a:	0f 3c       	jmp	$+32     	;abs 0xa68a
    a66c:	c2 43 b8 25 	mov.b	#0,	&0x25b8	;r3 As==00
    a670:	1f 42 66 12 	mov	&0x1266,r15	
    a674:	8f 10       	swpb	r15		
    a676:	4f 4f       	mov.b	r15,	r15	
    a678:	82 4f aa 13 	mov	r15,	&0x13aa	
    a67c:	4f 43       	clr.b	r15		
    a67e:	b0 12 a0 a3 	call	#0xa3a0	
    a682:	03 3c       	jmp	$+8      	;abs 0xa68a
    a684:	4f 43       	clr.b	r15		
    a686:	b0 12 e2 a4 	call	#0xa4e2	
    a68a:	3a 41       	pop	r10		
    a68c:	3b 41       	pop	r11		
    a68e:	30 41       	ret			

0000a690 <Msp430SpiNoDmaP__0__UsartResource__granted>:
    a690:	4f 93       	tst.b	r15		
    a692:	03 24       	jz	$+8      	;abs 0xa69a
    a694:	5f 93       	cmp.b	#1,	r15	;r3 As==01
    a696:	48 20       	jnz	$+146    	;abs 0xa728
    a698:	05 3c       	jmp	$+12     	;abs 0xa6a4
    a69a:	7f 40 07 00 	mov.b	#7,	r15	;#0x0007
    a69e:	b0 12 8a 63 	call	#0x638a	
    a6a2:	30 41       	ret			
    a6a4:	c2 93 aa 11 	tst.b	&0x11aa	
    a6a8:	0b 24       	jz	$+24     	;abs 0xa6c0
    a6aa:	c2 43 aa 11 	mov.b	#0,	&0x11aa	;r3 As==00
    a6ae:	5e 43       	mov.b	#1,	r14	;r3 As==01
    a6b0:	7f 40 b9 ff 	mov.b	#-71,	r15	;#0xffb9
    a6b4:	b0 12 7e 8d 	call	#0x8d7e	
    a6b8:	5f 43       	mov.b	#1,	r15	;r3 As==01
    a6ba:	b0 12 50 82 	call	#0x8250	
    a6be:	30 41       	ret			
    a6c0:	c2 93 ae 11 	tst.b	&0x11ae	
    a6c4:	25 20       	jnz	$+76     	;abs 0xa710
    a6c6:	1f 42 c4 15 	mov	&0x15c4,r15	
    a6ca:	82 43 c4 15 	mov	#0,	&0x15c4	;r3 As==00
    a6ce:	1f 93       	cmp	#1,	r15	;r3 As==01
    a6d0:	0c 20       	jnz	$+26     	;abs 0xa6ea
    a6d2:	7e 40 05 00 	mov.b	#5,	r14	;#0x0005
    a6d6:	7f 40 ab ff 	mov.b	#-85,	r15	;#0xffab
    a6da:	b0 12 7e 8d 	call	#0x8d7e	
    a6de:	5f 43       	mov.b	#1,	r15	;r3 As==01
    a6e0:	b0 12 50 82 	call	#0x8250	
    a6e4:	b0 12 d8 92 	call	#0x92d8	
    a6e8:	30 41       	ret			
    a6ea:	2f 93       	cmp	#2,	r15	;r3 As==10
    a6ec:	0b 20       	jnz	$+24     	;abs 0xa704
    a6ee:	5e 43       	mov.b	#1,	r14	;r3 As==01
    a6f0:	7f 40 b9 ff 	mov.b	#-71,	r15	;#0xffb9
    a6f4:	b0 12 7e 8d 	call	#0x8d7e	
    a6f8:	5f 43       	mov.b	#1,	r15	;r3 As==01
    a6fa:	b0 12 50 82 	call	#0x8250	
    a6fe:	b0 12 1e 93 	call	#0x931e	
    a702:	30 41       	ret			
    a704:	c2 93 64 12 	tst.b	&0x1264	
    a708:	0f 20       	jnz	$+32     	;abs 0xa728
    a70a:	b0 12 0c a6 	call	#0xa60c	
    a70e:	30 41       	ret			
    a710:	6e 43       	mov.b	#2,	r14	;r3 As==10
    a712:	7f 40 05 00 	mov.b	#5,	r15	;#0x0005
    a716:	b0 12 7e 8d 	call	#0x8d7e	
    a71a:	1f f3       	and	#1,	r15	;r3 As==01
    a71c:	03 24       	jz	$+8      	;abs 0xa724
    a71e:	b0 12 b4 83 	call	#0x83b4	
    a722:	30 41       	ret			
    a724:	b0 12 f6 8e 	call	#0x8ef6	
    a728:	30 41       	ret			

0000a72a <CC2420SpiP__Resource__request>:
    a72a:	0b 12       	push	r11		
    a72c:	0a 12       	push	r10		
    a72e:	4b 4f       	mov.b	r15,	r11	
    a730:	b0 12 b2 5f 	call	#0x5fb2	
    a734:	4a 4f       	mov.b	r15,	r10	
    a736:	4f 43       	clr.b	r15		
    a738:	b0 12 ca 9f 	call	#0x9fca	
    a73c:	4f 93       	tst.b	r15		
    a73e:	0e 20       	jnz	$+30     	;abs 0xa75c
    a740:	c2 4b 99 11 	mov.b	r11,	&0x1199	
    a744:	c2 93 96 11 	tst.b	&0x1196	
    a748:	1b 20       	jnz	$+56     	;abs 0xa780
    a74a:	f2 90 03 00 00 12 	cmp.b	#3,	&0x1200	;#0x0003
    a750:	17 20       	jnz	$+48     	;abs 0xa780
    a752:	7f 40 07 00 	mov.b	#7,	r15	;#0x0007
    a756:	b0 12 8a 63 	call	#0x638a	
    a75a:	0b 3c       	jmp	$+24     	;abs 0xa772
    a75c:	1e 43       	mov	#1,	r14	;r3 As==01
    a75e:	4d 4b       	mov.b	r11,	r13	
    a760:	7d f0 0f 00 	and.b	#15,	r13	;#0x000f
    a764:	4d 93       	tst.b	r13		
    a766:	03 24       	jz	$+8      	;abs 0xa76e
    a768:	0e 5e       	rla	r14		
    a76a:	7d 53       	add.b	#-1,	r13	;r3 As==11
    a76c:	fb 3f       	jmp	$-8      	;abs 0xa764
    a76e:	c2 de 02 12 	bis.b	r14,	&0x1202	
    a772:	4f 4a       	mov.b	r10,	r15	
    a774:	b0 12 c4 5f 	call	#0x5fc4	
    a778:	4f 43       	clr.b	r15		
    a77a:	3a 41       	pop	r10		
    a77c:	3b 41       	pop	r11		
    a77e:	30 41       	ret			
    a780:	4f 43       	clr.b	r15		
    a782:	b0 12 a2 83 	call	#0x83a2	
    a786:	f5 3f       	jmp	$-20     	;abs 0xa772

0000a788 <HplMsp430Usart0P__Usart__setModeSpi.constprop.359>:
    a788:	0b 12       	push	r11		
    a78a:	b0 12 b2 5f 	call	#0x5fb2	
    a78e:	4b 4f       	mov.b	r15,	r11	
    a790:	5f 43       	mov.b	#1,	r15	;r3 As==01
    a792:	b0 12 ec 4e 	call	#0x4eec	
    a796:	f2 f0 da ff 70 00 	and.b	#-38,	&0x0070	;#0xffda
    a79c:	5f 43       	mov.b	#1,	r15	;r3 As==01
    a79e:	b0 12 ec 4e 	call	#0x4eec	
    a7a2:	f2 f0 3f 00 04 00 	and.b	#63,	&0x0004	;#0x003f
    a7a8:	3e 40 1b 00 	mov	#27,	r14	;#0x001b
    a7ac:	fe f0 ef ff 00 00 	and.b	#-17,	0(r14)	;#0xffef, 0x0000(r14)
    a7b2:	fe f0 df ff 00 00 	and.b	#-33,	0(r14)	;#0xffdf, 0x0000(r14)
    a7b8:	3d 40 a2 11 	mov	#4514,	r13	;#0x11a2
    a7bc:	6f 4d       	mov.b	@r13,	r15	
    a7be:	7f d0 05 00 	bis.b	#5,	r15	;#0x0005
    a7c2:	c2 4f 70 00 	mov.b	r15,	&0x0070	
    a7c6:	d2 4d 01 00 71 00 	mov.b	1(r13),	&0x0071	;0x0001(r13)
    a7cc:	1d 42 a0 11 	mov	&0x11a0,r13	
    a7d0:	c2 4d 74 00 	mov.b	r13,	&0x0074	
    a7d4:	8d 10       	swpb	r13		
    a7d6:	4d 4d       	mov.b	r13,	r13	
    a7d8:	c2 4d 75 00 	mov.b	r13,	&0x0075	
    a7dc:	c2 43 73 00 	mov.b	#0,	&0x0073	;r3 As==00
    a7e0:	ee d3 00 00 	bis.b	#2,	0(r14)	;r3 As==10, 0x0000(r14)
    a7e4:	ee d2 00 00 	bis.b	#4,	0(r14)	;r2 As==10, 0x0000(r14)
    a7e8:	fe d2 00 00 	bis.b	#8,	0(r14)	;r2 As==11, 0x0000(r14)
    a7ec:	f2 d0 40 00 04 00 	bis.b	#64,	&0x0004	;#0x0040
    a7f2:	4f 43       	clr.b	r15		
    a7f4:	b0 12 ec 4e 	call	#0x4eec	
    a7f8:	f2 f0 3f 00 02 00 	and.b	#63,	&0x0002	;#0x003f
    a7fe:	f2 f0 3f 00 00 00 	and.b	#63,	&0x0000	;#0x003f
    a804:	4f 4b       	mov.b	r11,	r15	
    a806:	b0 12 c4 5f 	call	#0x5fc4	
    a80a:	3b 41       	pop	r11		
    a80c:	30 41       	ret			

0000a80e <ArbiterP__0__ResourceConfigure__configure>:
    a80e:	4f 93       	tst.b	r15		
    a810:	03 24       	jz	$+8      	;abs 0xa818
    a812:	5f 93       	cmp.b	#1,	r15	;r3 As==01
    a814:	06 20       	jnz	$+14     	;abs 0xa822
    a816:	03 3c       	jmp	$+8      	;abs 0xa81e
    a818:	b0 12 88 a7 	call	#0xa788	
    a81c:	30 41       	ret			
    a81e:	b0 12 88 a7 	call	#0xa788	
    a822:	30 41       	ret			

0000a824 <CC2420SpiP__Resource__immediateRequest>:
    a824:	0b 12       	push	r11		
    a826:	0a 12       	push	r10		
    a828:	4b 4f       	mov.b	r15,	r11	
    a82a:	b0 12 b2 5f 	call	#0x5fb2	
    a82e:	4a 4f       	mov.b	r15,	r10	
    a830:	4f 43       	clr.b	r15		
    a832:	b0 12 ca 9f 	call	#0x9fca	
    a836:	4f 93       	tst.b	r15		
    a838:	06 24       	jz	$+14     	;abs 0xa846
    a83a:	4f 4a       	mov.b	r10,	r15	
    a83c:	b0 12 c4 5f 	call	#0x5fc4	
    a840:	7f 40 05 00 	mov.b	#5,	r15	;#0x0005
    a844:	22 3c       	jmp	$+70     	;abs 0xa88a
    a846:	c2 93 96 11 	tst.b	&0x1196	
    a84a:	22 20       	jnz	$+70     	;abs 0xa890
    a84c:	f2 90 03 00 00 12 	cmp.b	#3,	&0x1200	;#0x0003
    a852:	1e 20       	jnz	$+62     	;abs 0xa890
    a854:	0c 3c       	jmp	$+26     	;abs 0xa86e
    a856:	e2 43 00 12 	mov.b	#2,	&0x1200	;r3 As==10
    a85a:	c2 43 54 1d 	mov.b	#0,	&0x1d54	;r3 As==00
    a85e:	b0 12 d4 82 	call	#0x82d4	
    a862:	c2 93 96 11 	tst.b	&0x1196	
    a866:	07 20       	jnz	$+16     	;abs 0xa876
    a868:	4f 43       	clr.b	r15		
    a86a:	b0 12 0e a8 	call	#0xa80e	
    a86e:	c2 4b 99 11 	mov.b	r11,	&0x1199	
    a872:	4b 43       	clr.b	r11		
    a874:	06 3c       	jmp	$+14     	;abs 0xa882
    a876:	c2 43 00 12 	mov.b	#0,	&0x1200	;r3 As==00
    a87a:	4f 43       	clr.b	r15		
    a87c:	b0 12 1a 83 	call	#0x831a	
    a880:	5b 43       	mov.b	#1,	r11	;r3 As==01
    a882:	4f 4a       	mov.b	r10,	r15	
    a884:	b0 12 c4 5f 	call	#0x5fc4	
    a888:	4f 4b       	mov.b	r11,	r15	
    a88a:	3a 41       	pop	r10		
    a88c:	3b 41       	pop	r11		
    a88e:	30 41       	ret			
    a890:	c2 93 00 12 	tst.b	&0x1200	
    a894:	f2 23       	jnz	$-26     	;abs 0xa87a
    a896:	df 3f       	jmp	$-64     	;abs 0xa856

0000a898 <CC2420ReceiveP__beginReceive>:
    a898:	a2 43 6a 13 	mov	#2,	&0x136a	;r3 As==10
    a89c:	d2 43 d7 13 	mov.b	#1,	&0x13d7	;r3 As==01
    a8a0:	e2 92 99 11 	cmp.b	#4,	&0x1199	;r2 As==10
    a8a4:	05 24       	jz	$+12     	;abs 0xa8b0
    a8a6:	6f 42       	mov.b	#4,	r15	;r2 As==10
    a8a8:	b0 12 24 a8 	call	#0xa824	
    a8ac:	4f 93       	tst.b	r15		
    a8ae:	03 20       	jnz	$+8      	;abs 0xa8b6
    a8b0:	b0 12 c4 81 	call	#0x81c4	
    a8b4:	30 41       	ret			
    a8b6:	6f 42       	mov.b	#4,	r15	;r2 As==10
    a8b8:	b0 12 2a a7 	call	#0xa72a	
    a8bc:	30 41       	ret			

0000a8be <CC2420ReceiveP__waitForNextPacket>:
    a8be:	0b 12       	push	r11		
    a8c0:	b0 12 b2 5f 	call	#0x5fb2	
    a8c4:	4b 4f       	mov.b	r15,	r11	
    a8c6:	82 93 6a 13 	tst	&0x136a	
    a8ca:	18 24       	jz	$+50     	;abs 0xa8fc
    a8cc:	c2 43 d7 13 	mov.b	#0,	&0x13d7	;r3 As==00
    a8d0:	5e 42 92 13 	mov.b	&0x1392,r14	
    a8d4:	4e 93       	tst.b	r14		
    a8d6:	03 24       	jz	$+8      	;abs 0xa8de
    a8d8:	f2 b2 20 00 	bit.b	#8,	&0x0020	;r2 As==11
    a8dc:	05 20       	jnz	$+12     	;abs 0xa8e8
    a8de:	d2 b3 20 00 	bit.b	#1,	&0x0020	;r3 As==01
    a8e2:	08 20       	jnz	$+18     	;abs 0xa8f4
    a8e4:	4e 93       	tst.b	r14		
    a8e6:	03 24       	jz	$+8      	;abs 0xa8ee
    a8e8:	7e 53       	add.b	#-1,	r14	;r3 As==11
    a8ea:	c2 4e 92 13 	mov.b	r14,	&0x1392	
    a8ee:	b0 12 98 a8 	call	#0xa898	
    a8f2:	07 3c       	jmp	$+16     	;abs 0xa902
    a8f4:	92 43 6a 13 	mov	#1,	&0x136a	;r3 As==01
    a8f8:	c2 43 92 13 	mov.b	#0,	&0x1392	;r3 As==00
    a8fc:	6f 42       	mov.b	#4,	r15	;r2 As==10
    a8fe:	b0 12 d0 83 	call	#0x83d0	
    a902:	4f 4b       	mov.b	r11,	r15	
    a904:	b0 12 c4 5f 	call	#0x5fc4	
    a908:	3b 41       	pop	r11		
    a90a:	30 41       	ret			

0000a90c <CC2420ReceiveP__flush>:
    a90c:	b0 12 fa 4b 	call	#0x4bfa	
    a910:	b0 12 c2 83 	call	#0x83c2	
    a914:	b0 12 e0 80 	call	#0x80e0	
    a918:	7f 42       	mov.b	#8,	r15	;r2 As==11
    a91a:	b0 12 90 80 	call	#0x8090	
    a91e:	7f 42       	mov.b	#8,	r15	;r2 As==11
    a920:	b0 12 90 80 	call	#0x8090	
    a924:	b0 12 c2 83 	call	#0x83c2	
    a928:	6f 42       	mov.b	#4,	r15	;r2 As==10
    a92a:	b0 12 d0 83 	call	#0x83d0	
    a92e:	b0 12 be a8 	call	#0xa8be	
    a932:	30 41       	ret			

0000a934 <Msp430SpiNoDmaP__0__signalDone>:
    a934:	0b 12       	push	r11		
    a936:	0a 12       	push	r10		
    a938:	09 12       	push	r9		
    a93a:	08 12       	push	r8		
    a93c:	07 12       	push	r7		
    a93e:	1b 42 18 25 	mov	&0x2518,r11	
    a942:	17 42 9e 1c 	mov	&0x1c9e,r7	
    a946:	1e 42 e8 15 	mov	&0x15e8,r14	
    a94a:	5f 42 4a 16 	mov.b	&0x164a,r15	
    a94e:	4f 93       	tst.b	r15		
    a950:	06 24       	jz	$+14     	;abs 0xa95e
    a952:	5f 93       	cmp.b	#1,	r15	;r3 As==01
    a954:	02 24       	jz	$+6      	;abs 0xa95a
    a956:	30 40 4e ad 	br	#0xad4e	
    a95a:	30 40 4e ac 	br	#0xac4e	
    a95e:	1f 42 4c 16 	mov	&0x164c,r15	
    a962:	3f b0 40 00 	bit	#64,	r15	;#0x0040
    a966:	02 20       	jnz	$+6      	;abs 0xa96c
    a968:	30 40 e2 ab 	br	#0xabe2	
    a96c:	7f f0 bf ff 	and.b	#-65,	r15	;#0xffbf
    a970:	7f 90 3f 00 	cmp.b	#63,	r15	;#0x003f
    a974:	02 24       	jz	$+6      	;abs 0xa97a
    a976:	30 40 4e ad 	br	#0xad4e	
    a97a:	1b 42 2c 12 	mov	&0x122c,r11	
    a97e:	6e 4b       	mov.b	@r11,	r14	
    a980:	c2 4e 6c 13 	mov.b	r14,	&0x136c	
    a984:	1f 42 6a 13 	mov	&0x136a,r15	
    a988:	3f 90 05 00 	cmp	#5,	r15	;#0x0005
    a98c:	39 24       	jz	$+116    	;abs 0xaa00
    a98e:	3f 90 06 00 	cmp	#6,	r15	;#0x0006
    a992:	85 24       	jz	$+268    	;abs 0xaa9e
    a994:	2f 93       	cmp	#2,	r15	;r3 As==10
    a996:	02 24       	jz	$+6      	;abs 0xa99c
    a998:	30 40 d2 ab 	br	#0xabd2	
    a99c:	b2 40 05 00 6a 13 	mov	#5,	&0x136a	;#0x0005
    a9a2:	5d 42 8c 12 	mov.b	&0x128c,r13	
    a9a6:	4d 9e       	cmp.b	r14,	r13	
    a9a8:	27 24       	jz	$+80     	;abs 0xa9f8
    a9aa:	26 28       	jnc	$+78     	;abs 0xa9f8
    a9ac:	f2 b2 20 00 	bit.b	#8,	&0x0020	;r2 As==11
    a9b0:	08 20       	jnz	$+18     	;abs 0xa9c2
    a9b2:	d2 b3 20 00 	bit.b	#1,	&0x0020	;r3 As==01
    a9b6:	05 20       	jnz	$+12     	;abs 0xa9c2
    a9b8:	4f 4e       	mov.b	r14,	r15	
    a9ba:	7f e3       	xor.b	#-1,	r15	;r3 As==11
    a9bc:	4f 5d       	add.b	r13,	r15	
    a9be:	c2 4f 8c 12 	mov.b	r15,	&0x128c	
    a9c2:	7e 90 7e 00 	cmp.b	#126,	r14	;#0x007e
    a9c6:	18 2c       	jc	$+50     	;abs 0xa9f8
    a9c8:	4e 93       	tst.b	r14		
    a9ca:	0e 24       	jz	$+30     	;abs 0xa9e8
    a9cc:	0f 4b       	mov	r11,	r15	
    a9ce:	1f 53       	inc	r15		
    a9d0:	7e 92       	cmp.b	#8,	r14	;r2 As==11
    a9d2:	03 28       	jnc	$+8      	;abs 0xa9da
    a9d4:	7e 40 07 00 	mov.b	#7,	r14	;#0x0007
    a9d8:	03 3c       	jmp	$+8      	;abs 0xa9e0
    a9da:	b2 40 06 00 6a 13 	mov	#6,	&0x136a	;#0x0006
    a9e0:	b0 12 0a 81 	call	#0x810a	
    a9e4:	30 40 4e ad 	br	#0xad4e	
    a9e8:	c2 43 d7 13 	mov.b	#0,	&0x13d7	;r3 As==00
    a9ec:	b0 12 c2 83 	call	#0x83c2	
    a9f0:	6f 42       	mov.b	#4,	r15	;r2 As==10
    a9f2:	b0 12 d0 83 	call	#0x83d0	
    a9f6:	ea 3c       	jmp	$+470    	;abs 0xabcc
    a9f8:	b0 12 0c a9 	call	#0xa90c	
    a9fc:	30 40 4e ad 	br	#0xad4e	
    aa00:	b2 40 06 00 6a 13 	mov	#6,	&0x136a	;#0x0006
    aa06:	c2 93 c1 15 	tst.b	&0x15c1	
    aa0a:	42 24       	jz	$+134    	;abs 0xaa90
    aa0c:	c2 93 3a 1d 	tst.b	&0x1d3a	
    aa10:	3f 20       	jnz	$+128    	;abs 0xaa90
    aa12:	5f 4b 02 00 	mov.b	2(r11),	r15	;0x0002(r11)
    aa16:	8f 10       	swpb	r15		
    aa18:	5c 4b 01 00 	mov.b	1(r11),	r12	;0x0001(r11)
    aa1c:	0f dc       	bis	r12,	r15	
    aa1e:	3f f0 20 00 	and	#32,	r15	;#0x0020
    aa22:	36 24       	jz	$+110    	;abs 0xaa90
    aa24:	5a 4b 07 00 	mov.b	7(r11),	r10	;0x0007(r11)
    aa28:	8a 10       	swpb	r10		
    aa2a:	5f 4b 06 00 	mov.b	6(r11),	r15	;0x0006(r11)
    aa2e:	0a df       	bis	r15,	r10	
    aa30:	b0 12 b2 5f 	call	#0x5fb2	
    aa34:	19 42 48 16 	mov	&0x1648,r9	
    aa38:	b0 12 c4 5f 	call	#0x5fc4	
    aa3c:	0a 99       	cmp	r9,	r10	
    aa3e:	08 24       	jz	$+18     	;abs 0xaa50
    aa40:	5f 4b 07 00 	mov.b	7(r11),	r15	;0x0007(r11)
    aa44:	8f 10       	swpb	r15		
    aa46:	5e 4b 06 00 	mov.b	6(r11),	r14	;0x0006(r11)
    aa4a:	0f de       	bis	r14,	r15	
    aa4c:	3f 93       	cmp	#-1,	r15	;r3 As==11
    aa4e:	20 20       	jnz	$+66     	;abs 0xaa90
    aa50:	5f 4b 02 00 	mov.b	2(r11),	r15	;0x0002(r11)
    aa54:	8f 10       	swpb	r15		
    aa56:	5d 4b 01 00 	mov.b	1(r11),	r13	;0x0001(r11)
    aa5a:	0f dd       	bis	r13,	r15	
    aa5c:	3f f0 07 00 	and	#7,	r15	;#0x0007
    aa60:	1f 93       	cmp	#1,	r15	;r3 As==01
    aa62:	16 20       	jnz	$+46     	;abs 0xaa90
    aa64:	b0 12 c2 83 	call	#0x83c2	
    aa68:	b0 12 e0 80 	call	#0x80e0	
    aa6c:	7f 40 0a 00 	mov.b	#10,	r15	;#0x000a
    aa70:	b0 12 90 80 	call	#0x8090	
    aa74:	b0 12 c2 83 	call	#0x83c2	
    aa78:	b0 12 e0 80 	call	#0x80e0	
    aa7c:	5e 42 6c 13 	mov.b	&0x136c,r14	
    aa80:	7e 50 f9 ff 	add.b	#-7,	r14	;#0xfff9
    aa84:	0f 4b       	mov	r11,	r15	
    aa86:	3f 52       	add	#8,	r15	;r2 As==11
    aa88:	b0 12 5c 81 	call	#0x815c	
    aa8c:	30 40 4e ad 	br	#0xad4e	
    aa90:	5e 42 6c 13 	mov.b	&0x136c,r14	
    aa94:	7e 50 f9 ff 	add.b	#-7,	r14	;#0xfff9
    aa98:	0f 4b       	mov	r11,	r15	
    aa9a:	3f 52       	add	#8,	r15	;r2 As==11
    aa9c:	a1 3f       	jmp	$-188    	;abs 0xa9e0
    aa9e:	b0 12 c2 83 	call	#0x83c2	
    aaa2:	c2 93 92 13 	tst.b	&0x1392	
    aaa6:	03 20       	jnz	$+8      	;abs 0xaaae
    aaa8:	6f 42       	mov.b	#4,	r15	;r2 As==10
    aaaa:	b0 12 d0 83 	call	#0x83d0	
    aaae:	c2 93 92 13 	tst.b	&0x1392	
    aab2:	03 24       	jz	$+8      	;abs 0xaaba
    aab4:	f2 b2 20 00 	bit.b	#8,	&0x0020	;r2 As==11
    aab8:	0b 20       	jnz	$+24     	;abs 0xaad0
    aaba:	d2 b3 20 00 	bit.b	#1,	&0x0020	;r3 As==01
    aabe:	08 24       	jz	$+18     	;abs 0xaad0
    aac0:	5a 42 f6 24 	mov.b	&0x24f6,r10	
    aac4:	4a 93       	tst.b	r10		
    aac6:	04 24       	jz	$+10     	;abs 0xaad0
    aac8:	f2 90 0b 00 6c 13 	cmp.b	#11,	&0x136c	;#0x000b
    aace:	0e 2c       	jc	$+30     	;abs 0xaaec
    aad0:	1f 42 2c 12 	mov	&0x122c,r15	
    aad4:	cf 43 81 00 	mov.b	#0,	129(r15);r3 As==00, 0x0081(r15)
    aad8:	cf 43 85 00 	mov.b	#0,	133(r15);r3 As==00, 0x0085(r15)
    aadc:	cf 43 84 00 	mov.b	#0,	132(r15);r3 As==00, 0x0084(r15)
    aae0:	cf 43 83 00 	mov.b	#0,	131(r15);r3 As==00, 0x0083(r15)
    aae4:	ff 40 80 ff 82 00 	mov.b	#-128,	130(r15);#0xff80, 0x0082(r15)
    aaea:	37 3c       	jmp	$+112    	;abs 0xab5a
    aaec:	59 42 16 25 	mov.b	&0x2516,r9	
    aaf0:	5a 93       	cmp.b	#1,	r10	;r3 As==01
    aaf2:	19 20       	jnz	$+52     	;abs 0xab26
    aaf4:	0f 49       	mov	r9,	r15	
    aaf6:	0f 5f       	rla	r15		
    aaf8:	0f 5f       	rla	r15		
    aafa:	3f 50 4a 24 	add	#9290,	r15	;#0x244a
    aafe:	28 4f       	mov	@r15,	r8	
    ab00:	1c 4f 02 00 	mov	2(r15),	r12	;0x0002(r15)
    ab04:	1d 42 2c 12 	mov	&0x122c,r13	
    ab08:	cd 48 85 00 	mov.b	r8,	133(r13);0x0085(r13)
    ab0c:	0e 4c       	mov	r12,	r14	
    ab0e:	0f 48       	mov	r8,	r15	
    ab10:	8f 10       	swpb	r15		
    ab12:	8e 10       	swpb	r14		
    ab14:	4f ee       	xor.b	r14,	r15	
    ab16:	0f ee       	xor	r14,	r15	
    ab18:	cd 4f 84 00 	mov.b	r15,	132(r13);0x0084(r13)
    ab1c:	cd 4c 83 00 	mov.b	r12,	131(r13);0x0083(r13)
    ab20:	8c 10       	swpb	r12		
    ab22:	cd 4c 82 00 	mov.b	r12,	130(r13);0x0082(r13)
    ab26:	19 53       	inc	r9		
    ab28:	79 f0 07 00 	and.b	#7,	r9	;#0x0007
    ab2c:	c2 49 16 25 	mov.b	r9,	&0x2516	
    ab30:	7a 53       	add.b	#-1,	r10	;r3 As==11
    ab32:	c2 4a f6 24 	mov.b	r10,	&0x24f6	
    ab36:	11 24       	jz	$+36     	;abs 0xab5a
    ab38:	1f 42 2c 12 	mov	&0x122c,r15	
    ab3c:	cf 43 81 00 	mov.b	#0,	129(r15);r3 As==00, 0x0081(r15)
    ab40:	cf 43 85 00 	mov.b	#0,	133(r15);r3 As==00, 0x0085(r15)
    ab44:	cf 43 84 00 	mov.b	#0,	132(r15);r3 As==00, 0x0084(r15)
    ab48:	cf 43 83 00 	mov.b	#0,	131(r15);r3 As==00, 0x0083(r15)
    ab4c:	ff 40 80 ff 82 00 	mov.b	#-128,	130(r15);#0xff80, 0x0082(r15)
    ab52:	c2 43 16 25 	mov.b	#0,	&0x2516	;r3 As==00
    ab56:	c2 43 f6 24 	mov.b	#0,	&0x24f6	;r3 As==00
    ab5a:	5f 42 6c 13 	mov.b	&0x136c,r15	
    ab5e:	0f 5b       	add	r11,	r15	
    ab60:	cf 93 00 00 	tst.b	0(r15)		;0x0000(r15)
    ab64:	33 34       	jge	$+104    	;abs 0xabcc
    ab66:	07 93       	tst	r7		
    ab68:	31 24       	jz	$+100    	;abs 0xabcc
    ab6a:	5f 4b 02 00 	mov.b	2(r11),	r15	;0x0002(r11)
    ab6e:	8f 10       	swpb	r15		
    ab70:	5f db 01 00 	bis.b	1(r11),	r15	;0x0001(r11)
    ab74:	7f f0 07 00 	and.b	#7,	r15	;#0x0007
    ab78:	1d 42 2c 12 	mov	&0x122c,r13	
    ab7c:	6f 93       	cmp.b	#2,	r15	;r3 As==10
    ab7e:	1f 20       	jnz	$+64     	;abs 0xabbe
    ab80:	1f 42 c6 15 	mov	&0x15c6,r15	
    ab84:	0f 93       	tst	r15		
    ab86:	22 24       	jz	$+70     	;abs 0xabcc
    ab88:	b2 90 07 00 fa 11 	cmp	#7,	&0x11fa	;#0x0007
    ab8e:	1e 20       	jnz	$+62     	;abs 0xabcc
    ab90:	df 9d 03 00 03 00 	cmp.b	3(r13),	3(r15)	;0x0003(r13), 0x0003(r15)
    ab96:	1a 20       	jnz	$+54     	;abs 0xabcc
    ab98:	b2 f0 ef ff 82 01 	and	#-17,	&0x0182	;#0xffef
    ab9e:	6e 4d       	mov.b	@r13,	r14	
    aba0:	df 43 80 00 	mov.b	#1,	128(r15);r3 As==01, 0x0080(r15)
    aba4:	0e 5d       	add	r13,	r14	
    aba6:	df 4e ff ff 7c 00 	mov.b	-1(r14),124(r15);0xffff(r14), 0x007c(r15)
    abac:	6e 4e       	mov.b	@r14,	r14	
    abae:	7e f0 7f 00 	and.b	#127,	r14	;#0x007f
    abb2:	cf 4e 7d 00 	mov.b	r14,	125(r15);0x007d(r15)
    abb6:	4f 43       	clr.b	r15		
    abb8:	b0 12 ba 82 	call	#0x82ba	
    abbc:	07 3c       	jmp	$+16     	;abs 0xabcc
    abbe:	5f 93       	cmp.b	#1,	r15	;r3 As==01
    abc0:	05 20       	jnz	$+12     	;abs 0xabcc
    abc2:	7f 40 10 00 	mov.b	#16,	r15	;#0x0010
    abc6:	b0 12 8a 63 	call	#0x638a	
    abca:	c1 3c       	jmp	$+388    	;abs 0xad4e
    abcc:	b0 12 be a8 	call	#0xa8be	
    abd0:	be 3c       	jmp	$+382    	;abs 0xad4e
    abd2:	c2 43 d7 13 	mov.b	#0,	&0x13d7	;r3 As==00
    abd6:	b0 12 c2 83 	call	#0x83c2	
    abda:	6f 42       	mov.b	#4,	r15	;r2 As==10
    abdc:	b0 12 d0 83 	call	#0x83d0	
    abe0:	b6 3c       	jmp	$+366    	;abs 0xad4e
    abe2:	7f 90 3e 00 	cmp.b	#62,	r15	;#0x003e
    abe6:	b3 20       	jnz	$+360    	;abs 0xad4e
    abe8:	b0 12 c2 83 	call	#0x83c2	
    abec:	b2 92 fa 11 	cmp	#8,	&0x11fa	;r2 As==11
    abf0:	11 20       	jnz	$+36     	;abs 0xac14
    abf2:	b0 12 e0 80 	call	#0x80e0	
    abf6:	7f 40 09 00 	mov.b	#9,	r15	;#0x0009
    abfa:	b0 12 90 80 	call	#0x8090	
    abfe:	b0 12 c2 83 	call	#0x83c2	
    ac02:	b0 12 86 84 	call	#0x8486	
    ac06:	92 43 fa 11 	mov	#1,	&0x11fa	;r3 As==01
    ac0a:	7f 40 03 00 	mov.b	#3,	r15	;#0x0003
    ac0e:	b0 12 9e 82 	call	#0x829e	
    ac12:	9d 3c       	jmp	$+316    	;abs 0xad4e
    ac14:	c2 93 20 26 	tst.b	&0x2620	
    ac18:	05 20       	jnz	$+12     	;abs 0xac24
    ac1a:	a2 42 fa 11 	mov	#4,	&0x11fa	;r2 As==10
    ac1e:	b0 12 c6 8c 	call	#0x8cc6	
    ac22:	95 3c       	jmp	$+300    	;abs 0xad4e
    ac24:	b0 12 86 84 	call	#0x8486	
    ac28:	b2 40 03 00 fa 11 	mov	#3,	&0x11fa	;#0x0003
    ac2e:	b0 12 92 84 	call	#0x8492	
    ac32:	0f 4e       	mov	r14,	r15	
    ac34:	3e 40 36 01 	mov	#310,	r14	;#0x0136
    ac38:	b0 12 82 e7 	call	#0xe782	
    ac3c:	0e 4f       	mov	r15,	r14	
    ac3e:	3e 50 0b 00 	add	#11,	r14	;#0x000b
    ac42:	82 4e 84 12 	mov	r14,	&0x1284	
    ac46:	0f 43       	clr	r15		
    ac48:	b0 12 50 8c 	call	#0x8c50	
    ac4c:	80 3c       	jmp	$+258    	;abs 0xad4e
    ac4e:	5f 42 90 12 	mov.b	&0x1290,r15	
    ac52:	7f 90 03 00 	cmp.b	#3,	r15	;#0x0003
    ac56:	0c 24       	jz	$+26     	;abs 0xac70
    ac58:	6f 92       	cmp.b	#4,	r15	;r2 As==10
    ac5a:	03 2c       	jc	$+8      	;abs 0xac62
    ac5c:	6f 93       	cmp.b	#2,	r15	;r3 As==10
    ac5e:	77 20       	jnz	$+240    	;abs 0xad4e
    ac60:	65 3c       	jmp	$+204    	;abs 0xad2c
    ac62:	7f 90 c7 ff 	cmp.b	#-57,	r15	;#0xffc7
    ac66:	6d 24       	jz	$+220    	;abs 0xad42
    ac68:	7f 90 d8 ff 	cmp.b	#-40,	r15	;#0xffd8
    ac6c:	70 20       	jnz	$+226    	;abs 0xad4e
    ac6e:	69 3c       	jmp	$+212    	;abs 0xad42
    ac70:	3e 90 90 12 	cmp	#4752,	r14	;#0x1290
    ac74:	05 20       	jnz	$+12     	;abs 0xac80
    ac76:	1d 42 22 1d 	mov	&0x1d22,r13	
    ac7a:	1e 42 de 1b 	mov	&0x1bde,r14	
    ac7e:	4f 3c       	jmp	$+160    	;abs 0xad1e
    ac80:	c2 93 ac 11 	tst.b	&0x11ac	
    ac84:	4e 24       	jz	$+158    	;abs 0xad22
    ac86:	1f 42 c8 1b 	mov	&0x1bc8,r15	
    ac8a:	0d 43       	clr	r13		
    ac8c:	23 3c       	jmp	$+72     	;abs 0xacd4
    ac8e:	0e 4f       	mov	r15,	r14	
    ac90:	8e 10       	swpb	r14		
    ac92:	4e 4e       	mov.b	r14,	r14	
    ac94:	4f 4f       	mov.b	r15,	r15	
    ac96:	8f 10       	swpb	r15		
    ac98:	0e df       	bis	r15,	r14	
    ac9a:	5f 4d 6e 13 	mov.b	4974(r13),r15	;0x136e(r13)
    ac9e:	0e ef       	xor	r15,	r14	
    aca0:	4f 4e       	mov.b	r14,	r15	
    aca2:	12 c3       	clrc			
    aca4:	4f 10       	rrc.b	r15		
    aca6:	12 c3       	clrc			
    aca8:	4f 10       	rrc.b	r15		
    acaa:	12 c3       	clrc			
    acac:	4f 10       	rrc.b	r15		
    acae:	12 c3       	clrc			
    acb0:	4f 10       	rrc.b	r15		
    acb2:	4c 4f       	mov.b	r15,	r12	
    acb4:	0c ee       	xor	r14,	r12	
    acb6:	4f 4c       	mov.b	r12,	r15	
    acb8:	8f 10       	swpb	r15		
    acba:	0f 5f       	rla	r15		
    acbc:	0f 5f       	rla	r15		
    acbe:	0f 5f       	rla	r15		
    acc0:	0f 5f       	rla	r15		
    acc2:	0c ef       	xor	r15,	r12	
    acc4:	4f 4c       	mov.b	r12,	r15	
    acc6:	0f 5f       	rla	r15		
    acc8:	0f 5f       	rla	r15		
    acca:	0f 5f       	rla	r15		
    accc:	0f 5f       	rla	r15		
    acce:	0f 5f       	rla	r15		
    acd0:	0f ec       	xor	r12,	r15	
    acd2:	1d 53       	inc	r13		
    acd4:	0d 9b       	cmp	r11,	r13	
    acd6:	db 23       	jnz	$-72     	;abs 0xac8e
    acd8:	82 4f c8 1b 	mov	r15,	&0x1bc8	
    acdc:	0e 4d       	mov	r13,	r14	
    acde:	0f 43       	clr	r15		
    ace0:	82 5e 7e 12 	add	r14,	&0x127e	
    ace4:	82 6f 80 12 	addc	r15,	&0x1280	
    ace8:	1c 42 60 12 	mov	&0x1260,r12	
    acec:	1d 42 62 12 	mov	&0x1262,r13	
    acf0:	0c 8e       	sub	r14,	r12	
    acf2:	0d 7f       	subc	r15,	r13	
    acf4:	0e 4c       	mov	r12,	r14	
    acf6:	0f 4d       	mov	r13,	r15	
    acf8:	82 4c 60 12 	mov	r12,	&0x1260	
    acfc:	82 4d 62 12 	mov	r13,	&0x1262	
    ad00:	0c 93       	tst	r12		
    ad02:	02 20       	jnz	$+6      	;abs 0xad08
    ad04:	0f 93       	tst	r15		
    ad06:	0d 24       	jz	$+28     	;abs 0xad22
    ad08:	0f 93       	tst	r15		
    ad0a:	03 20       	jnz	$+8      	;abs 0xad12
    ad0c:	3e 90 11 00 	cmp	#17,	r14	;#0x0011
    ad10:	03 28       	jnc	$+8      	;abs 0xad18
    ad12:	3e 40 10 00 	mov	#16,	r14	;#0x0010
    ad16:	0f 43       	clr	r15		
    ad18:	0d 4e       	mov	r14,	r13	
    ad1a:	3e 40 6e 13 	mov	#4974,	r14	;#0x136e
    ad1e:	0f 43       	clr	r15		
    ad20:	0d 3c       	jmp	$+28     	;abs 0xad3c
    ad22:	b0 12 6e 8d 	call	#0x8d6e	
    ad26:	b0 12 f6 8e 	call	#0x8ef6	
    ad2a:	11 3c       	jmp	$+36     	;abs 0xad4e
    ad2c:	3e 90 90 12 	cmp	#4752,	r14	;#0x1290
    ad30:	08 20       	jnz	$+18     	;abs 0xad42
    ad32:	1d 42 22 1d 	mov	&0x1d22,r13	
    ad36:	0e 43       	clr	r14		
    ad38:	1f 42 de 1b 	mov	&0x1bde,r15	
    ad3c:	b0 12 34 81 	call	#0x8134	
    ad40:	06 3c       	jmp	$+14     	;abs 0xad4e
    ad42:	b0 12 6e 8d 	call	#0x8d6e	
    ad46:	d2 43 ae 11 	mov.b	#1,	&0x11ae	;r3 As==01
    ad4a:	b0 12 b4 83 	call	#0x83b4	
    ad4e:	37 41       	pop	r7		
    ad50:	38 41       	pop	r8		
    ad52:	39 41       	pop	r9		
    ad54:	3a 41       	pop	r10		
    ad56:	3b 41       	pop	r11		
    ad58:	30 41       	ret			

0000ad5a <Msp430SpiNoDmaP__0__UsartInterrupts__rxDone>:
    ad5a:	1e 42 9e 1c 	mov	&0x1c9e,r14	
    ad5e:	0e 93       	tst	r14		
    ad60:	04 24       	jz	$+10     	;abs 0xad6a
    ad62:	1e 52 0e 25 	add	&0x250e,r14	
    ad66:	ce 4f ff ff 	mov.b	r15,	-1(r14)	;0xffff(r14)
    ad6a:	92 92 18 25 0e 25 	cmp	&0x2518,&0x250e	
    ad70:	03 2c       	jc	$+8      	;abs 0xad78
    ad72:	b0 12 fa 7f 	call	#0x7ffa	
    ad76:	30 41       	ret			
    ad78:	f2 f0 bf ff 00 00 	and.b	#-65,	&0x0000	;#0xffbf
    ad7e:	b0 12 34 a9 	call	#0xa934	
    ad82:	30 41       	ret			

0000ad84 <CC2420CsmaP__Send__send.isra.338>:
    ad84:	0b 12       	push	r11		
    ad86:	0a 12       	push	r10		
    ad88:	0b 4f       	mov	r15,	r11	
    ad8a:	b0 12 b2 5f 	call	#0x5fb2	
    ad8e:	4a 4f       	mov.b	r15,	r10	
    ad90:	6f 43       	mov.b	#2,	r15	;r3 As==10
    ad92:	b0 12 c0 80 	call	#0x80c0	
    ad96:	4f 93       	tst.b	r15		
    ad98:	05 20       	jnz	$+12     	;abs 0xada4
    ad9a:	4f 4a       	mov.b	r10,	r15	
    ad9c:	b0 12 c4 5f 	call	#0x5fc4	
    ada0:	5f 43       	mov.b	#1,	r15	;r3 As==01
    ada2:	52 3c       	jmp	$+166    	;abs 0xae48
    ada4:	6f 42       	mov.b	#4,	r15	;r2 As==10
    ada6:	b0 12 ec 9b 	call	#0x9bec	
    adaa:	82 4b 9c 18 	mov	r11,	&0x189c	
    adae:	4f 4a       	mov.b	r10,	r15	
    adb0:	b0 12 c4 5f 	call	#0x5fc4	
    adb4:	5f 4b 02 00 	mov.b	2(r11),	r15	;0x0002(r11)
    adb8:	8f 10       	swpb	r15		
    adba:	5e 4b 01 00 	mov.b	1(r11),	r14	;0x0001(r11)
    adbe:	0f de       	bis	r14,	r15	
    adc0:	3f f0 20 cc 	and	#-13280,r15	;#0xcc20
    adc4:	4e 4f       	mov.b	r15,	r14	
    adc6:	3e d0 41 00 	bis	#65,	r14	;#0x0041
    adca:	8f 10       	swpb	r15		
    adcc:	4f 4f       	mov.b	r15,	r15	
    adce:	8f 10       	swpb	r15		
    add0:	0e df       	bis	r15,	r14	
    add2:	cb 4e 01 00 	mov.b	r14,	1(r11)	;0x0001(r11)
    add6:	8e 10       	swpb	r14		
    add8:	cb 4e 02 00 	mov.b	r14,	2(r11)	;0x0002(r11)
    addc:	cb 43 80 00 	mov.b	#0,	128(r11);r3 As==00, 0x0080(r11)
    ade0:	cb 43 7c 00 	mov.b	#0,	124(r11);r3 As==00, 0x007c(r11)
    ade4:	cb 43 7d 00 	mov.b	#0,	125(r11);r3 As==00, 0x007d(r11)
    ade8:	cb 43 85 00 	mov.b	#0,	133(r11);r3 As==00, 0x0085(r11)
    adec:	cb 43 84 00 	mov.b	#0,	132(r11);r3 As==00, 0x0084(r11)
    adf0:	cb 43 83 00 	mov.b	#0,	131(r11);r3 As==00, 0x0083(r11)
    adf4:	fb 40 80 ff 82 00 	mov.b	#-128,	130(r11);#0xff80, 0x0082(r11)
    adfa:	d2 43 2d 1d 	mov.b	#1,	&0x1d2d	;r3 As==01
    adfe:	1b 42 9c 18 	mov	&0x189c,r11	
    ae02:	b0 12 b2 5f 	call	#0x5fb2	
    ae06:	1e 42 fa 11 	mov	&0x11fa,r14	
    ae0a:	3e 92       	cmp	#8,	r14	;r2 As==11
    ae0c:	02 24       	jz	$+6      	;abs 0xae12
    ae0e:	1e 93       	cmp	#1,	r14	;r3 As==01
    ae10:	03 24       	jz	$+8      	;abs 0xae18
    ae12:	b0 12 c4 5f 	call	#0x5fc4	
    ae16:	17 3c       	jmp	$+48     	;abs 0xae46
    ae18:	a2 43 fa 11 	mov	#2,	&0x11fa	;r3 As==10
    ae1c:	d2 43 20 26 	mov.b	#1,	&0x2620	;r3 As==01
    ae20:	82 4b c6 15 	mov	r11,	&0x15c6	
    ae24:	c2 43 58 12 	mov.b	#0,	&0x1258	;r3 As==00
    ae28:	b0 12 c4 5f 	call	#0x5fc4	
    ae2c:	7f 40 03 00 	mov.b	#3,	r15	;#0x0003
    ae30:	b0 12 24 a8 	call	#0xa824	
    ae34:	4f 93       	tst.b	r15		
    ae36:	05 24       	jz	$+12     	;abs 0xae42
    ae38:	7f 40 03 00 	mov.b	#3,	r15	;#0x0003
    ae3c:	b0 12 2a a7 	call	#0xa72a	
    ae40:	02 3c       	jmp	$+6      	;abs 0xae46
    ae42:	b0 12 48 92 	call	#0x9248	
    ae46:	4f 43       	clr.b	r15		
    ae48:	3a 41       	pop	r10		
    ae4a:	3b 41       	pop	r11		
    ae4c:	30 41       	ret			

0000ae4e <Msp430TimerP__1__Event__fired>:
    ae4e:	0b 12       	push	r11		
    ae50:	0a 12       	push	r10		
    ae52:	09 12       	push	r9		
    ae54:	08 12       	push	r8		
    ae56:	07 12       	push	r7		
    ae58:	7f 92       	cmp.b	#8,	r15	;r2 As==11
    ae5a:	02 28       	jnc	$+6      	;abs 0xae60
    ae5c:	30 40 ea b1 	br	#0xb1ea	
    ae60:	4f 4f       	mov.b	r15,	r15	
    ae62:	0f 5f       	rla	r15		
    ae64:	10 4f 3e f7 	br	-2242(r15)	;0xf73e(r15)
    ae68:	1f 42 82 01 	mov	&0x0182,r15	
    ae6c:	8f 10       	swpb	r15		
    ae6e:	5f f3       	and.b	#1,	r15	;r3 As==01
    ae70:	04 24       	jz	$+10     	;abs 0xae7a
    ae72:	1f 42 92 01 	mov	&0x0192,r15	
    ae76:	30 40 ea b1 	br	#0xb1ea	
    ae7a:	b2 f0 ef ff 82 01 	and	#-17,	&0x0182	;#0xffef
    ae80:	82 93 ea 15 	tst	&0x15ea	
    ae84:	49 20       	jnz	$+148    	;abs 0xaf18
    ae86:	82 93 ec 15 	tst	&0x15ec	
    ae8a:	46 20       	jnz	$+142    	;abs 0xaf18
    ae8c:	1f 42 fa 11 	mov	&0x11fa,r15	
    ae90:	3f 50 fd ff 	add	#-3,	r15	;#0xfffd
    ae94:	3f 90 06 00 	cmp	#6,	r15	;#0x0006
    ae98:	2f 2c       	jc	$+96     	;abs 0xaef8
    ae9a:	0f 5f       	rla	r15		
    ae9c:	10 4f 4e f7 	br	-2226(r15)	;0xf74e(r15)
    aea0:	f2 b0 10 00 20 00 	bit.b	#16,	&0x0020	;#0x0010
    aea6:	08 24       	jz	$+18     	;abs 0xaeb8
    aea8:	a2 42 fa 11 	mov	#4,	&0x11fa	;r2 As==10
    aeac:	3e 40 07 00 	mov	#7,	r14	;#0x0007
    aeb0:	0f 43       	clr	r15		
    aeb2:	b0 12 50 8c 	call	#0x8c50	
    aeb6:	20 3c       	jmp	$+66     	;abs 0xaef8
    aeb8:	b0 12 94 8c 	call	#0x8c94	
    aebc:	1d 3c       	jmp	$+60     	;abs 0xaef8
    aebe:	7f 40 03 00 	mov.b	#3,	r15	;#0x0003
    aec2:	b0 12 24 a8 	call	#0xa824	
    aec6:	4f 93       	tst.b	r15		
    aec8:	05 24       	jz	$+12     	;abs 0xaed4
    aeca:	7f 40 03 00 	mov.b	#3,	r15	;#0x0003
    aece:	b0 12 2a a7 	call	#0xa72a	
    aed2:	12 3c       	jmp	$+38     	;abs 0xaef8
    aed4:	b0 12 c6 8c 	call	#0x8cc6	
    aed8:	0f 3c       	jmp	$+32     	;abs 0xaef8
    aeda:	4f 43       	clr.b	r15		
    aedc:	0b 3c       	jmp	$+24     	;abs 0xaef4
    aede:	7f 40 09 00 	mov.b	#9,	r15	;#0x0009
    aee2:	b0 12 90 80 	call	#0x8090	
    aee6:	5f 43       	mov.b	#1,	r15	;r3 As==01
    aee8:	b0 12 96 4a 	call	#0x4a96	
    aeec:	b0 12 86 84 	call	#0x8486	
    aef0:	7f 40 07 00 	mov.b	#7,	r15	;#0x0007
    aef4:	b0 12 ba 82 	call	#0x82ba	
    aef8:	92 93 04 12 	cmp	#1,	&0x1204	;r3 As==01
    aefc:	02 24       	jz	$+6      	;abs 0xaf02
    aefe:	30 40 ea b1 	br	#0xb1ea	
    af02:	a2 43 04 12 	mov	#2,	&0x1204	;r3 As==10
    af06:	b0 12 00 9c 	call	#0x9c00	
    af0a:	b0 12 10 9c 	call	#0x9c10	
    af0e:	4f 43       	clr.b	r15		
    af10:	b0 12 2a a7 	call	#0xa72a	
    af14:	30 40 ea b1 	br	#0xb1ea	
    af18:	b0 12 6c 8b 	call	#0x8b6c	
    af1c:	30 40 ea b1 	br	#0xb1ea	
    af20:	1f 42 84 01 	mov	&0x0184,r15	
    af24:	8f 10       	swpb	r15		
    af26:	5f f3       	and.b	#1,	r15	;r3 As==01
    af28:	02 20       	jnz	$+6      	;abs 0xaf2e
    af2a:	30 40 ea b1 	br	#0xb1ea	
    af2e:	18 42 94 01 	mov	&0x0194,r8	
    af32:	b2 f0 fe ff 84 01 	and	#-2,	&0x0184	;#0xfffe
    af38:	b2 f0 fd ff 84 01 	and	#-3,	&0x0184	;#0xfffd
    af3e:	b0 12 22 8b 	call	#0x8b22	
    af42:	0c 4e       	mov	r14,	r12	
    af44:	0c 88       	sub	r8,	r12	
    af46:	0d 43       	clr	r13		
    af48:	0a 4e       	mov	r14,	r10	
    af4a:	0b 4f       	mov	r15,	r11	
    af4c:	0a 8c       	sub	r12,	r10	
    af4e:	0b 7d       	subc	r13,	r11	
    af50:	1f 42 fa 11 	mov	&0x11fa,r15	
    af54:	3f 90 05 00 	cmp	#5,	r15	;#0x0005
    af58:	04 24       	jz	$+10     	;abs 0xaf62
    af5a:	3f 90 06 00 	cmp	#6,	r15	;#0x0006
    af5e:	8f 20       	jnz	$+288    	;abs 0xb07e
    af60:	6f 3c       	jmp	$+224    	;abs 0xb040
    af62:	b2 40 06 00 fa 11 	mov	#6,	&0x11fa	;#0x0006
    af68:	d2 43 d6 13 	mov.b	#1,	&0x13d6	;r3 As==01
    af6c:	c2 43 f8 11 	mov.b	#0,	&0x11f8	;r3 As==00
    af70:	6f 43       	mov.b	#2,	r15	;r3 As==10
    af72:	b0 12 96 4a 	call	#0x4a96	
    af76:	1f 42 c6 15 	mov	&0x15c6,r15	
    af7a:	cf 4a 85 00 	mov.b	r10,	133(r15);0x0085(r15)
    af7e:	0e 4a       	mov	r10,	r14	
    af80:	0d 4b       	mov	r11,	r13	
    af82:	8e 10       	swpb	r14		
    af84:	8d 10       	swpb	r13		
    af86:	4e ed       	xor.b	r13,	r14	
    af88:	0e ed       	xor	r13,	r14	
    af8a:	cf 4e 84 00 	mov.b	r14,	132(r15);0x0084(r15)
    af8e:	0e 4b       	mov	r11,	r14	
    af90:	cf 4b 83 00 	mov.b	r11,	131(r15);0x0083(r15)
    af94:	8e 10       	swpb	r14		
    af96:	cf 4e 82 00 	mov.b	r14,	130(r15);0x0082(r15)
    af9a:	cf 93 81 00 	tst.b	129(r15)	;0x0081(r15)
    af9e:	39 24       	jz	$+116    	;abs 0xb012
    afa0:	67 4f       	mov.b	@r15,	r7	
    afa2:	77 50 fb ff 	add.b	#-5,	r7	;#0xfffb
    afa6:	49 47       	mov.b	r7,	r9	
    afa8:	09 5f       	add	r15,	r9	
    afaa:	0f 49       	mov	r9,	r15	
    afac:	b0 12 96 47 	call	#0x4796	
    afb0:	0c 4e       	mov	r14,	r12	
    afb2:	0d 4f       	mov	r15,	r13	
    afb4:	0c 8a       	sub	r10,	r12	
    afb6:	0d 7b       	subc	r11,	r13	
    afb8:	c9 4c 03 00 	mov.b	r12,	3(r9)	;0x0003(r9)
    afbc:	0f 4c       	mov	r12,	r15	
    afbe:	0c 4d       	mov	r13,	r12	
    afc0:	8f 10       	swpb	r15		
    afc2:	8c 10       	swpb	r12		
    afc4:	4f ec       	xor.b	r12,	r15	
    afc6:	0f ec       	xor	r12,	r15	
    afc8:	c9 4f 02 00 	mov.b	r15,	2(r9)	;0x0002(r9)
    afcc:	0f 4d       	mov	r13,	r15	
    afce:	c9 4d 01 00 	mov.b	r13,	1(r9)	;0x0001(r9)
    afd2:	8f 10       	swpb	r15		
    afd4:	c9 4f 00 00 	mov.b	r15,	0(r9)	;0x0000(r9)
    afd8:	b0 12 e0 80 	call	#0x80e0	
    afdc:	6c 42       	mov.b	#4,	r12	;r2 As==10
    afde:	0d 49       	mov	r9,	r13	
    afe0:	4e 47       	mov.b	r7,	r14	
    afe2:	0f 43       	clr	r15		
    afe4:	b0 12 98 90 	call	#0x9098	
    afe8:	b0 12 c2 83 	call	#0x83c2	
    afec:	0f 49       	mov	r9,	r15	
    afee:	b0 12 96 47 	call	#0x4796	
    aff2:	0e 5a       	add	r10,	r14	
    aff4:	0f 6b       	addc	r11,	r15	
    aff6:	c9 4e 03 00 	mov.b	r14,	3(r9)	;0x0003(r9)
    affa:	0d 4f       	mov	r15,	r13	
    affc:	8e 10       	swpb	r14		
    affe:	8d 10       	swpb	r13		
    b000:	4e ed       	xor.b	r13,	r14	
    b002:	0e ed       	xor	r13,	r14	
    b004:	c9 4e 02 00 	mov.b	r14,	2(r9)	;0x0002(r9)
    b008:	c9 4f 01 00 	mov.b	r15,	1(r9)	;0x0001(r9)
    b00c:	8f 10       	swpb	r15		
    b00e:	c9 4f 00 00 	mov.b	r15,	0(r9)	;0x0000(r9)
    b012:	1e 42 c6 15 	mov	&0x15c6,r14	
    b016:	5f 4e 02 00 	mov.b	2(r14),	r15	;0x0002(r14)
    b01a:	8f 10       	swpb	r15		
    b01c:	5e 4e 01 00 	mov.b	1(r14),	r14	;0x0001(r14)
    b020:	0f de       	bis	r14,	r15	
    b022:	3f f0 20 00 	and	#32,	r15	;#0x0020
    b026:	02 24       	jz	$+6      	;abs 0xb02c
    b028:	d2 43 32 13 	mov.b	#1,	&0x1332	;r3 As==01
    b02c:	b0 12 86 84 	call	#0x8486	
    b030:	b2 f0 ef ff 82 01 	and	#-17,	&0x0182	;#0xffef
    b036:	e2 b3 1c 00 	bit.b	#2,	&0x001c	;r3 As==10
    b03a:	02 24       	jz	$+6      	;abs 0xb040
    b03c:	30 40 ea b1 	br	#0xb1ea	
    b040:	c2 43 d6 13 	mov.b	#0,	&0x13d6	;r3 As==00
    b044:	5f 43       	mov.b	#1,	r15	;r3 As==01
    b046:	b0 12 96 4a 	call	#0x4a96	
    b04a:	1e 42 c6 15 	mov	&0x15c6,r14	
    b04e:	5f 4e 02 00 	mov.b	2(r14),	r15	;0x0002(r14)
    b052:	8f 10       	swpb	r15		
    b054:	5e 4e 01 00 	mov.b	1(r14),	r14	;0x0001(r14)
    b058:	0f de       	bis	r14,	r15	
    b05a:	3f f0 20 00 	and	#32,	r15	;#0x0020
    b05e:	09 24       	jz	$+20     	;abs 0xb072
    b060:	b2 40 07 00 fa 11 	mov	#7,	&0x11fa	;#0x0007
    b066:	3e 40 00 01 	mov	#256,	r14	;#0x0100
    b06a:	0f 43       	clr	r15		
    b06c:	b0 12 50 8c 	call	#0x8c50	
    b070:	03 3c       	jmp	$+8      	;abs 0xb078
    b072:	4f 43       	clr.b	r15		
    b074:	b0 12 ba 82 	call	#0x82ba	
    b078:	e2 b3 1c 00 	bit.b	#2,	&0x001c	;r3 As==10
    b07c:	b6 24       	jz	$+366    	;abs 0xb1ea
    b07e:	c2 93 f8 11 	tst.b	&0x11f8	
    b082:	27 20       	jnz	$+80     	;abs 0xb0d2
    b084:	c2 93 d6 13 	tst.b	&0x13d6	
    b088:	24 20       	jnz	$+74     	;abs 0xb0d2
    b08a:	d2 43 d6 13 	mov.b	#1,	&0x13d6	;r3 As==01
    b08e:	6f 43       	mov.b	#2,	r15	;r3 As==10
    b090:	b0 12 96 4a 	call	#0x4a96	
    b094:	5d 42 1c 00 	mov.b	&0x001c,r13	
    b098:	5e 42 f6 24 	mov.b	&0x24f6,r14	
    b09c:	7e 92       	cmp.b	#8,	r14	;r2 As==11
    b09e:	0e 2c       	jc	$+30     	;abs 0xb0bc
    b0a0:	4f 4e       	mov.b	r14,	r15	
    b0a2:	5f 52 16 25 	add.b	&0x2516,r15	
    b0a6:	3f f0 07 00 	and	#7,	r15	;#0x0007
    b0aa:	0f 5f       	rla	r15		
    b0ac:	0f 5f       	rla	r15		
    b0ae:	8f 4a 4a 24 	mov	r10,	9290(r15);0x244a(r15)
    b0b2:	8f 4b 4c 24 	mov	r11,	9292(r15);0x244c(r15)
    b0b6:	5e 53       	inc.b	r14		
    b0b8:	c2 4e f6 24 	mov.b	r14,	&0x24f6	
    b0bc:	d2 43 f8 11 	mov.b	#1,	&0x11f8	;r3 As==01
    b0c0:	82 48 4e 16 	mov	r8,	&0x164e	
    b0c4:	e2 b3 1c 00 	bit.b	#2,	&0x001c	;r3 As==10
    b0c8:	90 20       	jnz	$+290    	;abs 0xb1ea
    b0ca:	4f 4d       	mov.b	r13,	r15	
    b0cc:	6f f3       	and.b	#2,	r15	;r3 As==10
    b0ce:	5a 43       	mov.b	#1,	r10	;r3 As==01
    b0d0:	01 20       	jnz	$+4      	;abs 0xb0d4
    b0d2:	4a 43       	clr.b	r10		
    b0d4:	d2 93 d6 13 	cmp.b	#1,	&0x13d6	;r3 As==01
    b0d8:	88 20       	jnz	$+274    	;abs 0xb1ea
    b0da:	c2 43 d6 13 	mov.b	#0,	&0x13d6	;r3 As==00
    b0de:	5f 43       	mov.b	#1,	r15	;r3 As==01
    b0e0:	b0 12 96 4a 	call	#0x4a96	
    b0e4:	c2 43 f8 11 	mov.b	#0,	&0x11f8	;r3 As==00
    b0e8:	4a 93       	tst.b	r10		
    b0ea:	7f 20       	jnz	$+256    	;abs 0xb1ea
    b0ec:	18 82 4e 16 	sub	&0x164e,r8	
    b0f0:	38 90 0a 00 	cmp	#10,	r8	;#0x000a
    b0f4:	7a 2c       	jc	$+246    	;abs 0xb1ea
    b0f6:	5f 42 f6 24 	mov.b	&0x24f6,r15	
    b0fa:	4f 93       	tst.b	r15		
    b0fc:	03 24       	jz	$+8      	;abs 0xb104
    b0fe:	7f 53       	add.b	#-1,	r15	;r3 As==11
    b100:	c2 4f f6 24 	mov.b	r15,	&0x24f6	
    b104:	1f 42 c6 15 	mov	&0x15c6,r15	
    b108:	0f 93       	tst	r15		
    b10a:	6f 24       	jz	$+224    	;abs 0xb1ea
    b10c:	cf 43 81 00 	mov.b	#0,	129(r15);r3 As==00, 0x0081(r15)
    b110:	cf 43 85 00 	mov.b	#0,	133(r15);r3 As==00, 0x0085(r15)
    b114:	cf 43 84 00 	mov.b	#0,	132(r15);r3 As==00, 0x0084(r15)
    b118:	cf 43 83 00 	mov.b	#0,	131(r15);r3 As==00, 0x0083(r15)
    b11c:	ff 40 80 ff 82 00 	mov.b	#-128,	130(r15);#0xff80, 0x0082(r15)
    b122:	63 3c       	jmp	$+200    	;abs 0xb1ea
    b124:	1f 42 86 01 	mov	&0x0186,r15	
    b128:	8f 10       	swpb	r15		
    b12a:	5f f3       	and.b	#1,	r15	;r3 As==01
    b12c:	03 24       	jz	$+8      	;abs 0xb134
    b12e:	1f 42 96 01 	mov	&0x0196,r15	
    b132:	5b 3c       	jmp	$+184    	;abs 0xb1ea
    b134:	b2 f0 ef ff 86 01 	and	#-17,	&0x0186	;#0xffef
    b13a:	82 93 a6 13 	tst	&0x13a6	
    b13e:	08 20       	jnz	$+18     	;abs 0xb150
    b140:	82 93 a8 13 	tst	&0x13a8	
    b144:	05 20       	jnz	$+12     	;abs 0xb150
    b146:	7f 40 0a 00 	mov.b	#10,	r15	;#0x000a
    b14a:	b0 12 8a 63 	call	#0x638a	
    b14e:	4d 3c       	jmp	$+156    	;abs 0xb1ea
    b150:	b0 12 de 77 	call	#0x77de	
    b154:	4a 3c       	jmp	$+150    	;abs 0xb1ea
    b156:	1f 42 88 01 	mov	&0x0188,r15	
    b15a:	8f 10       	swpb	r15		
    b15c:	5f f3       	and.b	#1,	r15	;r3 As==01
    b15e:	03 24       	jz	$+8      	;abs 0xb166
    b160:	1f 42 98 01 	mov	&0x0198,r15	
    b164:	42 3c       	jmp	$+134    	;abs 0xb1ea
    b166:	b2 f0 ef ff 88 01 	and	#-17,	&0x0188	;#0xffef
    b16c:	82 93 d8 13 	tst	&0x13d8	
    b170:	06 20       	jnz	$+14     	;abs 0xb17e
    b172:	82 93 da 13 	tst	&0x13da	
    b176:	03 20       	jnz	$+8      	;abs 0xb17e
    b178:	b0 12 12 7d 	call	#0x7d12	
    b17c:	36 3c       	jmp	$+110    	;abs 0xb1ea
    b17e:	b0 12 d4 78 	call	#0x78d4	
    b182:	33 3c       	jmp	$+104    	;abs 0xb1ea
    b184:	1f 42 8a 01 	mov	&0x018a,r15	
    b188:	8f 10       	swpb	r15		
    b18a:	5f f3       	and.b	#1,	r15	;r3 As==01
    b18c:	2e 24       	jz	$+94     	;abs 0xb1ea
    b18e:	1f 42 9a 01 	mov	&0x019a,r15	
    b192:	2b 3c       	jmp	$+88     	;abs 0xb1ea
    b194:	1f 42 8c 01 	mov	&0x018c,r15	
    b198:	8f 10       	swpb	r15		
    b19a:	5f f3       	and.b	#1,	r15	;r3 As==01
    b19c:	26 24       	jz	$+78     	;abs 0xb1ea
    b19e:	1f 42 9c 01 	mov	&0x019c,r15	
    b1a2:	23 3c       	jmp	$+72     	;abs 0xb1ea
    b1a4:	1f 42 8e 01 	mov	&0x018e,r15	
    b1a8:	8f 10       	swpb	r15		
    b1aa:	5f f3       	and.b	#1,	r15	;r3 As==01
    b1ac:	1e 24       	jz	$+62     	;abs 0xb1ea
    b1ae:	1f 42 9e 01 	mov	&0x019e,r15	
    b1b2:	1b 3c       	jmp	$+56     	;abs 0xb1ea
    b1b4:	1e 42 e4 15 	mov	&0x15e4,r14	
    b1b8:	1f 42 e6 15 	mov	&0x15e6,r15	
    b1bc:	1e 53       	inc	r14		
    b1be:	0f 63       	adc	r15		
    b1c0:	82 4e e4 15 	mov	r14,	&0x15e4	
    b1c4:	82 4f e6 15 	mov	r15,	&0x15e6	
    b1c8:	3e f3       	and	#-1,	r14	;r3 As==11
    b1ca:	3f f0 1f 00 	and	#31,	r15	;#0x001f
    b1ce:	0e 93       	tst	r14		
    b1d0:	0a 20       	jnz	$+22     	;abs 0xb1e6
    b1d2:	0f 93       	tst	r15		
    b1d4:	08 20       	jnz	$+18     	;abs 0xb1e6
    b1d6:	b2 53 ee 25 	add	#-1,	&0x25ee	;r3 As==11
    b1da:	b2 63 f0 25 	addc	#-1,	&0x25f0	;r3 As==11
    b1de:	82 63 f2 25 	adc	&0x25f2	
    b1e2:	82 63 f4 25 	adc	&0x25f4	
    b1e6:	92 53 da 1b 	inc	&0x1bda	
    b1ea:	37 41       	pop	r7		
    b1ec:	38 41       	pop	r8		
    b1ee:	39 41       	pop	r9		
    b1f0:	3a 41       	pop	r10		
    b1f2:	3b 41       	pop	r11		
    b1f4:	30 41       	ret			

0000b1f6 <SchedulerBasicP__TaskBasic__runTask>:
    b1f6:	0b 12       	push	r11		
    b1f8:	0a 12       	push	r10		
    b1fa:	09 12       	push	r9		
    b1fc:	08 12       	push	r8		
    b1fe:	07 12       	push	r7		
    b200:	06 12       	push	r6		
    b202:	05 12       	push	r5		
    b204:	04 12       	push	r4		
    b206:	31 50 4e fe 	add	#-434,	r1	;#0xfe4e
    b20a:	7f 90 25 00 	cmp.b	#37,	r15	;#0x0025
    b20e:	02 28       	jnc	$+6      	;abs 0xb214
    b210:	30 40 24 c7 	br	#0xc724	
    b214:	4f 4f       	mov.b	r15,	r15	
    b216:	0f 5f       	rla	r15		
    b218:	10 4f 62 f7 	br	-2206(r15)	;0xf762(r15)
    b21c:	e2 42 ce 25 	mov.b	#4,	&0x25ce	;r2 As==10
    b220:	3c 40 06 00 	mov	#6,	r12	;#0x0006
    b224:	3d 40 cc 25 	mov	#9676,	r13	;#0x25cc
    b228:	3e 40 ba 25 	mov	#9658,	r14	;#0x25ba
    b22c:	5f 43       	mov.b	#1,	r15	;r3 As==01
    b22e:	b0 12 6a 70 	call	#0x706a	
    b232:	3c 40 06 00 	mov	#6,	r12	;#0x0006
    b236:	3d 40 e8 25 	mov	#9704,	r13	;#0x25e8
    b23a:	3e 40 9a 25 	mov	#9626,	r14	;#0x259a
    b23e:	4f 43       	clr.b	r15		
    b240:	b0 12 6a 70 	call	#0x706a	
    b244:	f2 40 03 00 ee 1c 	mov.b	#3,	&0x1cee	;#0x0003
    b24a:	82 43 e8 1c 	mov	#0,	&0x1ce8	;r3 As==00
    b24e:	b2 40 e8 25 ea 1c 	mov	#9704,	&0x1cea	;#0x25e8
    b254:	b2 40 06 00 ec 1c 	mov	#6,	&0x1cec	;#0x0006
    b25a:	c2 93 6c 12 	tst.b	&0x126c	
    b25e:	02 24       	jz	$+6      	;abs 0xb264
    b260:	30 40 24 c7 	br	#0xc724	
    b264:	b0 12 44 9f 	call	#0x9f44	
    b268:	30 40 24 c7 	br	#0xc724	
    b26c:	1f 42 a4 11 	mov	&0x11a4,r15	
    b270:	c2 4f cd 25 	mov.b	r15,	&0x25cd	
    b274:	8f 10       	swpb	r15		
    b276:	c2 4f cc 25 	mov.b	r15,	&0x25cc	
    b27a:	7f 40 07 00 	mov.b	#7,	r15	;#0x0007
    b27e:	b0 12 72 91 	call	#0x9172	
    b282:	3d 40 00 04 	mov	#1024,	r13	;#0x0400
    b286:	0e 43       	clr	r14		
    b288:	7f 40 10 00 	mov.b	#16,	r15	;#0x0010
    b28c:	b0 12 98 77 	call	#0x7798	
    b290:	3d 40 64 00 	mov	#100,	r13	;#0x0064
    b294:	0e 43       	clr	r14		
    b296:	7f 40 0f 00 	mov.b	#15,	r15	;#0x000f
    b29a:	b0 12 f4 76 	call	#0x76f4	
    b29e:	30 40 24 c7 	br	#0xc724	
    b2a2:	1f 42 c2 15 	mov	&0x15c2,r15	
    b2a6:	0e 43       	clr	r14		
    b2a8:	0d 43       	clr	r13		
    b2aa:	1f 5d 16 13 	add	4886(r13),r15	;0x1316(r13)
    b2ae:	1e 53       	inc	r14		
    b2b0:	2d 53       	incd	r13		
    b2b2:	3e 90 0a 00 	cmp	#10,	r14	;#0x000a
    b2b6:	f9 3b       	jl	$-12     	;abs 0xb2aa
    b2b8:	82 4e 38 1d 	mov	r14,	&0x1d38	
    b2bc:	3e 40 0a 00 	mov	#10,	r14	;#0x000a
    b2c0:	b0 12 8a e7 	call	#0xe78a	
    b2c4:	82 4f be 13 	mov	r15,	&0x13be	
    b2c8:	82 43 c2 15 	mov	#0,	&0x15c2	;r3 As==00
    b2cc:	5e 42 e8 25 	mov.b	&0x25e8,r14	
    b2d0:	8e 10       	swpb	r14		
    b2d2:	5d 42 e9 25 	mov.b	&0x25e9,r13	
    b2d6:	0e dd       	bis	r13,	r14	
    b2d8:	0f 9e       	cmp	r14,	r15	
    b2da:	02 28       	jnc	$+6      	;abs 0xb2e0
    b2dc:	30 40 24 c7 	br	#0xc724	
    b2e0:	4f 43       	clr.b	r15		
    b2e2:	b0 12 72 91 	call	#0x9172	
    b2e6:	d2 53 cf 25 	inc.b	&0x25cf	
    b2ea:	f2 f0 fd ff 80 1c 	and.b	#-3,	&0x1c80	;#0xfffd
    b2f0:	3c 40 06 00 	mov	#6,	r12	;#0x0006
    b2f4:	3d 40 cc 25 	mov	#9676,	r13	;#0x25cc
    b2f8:	3e 40 94 13 	mov	#5012,	r14	;#0x1394
    b2fc:	6f 43       	mov.b	#2,	r15	;r3 As==10
    b2fe:	b0 12 6a 70 	call	#0x706a	
    b302:	30 40 24 c7 	br	#0xc724	
    b306:	f1 40 85 ff 26 00 	mov.b	#-123,	38(r1)	;#0xff85, 0x0026(r1)
    b30c:	c1 43 27 00 	mov.b	#0,	39(r1)	;r3 As==00, 0x0027(r1)
    b310:	c1 43 29 00 	mov.b	#0,	41(r1)	;r3 As==00, 0x0029(r1)
    b314:	c1 43 28 00 	mov.b	#0,	40(r1)	;r3 As==00, 0x0028(r1)
    b318:	c1 43 2d 00 	mov.b	#0,	45(r1)	;r3 As==00, 0x002d(r1)
    b31c:	c1 43 2c 00 	mov.b	#0,	44(r1)	;r3 As==00, 0x002c(r1)
    b320:	c1 43 2b 00 	mov.b	#0,	43(r1)	;r3 As==00, 0x002b(r1)
    b324:	c1 43 2a 00 	mov.b	#0,	42(r1)	;r3 As==00, 0x002a(r1)
    b328:	0b 41       	mov	r1,	r11	
    b32a:	3b 50 f8 00 	add	#248,	r11	;#0x00f8
    b32e:	3d 42       	mov	#8,	r13	;r2 As==11
    b330:	0e 41       	mov	r1,	r14	
    b332:	3e 50 26 00 	add	#38,	r14	;#0x0026
    b336:	0f 4b       	mov	r11,	r15	
    b338:	b0 12 1a e6 	call	#0xe61a	
    b33c:	0f 41       	mov	r1,	r15	
    b33e:	3f 50 00 01 	add	#256,	r15	;#0x0100
    b342:	b0 12 3e 63 	call	#0x633e	
    b346:	4e 4f       	mov.b	r15,	r14	
    b348:	3e 52       	add	#8,	r14	;r2 As==11
    b34a:	81 4b 18 00 	mov	r11,	24(r1)	;0x0018(r1)
    b34e:	81 4e 1a 00 	mov	r14,	26(r1)	;0x001a(r1)
    b352:	81 43 1c 00 	mov	#0,	28(r1)	;r3 As==00, 0x001c(r1)
    b356:	f1 40 3a 00 d6 00 	mov.b	#58,	214(r1)	;#0x003a, 0x00d6(r1)
    b35c:	0f 4e       	mov	r14,	r15	
    b35e:	8f 10       	swpb	r15		
    b360:	4f 4f       	mov.b	r15,	r15	
    b362:	4e 4e       	mov.b	r14,	r14	
    b364:	8e 10       	swpb	r14		
    b366:	0e df       	bis	r15,	r14	
    b368:	81 4e d4 00 	mov	r14,	212(r1)	;0x00d4(r1)
    b36c:	0e 41       	mov	r1,	r14	
    b36e:	3e 50 18 00 	add	#24,	r14	;#0x0018
    b372:	81 4e ce 00 	mov	r14,	206(r1)	;0x00ce(r1)
    b376:	3d 40 10 00 	mov	#16,	r13	;#0x0010
    b37a:	3e 40 56 1d 	mov	#7510,	r14	;#0x1d56
    b37e:	0f 41       	mov	r1,	r15	
    b380:	3f 50 e8 00 	add	#232,	r15	;#0x00e8
    b384:	b0 12 80 e8 	call	#0xe880	
    b388:	0f 41       	mov	r1,	r15	
    b38a:	3f 50 d8 00 	add	#216,	r15	;#0x00d8
    b38e:	b0 12 b0 61 	call	#0x61b0	
    b392:	0f 41       	mov	r1,	r15	
    b394:	3f 50 cc 00 	add	#204,	r15	;#0x00cc
    b398:	b0 12 38 74 	call	#0x7438	
    b39c:	30 40 24 c7 	br	#0xc724	
    b3a0:	b0 12 b2 5f 	call	#0x5fb2	
    b3a4:	4b 4f       	mov.b	r15,	r11	
    b3a6:	c2 93 0a 26 	tst.b	&0x260a	
    b3aa:	04 24       	jz	$+10     	;abs 0xb3b4
    b3ac:	b0 12 c4 5f 	call	#0x5fc4	
    b3b0:	30 40 24 c7 	br	#0xc724	
    b3b4:	d2 43 0a 26 	mov.b	#1,	&0x260a	;r3 As==01
    b3b8:	a2 92 04 12 	cmp	#4,	&0x1204	;r2 As==10
    b3bc:	04 20       	jnz	$+10     	;abs 0xb3c6
    b3be:	5f 43       	mov.b	#1,	r15	;r3 As==01
    b3c0:	b0 12 2a a7 	call	#0xa72a	
    b3c4:	04 3c       	jmp	$+10     	;abs 0xb3ce
    b3c6:	7f 40 06 00 	mov.b	#6,	r15	;#0x0006
    b3ca:	b0 12 8a 63 	call	#0x638a	
    b3ce:	4f 4b       	mov.b	r11,	r15	
    b3d0:	b0 12 c4 5f 	call	#0x5fc4	
    b3d4:	30 40 24 c7 	br	#0xc724	
    b3d8:	b0 12 b2 5f 	call	#0x5fb2	
    b3dc:	c2 43 0a 26 	mov.b	#0,	&0x260a	;r3 As==00
    b3e0:	b0 12 c4 5f 	call	#0x5fc4	
    b3e4:	30 40 24 c7 	br	#0xc724	
    b3e8:	b0 12 b2 5f 	call	#0x5fb2	
    b3ec:	5b 42 99 11 	mov.b	&0x1199,r11	
    b3f0:	b0 12 c4 5f 	call	#0x5fc4	
    b3f4:	7b 90 05 00 	cmp.b	#5,	r11	;#0x0005
    b3f8:	02 28       	jnc	$+6      	;abs 0xb3fe
    b3fa:	30 40 24 c7 	br	#0xc724	
    b3fe:	4f 4b       	mov.b	r11,	r15	
    b400:	0f 5f       	rla	r15		
    b402:	10 4f ac f7 	br	-2132(r15)	;0xf7ac(r15)
    b406:	b0 12 e0 80 	call	#0x80e0	
    b40a:	b0 12 b2 5f 	call	#0x5fb2	
    b40e:	4b 4f       	mov.b	r15,	r11	
    b410:	a2 93 04 12 	cmp	#2,	&0x1204	;r3 As==10
    b414:	04 24       	jz	$+10     	;abs 0xb41e
    b416:	b0 12 c4 5f 	call	#0x5fc4	
    b41a:	30 40 24 c7 	br	#0xc724	
    b41e:	b2 40 03 00 04 12 	mov	#3,	&0x1204	;#0x0003
    b424:	3e 40 18 00 	mov	#24,	r14	;#0x0018
    b428:	7f 40 1d 00 	mov.b	#29,	r15	;#0x001d
    b42c:	b0 12 54 90 	call	#0x9054	
    b430:	f2 f0 ef ff 25 00 	and.b	#-17,	&0x0025	;#0xffef
    b436:	f2 f0 ef ff 23 00 	and.b	#-17,	&0x0023	;#0xffef
    b43c:	f2 f0 ef ff 24 00 	and.b	#-17,	&0x0024	;#0xffef
    b442:	f2 d0 10 00 25 00 	bis.b	#16,	&0x0025	;#0x0010
    b448:	5f 43       	mov.b	#1,	r15	;r3 As==01
    b44a:	b0 12 90 80 	call	#0x8090	
    b44e:	3e 40 7f 02 	mov	#639,	r14	;#0x027f
    b452:	7f 40 1c 00 	mov.b	#28,	r15	;#0x001c
    b456:	b0 12 54 90 	call	#0x9054	
    b45a:	b0 12 ca 91 	call	#0x91ca	
    b45e:	b0 12 f6 91 	call	#0x91f6	
    b462:	3e 40 56 2a 	mov	#10838,	r14	;#0x2a56
    b466:	7f 40 17 00 	mov.b	#23,	r15	;#0x0017
    b46a:	b0 12 54 90 	call	#0x9054	
    b46e:	3e 40 ff 80 	mov	#-32513,r14	;#0x80ff
    b472:	7f 40 15 00 	mov.b	#21,	r15	;#0x0015
    b476:	b0 12 54 90 	call	#0x9054	
    b47a:	4f 4b       	mov.b	r11,	r15	
    b47c:	b0 12 c4 5f 	call	#0x5fc4	
    b480:	30 40 24 c7 	br	#0xc724	
    b484:	b0 12 e0 80 	call	#0x80e0	
    b488:	7f 40 06 00 	mov.b	#6,	r15	;#0x0006
    b48c:	b0 12 90 80 	call	#0x8090	
    b490:	b0 12 ca 91 	call	#0x91ca	
    b494:	b0 12 f6 91 	call	#0x91f6	
    b498:	b0 12 10 91 	call	#0x9110	
    b49c:	b0 12 c2 83 	call	#0x83c2	
    b4a0:	b0 12 e0 80 	call	#0x80e0	
    b4a4:	7f 40 03 00 	mov.b	#3,	r15	;#0x0003
    b4a8:	b0 12 90 80 	call	#0x8090	
    b4ac:	b0 12 c2 83 	call	#0x83c2	
    b4b0:	5f 43       	mov.b	#1,	r15	;r3 As==01
    b4b2:	b0 12 d0 83 	call	#0x83d0	
    b4b6:	7f 40 06 00 	mov.b	#6,	r15	;#0x0006
    b4ba:	b0 12 8a 63 	call	#0x638a	
    b4be:	30 40 24 c7 	br	#0xc724	
    b4c2:	b0 12 e0 80 	call	#0x80e0	
    b4c6:	b0 12 b2 5f 	call	#0x5fb2	
    b4ca:	4b 4f       	mov.b	r15,	r11	
    b4cc:	b0 12 76 80 	call	#0x8076	
    b4d0:	4f 93       	tst.b	r15		
    b4d2:	04 24       	jz	$+10     	;abs 0xb4dc
    b4d4:	4f 4b       	mov.b	r11,	r15	
    b4d6:	b0 12 c4 5f 	call	#0x5fc4	
    b4da:	0d 3c       	jmp	$+28     	;abs 0xb4f6
    b4dc:	4f 4b       	mov.b	r11,	r15	
    b4de:	b0 12 c4 5f 	call	#0x5fc4	
    b4e2:	7f 40 53 00 	mov.b	#83,	r15	;#0x0053
    b4e6:	b0 12 7c 4a 	call	#0x4a7c	
    b4ea:	4f 43       	clr.b	r15		
    b4ec:	b0 12 7c 4a 	call	#0x4a7c	
    b4f0:	4f 43       	clr.b	r15		
    b4f2:	b0 12 7c 4a 	call	#0x4a7c	
    b4f6:	b0 12 c2 83 	call	#0x83c2	
    b4fa:	6f 43       	mov.b	#2,	r15	;r3 As==10
    b4fc:	b0 12 d0 83 	call	#0x83d0	
    b500:	30 40 24 c7 	br	#0xc724	
    b504:	b0 12 b2 5f 	call	#0x5fb2	
    b508:	5b 42 fa 11 	mov.b	&0x11fa,r11	
    b50c:	b0 12 c4 5f 	call	#0x5fc4	
    b510:	6b 92       	cmp.b	#4,	r11	;r2 As==10
    b512:	08 24       	jz	$+18     	;abs 0xb524
    b514:	7b 92       	cmp.b	#8,	r11	;r2 As==11
    b516:	0a 24       	jz	$+22     	;abs 0xb52c
    b518:	6b 93       	cmp.b	#2,	r11	;r3 As==10
    b51a:	1e 20       	jnz	$+62     	;abs 0xb558
    b51c:	b0 12 48 92 	call	#0x9248	
    b520:	30 40 24 c7 	br	#0xc724	
    b524:	b0 12 c6 8c 	call	#0x8cc6	
    b528:	30 40 24 c7 	br	#0xc724	
    b52c:	b0 12 e0 80 	call	#0x80e0	
    b530:	7f 40 09 00 	mov.b	#9,	r15	;#0x0009
    b534:	b0 12 90 80 	call	#0x8090	
    b538:	b0 12 c2 83 	call	#0x83c2	
    b53c:	b0 12 86 84 	call	#0x8486	
    b540:	b0 12 b2 5f 	call	#0x5fb2	
    b544:	92 43 fa 11 	mov	#1,	&0x11fa	;r3 As==01
    b548:	b0 12 c4 5f 	call	#0x5fc4	
    b54c:	7f 40 03 00 	mov.b	#3,	r15	;#0x0003
    b550:	b0 12 9e 82 	call	#0x829e	
    b554:	30 40 24 c7 	br	#0xc724	
    b558:	b0 12 86 84 	call	#0x8486	
    b55c:	30 40 24 c7 	br	#0xc724	
    b560:	b0 12 c4 81 	call	#0x81c4	
    b564:	30 40 24 c7 	br	#0xc724	
    b568:	b0 12 b2 5f 	call	#0x5fb2	
    b56c:	81 4f b0 01 	mov	r15,	432(r1)	;0x01b0(r1)
    b570:	b0 12 34 a9 	call	#0xa934	
    b574:	1f 41 b0 01 	mov	432(r1),r15	;0x01b0(r1)
    b578:	b0 12 c4 5f 	call	#0x5fc4	
    b57c:	30 40 24 c7 	br	#0xc724	
    b580:	b0 12 b2 5f 	call	#0x5fb2	
    b584:	d2 42 54 1d 96 11 	mov.b	&0x1d54,&0x1196	
    b58a:	f2 40 03 00 00 12 	mov.b	#3,	&0x1200	;#0x0003
    b590:	b0 12 c4 5f 	call	#0x5fc4	
    b594:	5f 42 96 11 	mov.b	&0x1196,r15	
    b598:	b0 12 0e a8 	call	#0xa80e	
    b59c:	5f 42 96 11 	mov.b	&0x1196,r15	
    b5a0:	4f 93       	tst.b	r15		
    b5a2:	05 24       	jz	$+12     	;abs 0xb5ae
    b5a4:	5f 93       	cmp.b	#1,	r15	;r3 As==01
    b5a6:	02 24       	jz	$+6      	;abs 0xb5ac
    b5a8:	30 40 24 c7 	br	#0xc724	
    b5ac:	05 3c       	jmp	$+12     	;abs 0xb5b8
    b5ae:	4f 43       	clr.b	r15		
    b5b0:	b0 12 90 a6 	call	#0xa690	
    b5b4:	30 40 24 c7 	br	#0xc724	
    b5b8:	5f 43       	mov.b	#1,	r15	;r3 As==01
    b5ba:	b0 12 90 a6 	call	#0xa690	
    b5be:	30 40 24 c7 	br	#0xc724	
    b5c2:	c2 93 8f 13 	tst.b	&0x138f	
    b5c6:	28 20       	jnz	$+82     	;abs 0xb618
    b5c8:	1a 42 44 24 	mov	&0x2444,r10	
    b5cc:	1b 42 46 24 	mov	&0x2446,r11	
    b5d0:	b0 12 b2 5f 	call	#0x5fb2	
    b5d4:	18 42 a6 13 	mov	&0x13a6,r8	
    b5d8:	19 42 a8 13 	mov	&0x13a8,r9	
    b5dc:	18 52 2e 12 	add	&0x122e,r8	
    b5e0:	19 62 30 12 	addc	&0x1230,r9	
    b5e4:	b0 12 c4 5f 	call	#0x5fc4	
    b5e8:	82 4a 44 24 	mov	r10,	&0x2444	
    b5ec:	82 4b 46 24 	mov	r11,	&0x2446	
    b5f0:	c2 43 8f 13 	mov.b	#0,	&0x138f	;r3 As==00
    b5f4:	b0 12 b2 5f 	call	#0x5fb2	
    b5f8:	82 48 2e 12 	mov	r8,	&0x122e	
    b5fc:	82 49 30 12 	mov	r9,	&0x1230	
    b600:	82 4a a6 13 	mov	r10,	&0x13a6	
    b604:	82 4b a8 13 	mov	r11,	&0x13a8	
    b608:	81 4f b0 01 	mov	r15,	432(r1)	;0x01b0(r1)
    b60c:	b0 12 de 77 	call	#0x77de	
    b610:	1f 41 b0 01 	mov	432(r1),r15	;0x01b0(r1)
    b614:	b0 12 c4 5f 	call	#0x5fc4	
    b618:	b0 12 78 76 	call	#0x7678	
    b61c:	b0 12 2a 97 	call	#0x972a	
    b620:	30 40 24 c7 	br	#0xc724	
    b624:	b0 12 78 76 	call	#0x7678	
    b628:	08 4e       	mov	r14,	r8	
    b62a:	09 4f       	mov	r15,	r9	
    b62c:	b2 f0 ef ff 86 01 	and	#-17,	&0x0186	;#0xffef
    b632:	44 43       	clr.b	r4		
    b634:	3a 43       	mov	#-1,	r10	;r3 As==11
    b636:	3b 40 ff 7f 	mov	#32767,	r11	;#0x7fff
    b63a:	06 43       	clr	r6		
    b63c:	0e 46       	mov	r6,	r14	
    b63e:	0e 5e       	rla	r14		
    b640:	0f 4e       	mov	r14,	r15	
    b642:	0f 5f       	rla	r15		
    b644:	0f 5f       	rla	r15		
    b646:	0f 5e       	add	r14,	r15	
    b648:	3f 50 e2 1b 	add	#7138,	r15	;#0x1be2
    b64c:	ef b3 08 00 	bit.b	#2,	8(r15)	;r3 As==10, 0x0008(r15)
    b650:	13 24       	jz	$+40     	;abs 0xb678
    b652:	0c 48       	mov	r8,	r12	
    b654:	0d 49       	mov	r9,	r13	
    b656:	2c 8f       	sub	@r15,	r12	
    b658:	1d 7f 02 00 	subc	2(r15),	r13	;0x0002(r15)
    b65c:	1e 4f 04 00 	mov	4(r15),	r14	;0x0004(r15)
    b660:	1f 4f 06 00 	mov	6(r15),	r15	;0x0006(r15)
    b664:	0e 8c       	sub	r12,	r14	
    b666:	0f 7d       	subc	r13,	r15	
    b668:	0f 9b       	cmp	r11,	r15	
    b66a:	03 38       	jl	$+8      	;abs 0xb672
    b66c:	05 20       	jnz	$+12     	;abs 0xb678
    b66e:	0e 9a       	cmp	r10,	r14	
    b670:	03 2c       	jc	$+8      	;abs 0xb678
    b672:	0a 4e       	mov	r14,	r10	
    b674:	0b 4f       	mov	r15,	r11	
    b676:	54 43       	mov.b	#1,	r4	;r3 As==01
    b678:	16 53       	inc	r6		
    b67a:	36 90 12 00 	cmp	#18,	r6	;#0x0012
    b67e:	de 23       	jnz	$-66     	;abs 0xb63c
    b680:	44 93       	tst.b	r4		
    b682:	02 20       	jnz	$+6      	;abs 0xb688
    b684:	30 40 24 c7 	br	#0xc724	
    b688:	0b 93       	tst	r11		
    b68a:	04 38       	jl	$+10     	;abs 0xb694
    b68c:	1b 93       	cmp	#1,	r11	;r3 As==01
    b68e:	08 34       	jge	$+18     	;abs 0xb6a0
    b690:	1a 93       	cmp	#1,	r10	;r3 As==01
    b692:	06 2c       	jc	$+14     	;abs 0xb6a0
    b694:	0e 48       	mov	r8,	r14	
    b696:	0f 49       	mov	r9,	r15	
    b698:	b0 12 2a 97 	call	#0x972a	
    b69c:	30 40 24 c7 	br	#0xc724	
    b6a0:	82 4a 44 24 	mov	r10,	&0x2444	
    b6a4:	82 4b 46 24 	mov	r11,	&0x2446	
    b6a8:	d2 43 8f 13 	mov.b	#1,	&0x138f	;r3 As==01
    b6ac:	b0 12 b2 5f 	call	#0x5fb2	
    b6b0:	82 48 2e 12 	mov	r8,	&0x122e	
    b6b4:	82 49 30 12 	mov	r9,	&0x1230	
    b6b8:	82 4a a6 13 	mov	r10,	&0x13a6	
    b6bc:	82 4b a8 13 	mov	r11,	&0x13a8	
    b6c0:	81 4f b0 01 	mov	r15,	432(r1)	;0x01b0(r1)
    b6c4:	b0 12 de 77 	call	#0x77de	
    b6c8:	1f 41 b0 01 	mov	432(r1),r15	;0x01b0(r1)
    b6cc:	b0 12 c4 5f 	call	#0x5fc4	
    b6d0:	30 40 24 c7 	br	#0xc724	
    b6d4:	c2 93 20 1d 	tst.b	&0x1d20	
    b6d8:	02 24       	jz	$+6      	;abs 0xb6de
    b6da:	30 40 24 c7 	br	#0xc724	
    b6de:	c2 93 92 11 	tst.b	&0x1192	
    b6e2:	02 24       	jz	$+6      	;abs 0xb6e8
    b6e4:	30 40 24 c7 	br	#0xc724	
    b6e8:	c2 93 f0 11 	tst.b	&0x11f0	
    b6ec:	02 20       	jnz	$+6      	;abs 0xb6f2
    b6ee:	30 40 24 c7 	br	#0xc724	
    b6f2:	5f 42 f4 11 	mov.b	&0x11f4,r15	
    b6f6:	0f 5f       	rla	r15		
    b6f8:	1a 4f 10 24 	mov	9232(r15),r10	;0x2410(r15)
    b6fc:	2f 4a       	mov	@r10,	r15	
    b6fe:	cf 93 05 00 	tst.b	5(r15)		;0x0005(r15)
    b702:	3e 20       	jnz	$+126    	;abs 0xb780
    b704:	1b 4a 02 00 	mov	2(r10),	r11	;0x0002(r10)
    b708:	92 43 98 25 	mov	#1,	&0x2598	;r3 As==01
    b70c:	6f 43       	mov.b	#2,	r15	;r3 As==10
    b70e:	b0 12 ca 9f 	call	#0x9fca	
    b712:	4f 93       	tst.b	r15		
    b714:	35 20       	jnz	$+108    	;abs 0xb780
    b716:	5f 42 0e 24 	mov.b	&0x240e,r15	
    b71a:	4e 4f       	mov.b	r15,	r14	
    b71c:	5e 53       	inc.b	r14		
    b71e:	c2 4e 0e 24 	mov.b	r14,	&0x240e	
    b722:	cb 4f 03 00 	mov.b	r15,	3(r11)	;0x0003(r11)
    b726:	6f 42       	mov.b	#4,	r15	;r2 As==10
    b728:	b0 12 ca 9f 	call	#0x9fca	
    b72c:	4f 93       	tst.b	r15		
    b72e:	25 20       	jnz	$+76     	;abs 0xb77a
    b730:	82 4b d6 15 	mov	r11,	&0x15d6	
    b734:	c2 43 dc 1b 	mov.b	#0,	&0x1bdc	;r3 As==00
    b738:	82 43 3e 24 	mov	#0,	&0x243e	;r3 As==00
    b73c:	5f 4b 88 00 	mov.b	136(r11),r15	;0x0088(r11)
    b740:	8f 10       	swpb	r15		
    b742:	5e 4b 89 00 	mov.b	137(r11),r14	;0x0089(r11)
    b746:	0f de       	bis	r14,	r15	
    b748:	0f 93       	tst	r15		
    b74a:	0d 24       	jz	$+28     	;abs 0xb766
    b74c:	5f 4b 01 00 	mov.b	1(r11),	r15	;0x0001(r11)
    b750:	3f d0 20 00 	bis	#32,	r15	;#0x0020
    b754:	5e 4b 02 00 	mov.b	2(r11),	r14	;0x0002(r11)
    b758:	8e 10       	swpb	r14		
    b75a:	0f de       	bis	r14,	r15	
    b75c:	cb 4f 01 00 	mov.b	r15,	1(r11)	;0x0001(r11)
    b760:	8f 10       	swpb	r15		
    b762:	cb 4f 02 00 	mov.b	r15,	2(r11)	;0x0002(r11)
    b766:	0f 4b       	mov	r11,	r15	
    b768:	b0 12 84 ad 	call	#0xad84	
    b76c:	4f 93       	tst.b	r15		
    b76e:	02 20       	jnz	$+6      	;abs 0xb774
    b770:	30 40 f6 c6 	br	#0xc6f6	
    b774:	6f 42       	mov.b	#4,	r15	;r2 As==10
    b776:	b0 12 1a 83 	call	#0x831a	
    b77a:	6f 43       	mov.b	#2,	r15	;r3 As==10
    b77c:	b0 12 1a 83 	call	#0x831a	
    b780:	7f 40 0c 00 	mov.b	#12,	r15	;#0x000c
    b784:	b0 12 8a 63 	call	#0x638a	
    b788:	2f 4a       	mov	@r10,	r15	
    b78a:	df 43 05 00 	mov.b	#1,	5(r15)	;r3 As==01, 0x0005(r15)
    b78e:	2f 4a       	mov	@r10,	r15	
    b790:	b0 12 d6 50 	call	#0x50d6	
    b794:	1f 4a 02 00 	mov	2(r10),	r15	;0x0002(r10)
    b798:	b0 12 a6 50 	call	#0x50a6	
    b79c:	0f 4a       	mov	r10,	r15	
    b79e:	b0 12 76 50 	call	#0x5076	
    b7a2:	c2 93 f0 11 	tst.b	&0x11f0	
    b7a6:	02 20       	jnz	$+6      	;abs 0xb7ac
    b7a8:	30 40 24 c7 	br	#0xc724	
    b7ac:	b0 12 32 51 	call	#0x5132	
    b7b0:	30 40 24 c7 	br	#0xc724	
    b7b4:	b0 12 b2 5f 	call	#0x5fb2	
    b7b8:	4b 4f       	mov.b	r15,	r11	
    b7ba:	5f 43       	mov.b	#1,	r15	;r3 As==01
    b7bc:	b0 12 96 4a 	call	#0x4a96	
    b7c0:	92 43 fa 11 	mov	#1,	&0x11fa	;r3 As==01
    b7c4:	c2 43 f8 11 	mov.b	#0,	&0x11f8	;r3 As==00
    b7c8:	c2 43 32 13 	mov.b	#0,	&0x1332	;r3 As==00
    b7cc:	c2 43 90 13 	mov.b	#0,	&0x1390	;r3 As==00
    b7d0:	4f 4b       	mov.b	r11,	r15	
    b7d2:	b0 12 c4 5f 	call	#0x5fc4	
    b7d6:	b0 12 b2 5f 	call	#0x5fb2	
    b7da:	81 4f b0 01 	mov	r15,	432(r1)	;0x01b0(r1)
    b7de:	b0 12 fa 4b 	call	#0x4bfa	
    b7e2:	92 43 6a 13 	mov	#1,	&0x136a	;r3 As==01
    b7e6:	c2 43 d7 13 	mov.b	#0,	&0x13d7	;r3 As==00
    b7ea:	f2 f0 fe ff 25 00 	and.b	#-2,	&0x0025	;#0xfffe
    b7f0:	f2 f0 fe ff 23 00 	and.b	#-2,	&0x0023	;#0xfffe
    b7f6:	d2 d3 24 00 	bis.b	#1,	&0x0024	;r3 As==01
    b7fa:	d2 d3 25 00 	bis.b	#1,	&0x0025	;r3 As==01
    b7fe:	1f 41 b0 01 	mov	432(r1),r15	;0x01b0(r1)
    b802:	b0 12 c4 5f 	call	#0x5fc4	
    b806:	b0 12 b2 5f 	call	#0x5fb2	
    b80a:	4b 4f       	mov.b	r15,	r11	
    b80c:	a2 92 04 12 	cmp	#4,	&0x1204	;r2 As==10
    b810:	05 20       	jnz	$+12     	;abs 0xb81c
    b812:	7f 40 03 00 	mov.b	#3,	r15	;#0x0003
    b816:	b0 12 90 80 	call	#0x8090	
    b81a:	4f 4b       	mov.b	r11,	r15	
    b81c:	b0 12 c4 5f 	call	#0x5fc4	
    b820:	b0 12 b2 5f 	call	#0x5fb2	
    b824:	4b 4f       	mov.b	r15,	r11	
    b826:	b0 12 c2 83 	call	#0x83c2	
    b82a:	4f 43       	clr.b	r15		
    b82c:	b0 12 d0 83 	call	#0x83d0	
    b830:	4f 4b       	mov.b	r11,	r15	
    b832:	b0 12 c4 5f 	call	#0x5fc4	
    b836:	6f 43       	mov.b	#2,	r15	;r3 As==10
    b838:	b0 12 ec 9b 	call	#0x9bec	
    b83c:	3d 40 00 10 	mov	#4096,	r13	;#0x1000
    b840:	0e 43       	clr	r14		
    b842:	7f 40 03 00 	mov.b	#3,	r15	;#0x0003
    b846:	b0 12 f4 76 	call	#0x76f4	
    b84a:	c2 43 92 11 	mov.b	#0,	&0x1192	;r3 As==00
    b84e:	c2 43 20 1d 	mov.b	#0,	&0x1d20	;r3 As==00
    b852:	d2 43 ee 11 	mov.b	#1,	&0x11ee	;r3 As==01
    b856:	3e 40 56 1d 	mov	#7510,	r14	;#0x1d56
    b85a:	3f 40 5a f7 	mov	#-2214,	r15	;#0xf75a
    b85e:	b0 12 66 e3 	call	#0xe366	
    b862:	3d 40 10 00 	mov	#16,	r13	;#0x0010
    b866:	0e 43       	clr	r14		
    b868:	3f 40 7e 13 	mov	#4990,	r15	;#0x137e
    b86c:	b0 12 74 ea 	call	#0xea74	
    b870:	b0 12 92 84 	call	#0x8492	
    b874:	3c 40 00 28 	mov	#10240,	r12	;#0x2800
    b878:	0d 43       	clr	r13		
    b87a:	b0 12 fa e7 	call	#0xe7fa	
    b87e:	0d 4e       	mov	r14,	r13	
    b880:	0e 4f       	mov	r15,	r14	
    b882:	4f 43       	clr.b	r15		
    b884:	b0 12 98 77 	call	#0x7798	
    b888:	0f 41       	mov	r1,	r15	
    b88a:	3f 50 4e 00 	add	#78,	r15	;#0x004e
    b88e:	b0 12 1a 48 	call	#0x481a	
    b892:	4f 93       	tst.b	r15		
    b894:	02 24       	jz	$+6      	;abs 0xb89a
    b896:	b0 12 92 85 	call	#0x8592	
    b89a:	3d 40 00 08 	mov	#2048,	r13	;#0x0800
    b89e:	0e 43       	clr	r14		
    b8a0:	7f 40 0e 00 	mov.b	#14,	r15	;#0x000e
    b8a4:	b0 12 98 77 	call	#0x7798	
    b8a8:	30 40 24 c7 	br	#0xc724	
    b8ac:	4f 43       	clr.b	r15		
    b8ae:	b0 12 ec 9b 	call	#0x9bec	
    b8b2:	c2 43 ee 11 	mov.b	#0,	&0x11ee	;r3 As==00
    b8b6:	30 40 24 c7 	br	#0xc724	
    b8ba:	b0 12 b2 5f 	call	#0x5fb2	
    b8be:	b0 12 c4 5f 	call	#0x5fc4	
    b8c2:	7f 40 03 00 	mov.b	#3,	r15	;#0x0003
    b8c6:	b0 12 c0 80 	call	#0x80c0	
    b8ca:	4f 93       	tst.b	r15		
    b8cc:	03 24       	jz	$+8      	;abs 0xb8d4
    b8ce:	b0 12 20 9c 	call	#0x9c20	
    b8d2:	03 3c       	jmp	$+8      	;abs 0xb8da
    b8d4:	6f 43       	mov.b	#2,	r15	;r3 As==10
    b8d6:	b0 12 ec 9b 	call	#0x9bec	
    b8da:	1b 42 9c 18 	mov	&0x189c,r11	
    b8de:	b0 12 b2 5f 	call	#0x5fb2	
    b8e2:	5a 42 2c 1d 	mov.b	&0x1d2c,r10	
    b8e6:	b0 12 c4 5f 	call	#0x5fc4	
    b8ea:	5a 93       	cmp.b	#1,	r10	;r3 As==01
    b8ec:	2a 20       	jnz	$+86     	;abs 0xb942
    b8ee:	1d 42 3e 24 	mov	&0x243e,r13	
    b8f2:	1d 53       	inc	r13		
    b8f4:	82 4d 3e 24 	mov	r13,	&0x243e	
    b8f8:	cb 93 80 00 	tst.b	128(r11)	;0x0080(r11)
    b8fc:	04 24       	jz	$+10     	;abs 0xb906
    b8fe:	b0 12 a0 9c 	call	#0x9ca0	
    b902:	30 40 24 c7 	br	#0xc724	
    b906:	1f 42 d6 15 	mov	&0x15d6,r15	
    b90a:	5e 4f 88 00 	mov.b	136(r15),r14	;0x0088(r15)
    b90e:	8e 10       	swpb	r14		
    b910:	5c 4f 89 00 	mov.b	137(r15),r12	;0x0089(r15)
    b914:	0e dc       	bis	r12,	r14	
    b916:	0d 9e       	cmp	r14,	r13	
    b918:	14 2c       	jc	$+42     	;abs 0xb942
    b91a:	5d 4f 8a 00 	mov.b	138(r15),r13	;0x008a(r15)
    b91e:	8d 10       	swpb	r13		
    b920:	5f 4f 8b 00 	mov.b	139(r15),r15	;0x008b(r15)
    b924:	0d df       	bis	r15,	r13	
    b926:	0d 93       	tst	r13		
    b928:	06 24       	jz	$+14     	;abs 0xb936
    b92a:	0e 43       	clr	r14		
    b92c:	6f 43       	mov.b	#2,	r15	;r3 As==10
    b92e:	b0 12 98 77 	call	#0x7798	
    b932:	30 40 24 c7 	br	#0xc724	
    b936:	7f 40 12 00 	mov.b	#18,	r15	;#0x0012
    b93a:	b0 12 8a 63 	call	#0x638a	
    b93e:	30 40 24 c7 	br	#0xc724	
    b942:	b0 12 a0 9c 	call	#0x9ca0	
    b946:	30 40 24 c7 	br	#0xc724	
    b94a:	1b 42 2c 12 	mov	&0x122c,r11	
    b94e:	66 4b       	mov.b	@r11,	r6	
    b950:	4e 46       	mov.b	r6,	r14	
    b952:	0e 5b       	add	r11,	r14	
    b954:	6f 4e       	mov.b	@r14,	r15	
    b956:	4f 5f       	rla.b	r15		
    b958:	0f 43       	clr	r15		
    b95a:	0f 6f       	rlc	r15		
    b95c:	cb 4f 7f 00 	mov.b	r15,	127(r11);0x007f(r11)
    b960:	6f 4e       	mov.b	@r14,	r15	
    b962:	7f f0 7f 00 	and.b	#127,	r15	;#0x007f
    b966:	cb 4f 7d 00 	mov.b	r15,	125(r11);0x007d(r11)
    b96a:	db 4e ff ff 7c 00 	mov.b	-1(r14),124(r11);0xffff(r14), 0x007c(r11)
    b970:	59 4b 02 00 	mov.b	2(r11),	r9	;0x0002(r11)
    b974:	5a 4b 01 00 	mov.b	1(r11),	r10	;0x0001(r11)
    b978:	b0 12 b2 5f 	call	#0x5fb2	
    b97c:	58 42 91 13 	mov.b	&0x1391,r8	
    b980:	b0 12 c4 5f 	call	#0x5fc4	
    b984:	48 93       	tst.b	r8		
    b986:	4a 24       	jz	$+150    	;abs 0xba1c
    b988:	4e 49       	mov.b	r9,	r14	
    b98a:	8e 10       	swpb	r14		
    b98c:	4f 4a       	mov.b	r10,	r15	
    b98e:	0e df       	bis	r15,	r14	
    b990:	8e 10       	swpb	r14		
    b992:	4e 4e       	mov.b	r14,	r14	
    b994:	12 c3       	clrc			
    b996:	0e 10       	rrc	r14		
    b998:	12 c3       	clrc			
    b99a:	0e 10       	rrc	r14		
    b99c:	3e f0 03 00 	and	#3,	r14	;#0x0003
    b9a0:	2e 93       	cmp	#2,	r14	;r3 As==10
    b9a2:	1e 20       	jnz	$+62     	;abs 0xb9e0
    b9a4:	5a 4b 07 00 	mov.b	7(r11),	r10	;0x0007(r11)
    b9a8:	8a 10       	swpb	r10		
    b9aa:	5f 4b 06 00 	mov.b	6(r11),	r15	;0x0006(r11)
    b9ae:	0a df       	bis	r15,	r10	
    b9b0:	b0 12 b2 5f 	call	#0x5fb2	
    b9b4:	19 42 48 16 	mov	&0x1648,r9	
    b9b8:	b0 12 c4 5f 	call	#0x5fc4	
    b9bc:	0a 99       	cmp	r9,	r10	
    b9be:	0b 24       	jz	$+24     	;abs 0xb9d6
    b9c0:	5f 4b 07 00 	mov.b	7(r11),	r15	;0x0007(r11)
    b9c4:	8f 10       	swpb	r15		
    b9c6:	5e 4b 06 00 	mov.b	6(r11),	r14	;0x0006(r11)
    b9ca:	0f de       	bis	r14,	r15	
    b9cc:	1e 43       	mov	#1,	r14	;r3 As==01
    b9ce:	3f 93       	cmp	#-1,	r15	;r3 As==11
    b9d0:	03 24       	jz	$+8      	;abs 0xb9d8
    b9d2:	0e 43       	clr	r14		
    b9d4:	01 3c       	jmp	$+4      	;abs 0xb9d8
    b9d6:	1e 43       	mov	#1,	r14	;r3 As==01
    b9d8:	0e 93       	tst	r14		
    b9da:	20 20       	jnz	$+66     	;abs 0xba1c
    b9dc:	30 40 20 be 	br	#0xbe20	
    b9e0:	3e 90 03 00 	cmp	#3,	r14	;#0x0003
    b9e4:	02 24       	jz	$+6      	;abs 0xb9ea
    b9e6:	30 40 20 be 	br	#0xbe20	
    b9ea:	91 42 40 1d 1e 00 	mov	&0x1d40,30(r1)	;0x001e(r1)
    b9f0:	91 42 42 1d 20 00 	mov	&0x1d42,32(r1)	;0x0020(r1)
    b9f6:	91 42 44 1d 22 00 	mov	&0x1d44,34(r1)	;0x0022(r1)
    b9fc:	91 42 46 1d 24 00 	mov	&0x1d46,36(r1)	;0x0024(r1)
    ba02:	3d 42       	mov	#8,	r13	;r2 As==11
    ba04:	0e 41       	mov	r1,	r14	
    ba06:	3e 50 1e 00 	add	#30,	r14	;#0x001e
    ba0a:	0f 4b       	mov	r11,	r15	
    ba0c:	3f 50 06 00 	add	#6,	r15	;#0x0006
    ba10:	b0 12 22 e8 	call	#0xe822	
    ba14:	0f 93       	tst	r15		
    ba16:	02 24       	jz	$+6      	;abs 0xba1c
    ba18:	30 40 20 be 	br	#0xbe20	
    ba1c:	76 90 0d 00 	cmp.b	#13,	r6	;#0x000d
    ba20:	02 2c       	jc	$+6      	;abs 0xba26
    ba22:	30 40 20 be 	br	#0xbe20	
    ba26:	1b 42 2c 12 	mov	&0x122c,r11	
    ba2a:	5e 4b 02 00 	mov.b	2(r11),	r14	;0x0002(r11)
    ba2e:	8e 10       	swpb	r14		
    ba30:	5f 4b 01 00 	mov.b	1(r11),	r15	;0x0001(r11)
    ba34:	0e df       	bis	r15,	r14	
    ba36:	0f 4e       	mov	r14,	r15	
    ba38:	8f 10       	swpb	r15		
    ba3a:	4f 4f       	mov.b	r15,	r15	
    ba3c:	12 c3       	clrc			
    ba3e:	0f 10       	rrc	r15		
    ba40:	12 c3       	clrc			
    ba42:	0f 10       	rrc	r15		
    ba44:	3f f0 03 00 	and	#3,	r15	;#0x0003
    ba48:	0c 4b       	mov	r11,	r12	
    ba4a:	3c 50 06 00 	add	#6,	r12	;#0x0006
    ba4e:	8e 10       	swpb	r14		
    ba50:	4e 4e       	mov.b	r14,	r14	
    ba52:	7d 40 06 00 	mov.b	#6,	r13	;#0x0006
    ba56:	12 c3       	clrc			
    ba58:	0e 10       	rrc	r14		
    ba5a:	7d 53       	add.b	#-1,	r13	;r3 As==11
    ba5c:	fc 23       	jnz	$-6      	;abs 0xba56
    ba5e:	3e 90 03 00 	cmp	#3,	r14	;#0x0003
    ba62:	02 24       	jz	$+6      	;abs 0xba68
    ba64:	2e 43       	mov	#2,	r14	;r3 As==10
    ba66:	01 3c       	jmp	$+4      	;abs 0xba6a
    ba68:	3e 42       	mov	#8,	r14	;r2 As==11
    ba6a:	3f 90 03 00 	cmp	#3,	r15	;#0x0003
    ba6e:	02 24       	jz	$+6      	;abs 0xba74
    ba70:	2f 43       	mov	#2,	r15	;r3 As==10
    ba72:	01 3c       	jmp	$+4      	;abs 0xba76
    ba74:	3f 42       	mov	#8,	r15	;r2 As==11
    ba76:	0c 5f       	add	r15,	r12	
    ba78:	09 43       	clr	r9		
    ba7a:	0f 43       	clr	r15		
    ba7c:	0d 4c       	mov	r12,	r13	
    ba7e:	0d 5f       	add	r15,	r13	
    ba80:	6d 4d       	mov.b	@r13,	r13	
    ba82:	09 5d       	add	r13,	r9	
    ba84:	1f 53       	inc	r15		
    ba86:	0f 9e       	cmp	r14,	r15	
    ba88:	f9 3b       	jl	$-12     	;abs 0xba7c
    ba8a:	5a 4b 03 00 	mov.b	3(r11),	r10	;0x0003(r11)
    ba8e:	f2 43 ac 25 	mov.b	#-1,	&0x25ac	;r3 As==11
    ba92:	b0 12 b2 5f 	call	#0x5fb2	
    ba96:	5c 42 ac 25 	mov.b	&0x25ac,r12	
    ba9a:	3e 40 6e 12 	mov	#4718,	r14	;#0x126e
    ba9e:	0d 43       	clr	r13		
    baa0:	29 9e       	cmp	@r14,	r9	
    baa2:	0a 20       	jnz	$+22     	;abs 0xbab8
    baa4:	ce 9a 02 00 	cmp.b	r10,	2(r14)	;0x0002(r14)
    baa8:	06 20       	jnz	$+14     	;abs 0xbab6
    baaa:	c2 4c ac 25 	mov.b	r12,	&0x25ac	
    baae:	b0 12 c4 5f 	call	#0x5fc4	
    bab2:	30 40 1c be 	br	#0xbe1c	
    bab6:	4c 4d       	mov.b	r13,	r12	
    bab8:	1d 53       	inc	r13		
    baba:	2e 52       	add	#4,	r14	;r2 As==10
    babc:	2d 92       	cmp	#4,	r13	;r2 As==10
    babe:	f0 23       	jnz	$-30     	;abs 0xbaa0
    bac0:	c2 4c ac 25 	mov.b	r12,	&0x25ac	
    bac4:	b0 12 c4 5f 	call	#0x5fc4	
    bac8:	58 42 ac 25 	mov.b	&0x25ac,r8	
    bacc:	b0 12 b2 5f 	call	#0x5fb2	
    bad0:	78 93       	cmp.b	#-1,	r8	;r3 As==11
    bad2:	03 24       	jz	$+8      	;abs 0xbada
    bad4:	c2 98 f6 11 	cmp.b	r8,	&0x11f6	
    bad8:	04 20       	jnz	$+10     	;abs 0xbae2
    bada:	58 42 f6 11 	mov.b	&0x11f6,r8	
    bade:	5d 43       	mov.b	#1,	r13	;r3 As==01
    bae0:	01 3c       	jmp	$+4      	;abs 0xbae4
    bae2:	4d 43       	clr.b	r13		
    bae4:	4e 48       	mov.b	r8,	r14	
    bae6:	0e 5e       	rla	r14		
    bae8:	0e 5e       	rla	r14		
    baea:	8e 49 6e 12 	mov	r9,	4718(r14);0x126e(r14)
    baee:	ce 4a 70 12 	mov.b	r10,	4720(r14);0x1270(r14)
    baf2:	4d 93       	tst.b	r13		
    baf4:	07 24       	jz	$+16     	;abs 0xbb04
    baf6:	5e 42 f6 11 	mov.b	&0x11f6,r14	
    bafa:	5e 53       	inc.b	r14		
    bafc:	7e f0 03 00 	and.b	#3,	r14	;#0x0003
    bb00:	c2 4e f6 11 	mov.b	r14,	&0x11f6	
    bb04:	b0 12 c4 5f 	call	#0x5fc4	
    bb08:	b0 12 b2 5f 	call	#0x5fb2	
    bb0c:	5c 4b 02 00 	mov.b	2(r11),	r12	;0x0002(r11)
    bb10:	8c 10       	swpb	r12		
    bb12:	5e 4b 01 00 	mov.b	1(r11),	r14	;0x0001(r11)
    bb16:	0c de       	bis	r14,	r12	
    bb18:	0e 4c       	mov	r12,	r14	
    bb1a:	8e 10       	swpb	r14		
    bb1c:	4e 4e       	mov.b	r14,	r14	
    bb1e:	12 c3       	clrc			
    bb20:	0e 10       	rrc	r14		
    bb22:	12 c3       	clrc			
    bb24:	0e 10       	rrc	r14		
    bb26:	3e f0 03 00 	and	#3,	r14	;#0x0003
    bb2a:	5d 4e de f8 	mov.b	-1826(r14),r13	;0xf8de(r14)
    bb2e:	8d 11       	sxt	r13		
    bb30:	0e 4c       	mov	r12,	r14	
    bb32:	8e 10       	swpb	r14		
    bb34:	4e 4e       	mov.b	r14,	r14	
    bb36:	7c 40 06 00 	mov.b	#6,	r12	;#0x0006
    bb3a:	12 c3       	clrc			
    bb3c:	0e 10       	rrc	r14		
    bb3e:	7c 53       	add.b	#-1,	r12	;r3 As==11
    bb40:	fc 23       	jnz	$-6      	;abs 0xbb3a
    bb42:	5e 4e de f8 	mov.b	-1826(r14),r14	;0xf8de(r14)
    bb46:	8e 11       	sxt	r14		
    bb48:	0d 5b       	add	r11,	r13	
    bb4a:	0d 5e       	add	r14,	r13	
    bb4c:	5a 4d 06 00 	mov.b	6(r13),	r10	;0x0006(r13)
    bb50:	b0 12 c4 5f 	call	#0x5fc4	
    bb54:	cb 93 7f 00 	tst.b	127(r11)	;0x007f(r11)
    bb58:	02 20       	jnz	$+6      	;abs 0xbb5e
    bb5a:	30 40 1c be 	br	#0xbe1c	
    bb5e:	7a 90 3f 00 	cmp.b	#63,	r10	;#0x003f
    bb62:	02 20       	jnz	$+6      	;abs 0xbb68
    bb64:	30 40 1c be 	br	#0xbe1c	
    bb68:	76 53       	add.b	#-1,	r6	;r3 As==11
    bb6a:	4a 46       	mov.b	r6,	r10	
    bb6c:	5f 4b 02 00 	mov.b	2(r11),	r15	;0x0002(r11)
    bb70:	8f 10       	swpb	r15		
    bb72:	5e 4b 01 00 	mov.b	1(r11),	r14	;0x0001(r11)
    bb76:	0f de       	bis	r14,	r15	
    bb78:	5e 4b 05 00 	mov.b	5(r11),	r14	;0x0005(r11)
    bb7c:	8e 10       	swpb	r14		
    bb7e:	5d 4b 04 00 	mov.b	4(r11),	r13	;0x0004(r11)
    bb82:	0e dd       	bis	r13,	r14	
    bb84:	81 4e 72 00 	mov	r14,	114(r1)	;0x0072(r1)
    bb88:	0e 4f       	mov	r15,	r14	
    bb8a:	8e 10       	swpb	r14		
    bb8c:	4e 4e       	mov.b	r14,	r14	
    bb8e:	7d 40 06 00 	mov.b	#6,	r13	;#0x0006
    bb92:	12 c3       	clrc			
    bb94:	0e 10       	rrc	r14		
    bb96:	7d 53       	add.b	#-1,	r13	;r3 As==11
    bb98:	fc 23       	jnz	$-6      	;abs 0xbb92
    bb9a:	7e f0 03 00 	and.b	#3,	r14	;#0x0003
    bb9e:	5d 41 5e 00 	mov.b	94(r1),	r13	;0x005e(r1)
    bba2:	7d f0 fc ff 	and.b	#-4,	r13	;#0xfffc
    bba6:	4d de       	bis.b	r14,	r13	
    bba8:	c1 4d 5e 00 	mov.b	r13,	94(r1)	;0x005e(r1)
    bbac:	8f 10       	swpb	r15		
    bbae:	4f 4f       	mov.b	r15,	r15	
    bbb0:	12 c3       	clrc			
    bbb2:	0f 10       	rrc	r15		
    bbb4:	12 c3       	clrc			
    bbb6:	0f 10       	rrc	r15		
    bbb8:	7f f0 03 00 	and.b	#3,	r15	;#0x0003
    bbbc:	5e 41 68 00 	mov.b	104(r1),r14	;0x0068(r1)
    bbc0:	7e f0 fc ff 	and.b	#-4,	r14	;#0xfffc
    bbc4:	4e df       	bis.b	r15,	r14	
    bbc6:	c1 4e 68 00 	mov.b	r14,	104(r1)	;0x0068(r1)
    bbca:	09 4b       	mov	r11,	r9	
    bbcc:	39 50 06 00 	add	#6,	r9	;#0x0006
    bbd0:	7e f0 03 00 	and.b	#3,	r14	;#0x0003
    bbd4:	6e 93       	cmp.b	#2,	r14	;r3 As==10
    bbd6:	08 20       	jnz	$+18     	;abs 0xbbe8
    bbd8:	e1 49 6a 00 	mov.b	@r9,	106(r1)	;0x006a(r1)
    bbdc:	d1 49 01 00 6b 00 	mov.b	1(r9),	107(r1)	;0x0001(r9), 0x006b(r1)
    bbe2:	29 53       	incd	r9		
    bbe4:	08 4a       	mov	r10,	r8	
    bbe6:	14 3c       	jmp	$+42     	;abs 0xbc10
    bbe8:	08 4a       	mov	r10,	r8	
    bbea:	38 50 fa ff 	add	#-6,	r8	;#0xfffa
    bbee:	7e 90 03 00 	cmp.b	#3,	r14	;#0x0003
    bbf2:	0f 20       	jnz	$+32     	;abs 0xbc12
    bbf4:	38 92       	cmp	#8,	r8	;r2 As==11
    bbf6:	02 2c       	jc	$+6      	;abs 0xbbfc
    bbf8:	30 40 1c be 	br	#0xbe1c	
    bbfc:	3d 42       	mov	#8,	r13	;r2 As==11
    bbfe:	0e 49       	mov	r9,	r14	
    bc00:	0f 41       	mov	r1,	r15	
    bc02:	3f 50 6a 00 	add	#106,	r15	;#0x006a
    bc06:	b0 12 80 e8 	call	#0xe880	
    bc0a:	09 4b       	mov	r11,	r9	
    bc0c:	39 50 0e 00 	add	#14,	r9	;#0x000e
    bc10:	38 82       	sub	#8,	r8	;r2 As==11
    bc12:	5f 41 5e 00 	mov.b	94(r1),	r15	;0x005e(r1)
    bc16:	7f f0 03 00 	and.b	#3,	r15	;#0x0003
    bc1a:	6f 93       	cmp.b	#2,	r15	;r3 As==10
    bc1c:	0d 20       	jnz	$+28     	;abs 0xbc38
    bc1e:	28 93       	cmp	#2,	r8	;r3 As==10
    bc20:	02 2c       	jc	$+6      	;abs 0xbc26
    bc22:	30 40 1c be 	br	#0xbe1c	
    bc26:	e1 49 60 00 	mov.b	@r9,	96(r1)	;0x0060(r1)
    bc2a:	d1 49 01 00 61 00 	mov.b	1(r9),	97(r1)	;0x0001(r9), 0x0061(r1)
    bc30:	29 53       	incd	r9		
    bc32:	28 83       	decd	r8		
    bc34:	30 40 fc c6 	br	#0xc6fc	
    bc38:	7f 90 03 00 	cmp.b	#3,	r15	;#0x0003
    bc3c:	02 24       	jz	$+6      	;abs 0xbc42
    bc3e:	30 40 fc c6 	br	#0xc6fc	
    bc42:	38 92       	cmp	#8,	r8	;r2 As==11
    bc44:	02 2c       	jc	$+6      	;abs 0xbc4a
    bc46:	30 40 1c be 	br	#0xbe1c	
    bc4a:	3d 42       	mov	#8,	r13	;r2 As==11
    bc4c:	0e 49       	mov	r9,	r14	
    bc4e:	0f 41       	mov	r1,	r15	
    bc50:	3f 50 60 00 	add	#96,	r15	;#0x0060
    bc54:	b0 12 80 e8 	call	#0xe880	
    bc58:	39 52       	add	#8,	r9	;r2 As==11
    bc5a:	38 82       	sub	#8,	r8	;r2 As==11
    bc5c:	30 40 fc c6 	br	#0xc6fc	
    bc60:	7e b0 0c 00 	bit.b	#12,	r14	;#0x000c
    bc64:	ac 24       	jz	$+346    	;abs 0xbdbe
    bc66:	0f 41       	mov	r1,	r15	
    bc68:	3f 50 5e 00 	add	#94,	r15	;#0x005e
    bc6c:	b0 12 be e5 	call	#0xe5be	
    bc70:	81 4f ac 01 	mov	r15,	428(r1)	;0x01ac(r1)
    bc74:	0e 41       	mov	r1,	r14	
    bc76:	2e 52       	add	#4,	r14	;r2 As==10
    bc78:	0f 41       	mov	r1,	r15	
    bc7a:	3f 50 0e 00 	add	#14,	r15	;#0x000e
    bc7e:	b0 12 f6 49 	call	#0x49f6	
    bc82:	1c 41 04 00 	mov	4(r1),	r12	;0x0004(r1)
    bc86:	0a 43       	clr	r10		
    bc88:	0d 43       	clr	r13		
    bc8a:	02 12       	push	r2		
    bc8c:	32 c2       	dint			
    bc8e:	03 43       	nop			
    bc90:	82 4d 32 01 	mov	r13,	&0x0132	
    bc94:	b2 40 1c 00 38 01 	mov	#28,	&0x0138	;#0x001c
    bc9a:	1e 42 3a 01 	mov	&0x013a,r14	
    bc9e:	32 41       	pop	r2		
    bca0:	3e 50 f0 15 	add	#5616,	r14	;#0x15f0
    bca4:	2c 9e       	cmp	@r14,	r12	
    bca6:	10 20       	jnz	$+34     	;abs 0xbcc8
    bca8:	9e 91 ac 01 02 00 	cmp	428(r1),2(r14)	;0x01ac(r1), 0x0002(r14)
    bcae:	0c 20       	jnz	$+26     	;abs 0xbcc8
    bcb0:	5f 4e 0a 00 	mov.b	10(r14),r15	;0x000a(r14)
    bcb4:	7f 90 03 00 	cmp.b	#3,	r15	;#0x0003
    bcb8:	05 28       	jnc	$+12     	;abs 0xbcc4
    bcba:	fe 40 03 00 0a 00 	mov.b	#3,	10(r14)	;#0x0003, 0x000a(r14)
    bcc0:	0a 4e       	mov	r14,	r10	
    bcc2:	0a 3c       	jmp	$+22     	;abs 0xbcd8
    bcc4:	6f 93       	cmp.b	#2,	r15	;r3 As==10
    bcc6:	aa 20       	jnz	$+342    	;abs 0xbe1c
    bcc8:	ee 93 0a 00 	cmp.b	#2,	10(r14)	;r3 As==10, 0x000a(r14)
    bccc:	01 20       	jnz	$+4      	;abs 0xbcd0
    bcce:	0a 4e       	mov	r14,	r10	
    bcd0:	1d 53       	inc	r13		
    bcd2:	3d 90 03 00 	cmp	#3,	r13	;#0x0003
    bcd6:	d9 23       	jnz	$-76     	;abs 0xbc8a
    bcd8:	0a 93       	tst	r10		
    bcda:	a0 24       	jz	$+322    	;abs 0xbe1c
    bcdc:	3d 40 0a 00 	mov	#10,	r13	;#0x000a
    bce0:	0e 41       	mov	r1,	r14	
    bce2:	3e 50 5e 00 	add	#94,	r14	;#0x005e
    bce6:	0f 4a       	mov	r10,	r15	
    bce8:	3f 50 10 00 	add	#16,	r15	;#0x0010
    bcec:	b0 12 80 e8 	call	#0xe880	
    bcf0:	da 4b 7d 00 1a 00 	mov.b	125(r11),26(r10)	;0x007d(r11), 0x001a(r10)
    bcf6:	da 4b 7c 00 1b 00 	mov.b	124(r11),27(r10)	;0x007c(r11), 0x001b(r10)
    bcfc:	e1 b2 0e 00 	bit.b	#4,	14(r1)	;r2 As==10, 0x000e(r1)
    bd00:	0e 24       	jz	$+30     	;abs 0xbd1e
    bd02:	8a 93 06 00 	tst	6(r10)		;0x0006(r10)
    bd06:	8a 20       	jnz	$+278    	;abs 0xbe1c
    bd08:	0c 48       	mov	r8,	r12	
    bd0a:	0d 49       	mov	r9,	r13	
    bd0c:	0e 4a       	mov	r10,	r14	
    bd0e:	0f 41       	mov	r1,	r15	
    bd10:	3f 50 5e 00 	add	#94,	r15	;#0x005e
    bd14:	b0 12 9e 55 	call	#0x559e	
    bd18:	0f 93       	tst	r15		
    bd1a:	42 34       	jge	$+134    	;abs 0xbda0
    bd1c:	3e 3c       	jmp	$+126    	;abs 0xbd9a
    bd1e:	91 4a 06 00 ae 01 	mov	6(r10),	430(r1)	;0x0006(r10), 0x01ae(r1)
    bd24:	81 93 ae 01 	tst	430(r1)	;0x01ae(r1)
    bd28:	79 24       	jz	$+244    	;abs 0xbe1c
    bd2a:	81 49 0c 00 	mov	r9,	12(r1)	;0x000c(r1)
    bd2e:	c1 46 0b 00 	mov.b	r6,	11(r1)	;0x000b(r1)
    bd32:	0f 41       	mov	r1,	r15	
    bd34:	3f 50 0a 00 	add	#10,	r15	;#0x000a
    bd38:	b0 12 86 49 	call	#0x4986	
    bd3c:	0e 4f       	mov	r15,	r14	
    bd3e:	4f 4f       	mov.b	r15,	r15	
    bd40:	c1 4e 0a 00 	mov.b	r14,	10(r1)	;0x000a(r1)
    bd44:	7f 90 10 00 	cmp.b	#16,	r15	;#0x0010
    bd48:	28 24       	jz	$+82     	;abs 0xbd9a
    bd4a:	7f f2       	and.b	#8,	r15	;r2 As==11
    bd4c:	26 24       	jz	$+78     	;abs 0xbd9a
    bd4e:	0f 41       	mov	r1,	r15	
    bd50:	3f 50 0a 00 	add	#10,	r15	;#0x000a
    bd54:	b0 12 68 49 	call	#0x4968	
    bd58:	0e 4f       	mov	r15,	r14	
    bd5a:	04 49       	mov	r9,	r4	
    bd5c:	89 10       	swpb	r9		
    bd5e:	89 11       	sxt	r9		
    bd60:	89 10       	swpb	r9		
    bd62:	89 11       	sxt	r9		
    bd64:	05 49       	mov	r9,	r5	
    bd66:	06 4f       	mov	r15,	r6	
    bd68:	0c 4f       	mov	r15,	r12	
    bd6a:	8c 10       	swpb	r12		
    bd6c:	8c 11       	sxt	r12		
    bd6e:	8c 10       	swpb	r12		
    bd70:	8c 11       	sxt	r12		
    bd72:	07 4c       	mov	r12,	r7	
    bd74:	04 86       	sub	r6,	r4	
    bd76:	05 77       	subc	r7,	r5	
    bd78:	04 58       	add	r8,	r4	
    bd7a:	1c 4a 08 00 	mov	8(r10),	r12	;0x0008(r10)
    bd7e:	0f 44       	mov	r4,	r15	
    bd80:	0f 5c       	add	r12,	r15	
    bd82:	8a 9f 04 00 	cmp	r15,	4(r10)	;0x0004(r10)
    bd86:	09 28       	jnc	$+20     	;abs 0xbd9a
    bd88:	0d 44       	mov	r4,	r13	
    bd8a:	1f 41 ae 01 	mov	430(r1),r15	;0x01ae(r1)
    bd8e:	0f 5c       	add	r12,	r15	
    bd90:	b0 12 80 e8 	call	#0xe880	
    bd94:	8a 54 08 00 	add	r4,	8(r10)	;0x0008(r10)
    bd98:	03 3c       	jmp	$+8      	;abs 0xbda0
    bd9a:	ca 43 0a 00 	mov.b	#0,	10(r10)	;r3 As==00, 0x000a(r10)
    bd9e:	3e 3c       	jmp	$+126    	;abs 0xbe1c
    bda0:	fa 40 03 00 0a 00 	mov.b	#3,	10(r10)	;#0x0003, 0x000a(r10)
    bda6:	9a 41 ac 01 02 00 	mov	428(r1),2(r10)	;0x01ac(r1), 0x0002(r10)
    bdac:	9a 41 04 00 00 00 	mov	4(r1),	0(r10)	;0x0004(r1), 0x0000(r10)
    bdb2:	9a 9a 08 00 04 00 	cmp	8(r10),	4(r10)	;0x0008(r10), 0x0004(r10)
    bdb8:	31 20       	jnz	$+100    	;abs 0xbe1c
    bdba:	0f 4a       	mov	r10,	r15	
    bdbc:	28 3c       	jmp	$+82     	;abs 0xbe0e
    bdbe:	3d 40 0a 00 	mov	#10,	r13	;#0x000a
    bdc2:	0e 41       	mov	r1,	r14	
    bdc4:	3e 50 5e 00 	add	#94,	r14	;#0x005e
    bdc8:	0f 41       	mov	r1,	r15	
    bdca:	3f 50 a0 00 	add	#160,	r15	;#0x00a0
    bdce:	b0 12 80 e8 	call	#0xe880	
    bdd2:	d1 4b 7d 00 aa 00 	mov.b	125(r11),170(r1)	;0x007d(r11), 0x00aa(r1)
    bdd8:	d1 4b 7c 00 ab 00 	mov.b	124(r11),171(r1)	;0x007c(r11), 0x00ab(r1)
    bdde:	0f 41       	mov	r1,	r15	
    bde0:	3f 50 0e 00 	add	#14,	r15	;#0x000e
    bde4:	b0 12 68 49 	call	#0x4968	
    bde8:	0c 48       	mov	r8,	r12	
    bdea:	0d 4f       	mov	r15,	r13	
    bdec:	0e 41       	mov	r1,	r14	
    bdee:	3e 50 90 00 	add	#144,	r14	;#0x0090
    bdf2:	0f 41       	mov	r1,	r15	
    bdf4:	3f 50 5e 00 	add	#94,	r15	;#0x005e
    bdf8:	b0 12 9e 55 	call	#0x559e	
    bdfc:	0f 93       	tst	r15		
    bdfe:	0e 38       	jl	$+30     	;abs 0xbe1c
    be00:	91 91 98 00 94 00 	cmp	152(r1),148(r1)	;0x0098(r1), 0x0094(r1)
    be06:	06 20       	jnz	$+14     	;abs 0xbe14
    be08:	0f 41       	mov	r1,	r15	
    be0a:	3f 50 90 00 	add	#144,	r15	;#0x0090
    be0e:	b0 12 42 cd 	call	#0xcd42	
    be12:	04 3c       	jmp	$+10     	;abs 0xbe1c
    be14:	1f 41 96 00 	mov	150(r1),r15	;0x0096(r1)
    be18:	b0 12 30 e2 	call	#0xe230	
    be1c:	82 4b 2c 12 	mov	r11,	&0x122c	
    be20:	b0 12 b2 5f 	call	#0x5fb2	
    be24:	c2 43 d7 13 	mov.b	#0,	&0x13d7	;r3 As==00
    be28:	b0 12 c4 5f 	call	#0x5fc4	
    be2c:	b0 12 be a8 	call	#0xa8be	
    be30:	30 40 24 c7 	br	#0xc724	
    be34:	d2 92 90 11 dc 15 	cmp.b	&0x1190,&0x15dc	
    be3a:	02 20       	jnz	$+6      	;abs 0xbe40
    be3c:	30 40 24 c7 	br	#0xc724	
    be40:	f2 43 90 11 	mov.b	#-1,	&0x1190	;r3 As==11
    be44:	30 40 24 c7 	br	#0xc724	
    be48:	1f 42 d6 15 	mov	&0x15d6,r15	
    be4c:	5e 4f 88 00 	mov.b	136(r15),r14	;0x0088(r15)
    be50:	8e 10       	swpb	r14		
    be52:	5d 4f 89 00 	mov.b	137(r15),r13	;0x0089(r15)
    be56:	0e dd       	bis	r13,	r14	
    be58:	0e 93       	tst	r14		
    be5a:	0d 24       	jz	$+28     	;abs 0xbe76
    be5c:	5e 4f 01 00 	mov.b	1(r15),	r14	;0x0001(r15)
    be60:	3e d0 20 00 	bis	#32,	r14	;#0x0020
    be64:	5d 4f 02 00 	mov.b	2(r15),	r13	;0x0002(r15)
    be68:	8d 10       	swpb	r13		
    be6a:	0e dd       	bis	r13,	r14	
    be6c:	cf 4e 01 00 	mov.b	r14,	1(r15)	;0x0001(r15)
    be70:	8e 10       	swpb	r14		
    be72:	cf 4e 02 00 	mov.b	r14,	2(r15)	;0x0002(r15)
    be76:	1f 42 d6 15 	mov	&0x15d6,r15	
    be7a:	b0 12 84 ad 	call	#0xad84	
    be7e:	4f 93       	tst.b	r15		
    be80:	02 20       	jnz	$+6      	;abs 0xbe86
    be82:	30 40 24 c7 	br	#0xc724	
    be86:	7f 40 12 00 	mov.b	#18,	r15	;#0x0012
    be8a:	b0 12 8a 63 	call	#0x638a	
    be8e:	30 40 24 c7 	br	#0xc724	
    be92:	b0 12 b6 86 	call	#0x86b6	
    be96:	b0 12 d2 88 	call	#0x88d2	
    be9a:	30 40 24 c7 	br	#0xc724	
    be9e:	c2 93 da 11 	tst.b	&0x11da	
    bea2:	02 20       	jnz	$+6      	;abs 0xbea8
    bea4:	30 40 24 c7 	br	#0xc724	
    bea8:	c2 93 d8 11 	tst.b	&0x11d8	
    beac:	02 20       	jnz	$+6      	;abs 0xbeb2
    beae:	30 40 24 c7 	br	#0xc724	
    beb2:	f1 40 9b ff 74 00 	mov.b	#-101,	116(r1)	;#0xff9b, 0x0074(r1)
    beb8:	d1 43 75 00 	mov.b	#1,	117(r1)	;r3 As==01, 0x0075(r1)
    bebc:	c1 43 77 00 	mov.b	#0,	119(r1)	;r3 As==00, 0x0077(r1)
    bec0:	c1 43 76 00 	mov.b	#0,	118(r1)	;r3 As==00, 0x0076(r1)
    bec4:	d1 42 d6 11 78 00 	mov.b	&0x11d6,120(r1)	;0x0078(r1)
    beca:	d1 42 d4 11 79 00 	mov.b	&0x11d4,121(r1)	;0x0079(r1)
    bed0:	b0 12 a0 5f 	call	#0x5fa0	
    bed4:	c1 4f 7b 00 	mov.b	r15,	123(r1)	;0x007b(r1)
    bed8:	8f 10       	swpb	r15		
    beda:	c1 4f 7a 00 	mov.b	r15,	122(r1)	;0x007a(r1)
    bede:	5e 42 80 11 	mov.b	&0x1180,r14	
    bee2:	7f 40 07 00 	mov.b	#7,	r15	;#0x0007
    bee6:	0e 5e       	rla	r14		
    bee8:	7f 53       	add.b	#-1,	r15	;r3 As==11
    beea:	fd 23       	jnz	$-4      	;abs 0xbee6
    beec:	5f 42 7f 11 	mov.b	&0x117f,r15	
    bef0:	0f 5f       	rla	r15		
    bef2:	0f 5f       	rla	r15		
    bef4:	0f 5f       	rla	r15		
    bef6:	4f de       	bis.b	r14,	r15	
    bef8:	5f d2 7e 11 	bis.b	&0x117e,r15	
    befc:	c1 4f 7c 00 	mov.b	r15,	124(r1)	;0x007c(r1)
    bf00:	d1 42 74 11 7d 00 	mov.b	&0x1174,125(r1)	;0x007d(r1)
    bf06:	c1 43 7e 00 	mov.b	#0,	126(r1)	;r3 As==00, 0x007e(r1)
    bf0a:	c1 43 7f 00 	mov.b	#0,	127(r1)	;r3 As==00, 0x007f(r1)
    bf0e:	3d 40 10 00 	mov	#16,	r13	;#0x0010
    bf12:	3e 40 ae 13 	mov	#5038,	r14	;#0x13ae
    bf16:	0f 41       	mov	r1,	r15	
    bf18:	3f 50 80 00 	add	#128,	r15	;#0x0080
    bf1c:	b0 12 80 e8 	call	#0xe880	
    bf20:	3d 40 1c 00 	mov	#28,	r13	;#0x001c
    bf24:	0e 41       	mov	r1,	r14	
    bf26:	3e 50 74 00 	add	#116,	r14	;#0x0074
    bf2a:	0f 41       	mov	r1,	r15	
    bf2c:	3f 50 34 01 	add	#308,	r15	;#0x0134
    bf30:	b0 12 1a e6 	call	#0xe61a	
    bf34:	e1 42 2e 00 	mov.b	#4,	46(r1)	;r2 As==10, 0x002e(r1)
    bf38:	f1 40 0e 00 2f 00 	mov.b	#14,	47(r1)	;#0x000e, 0x002f(r1)
    bf3e:	c1 43 30 00 	mov.b	#0,	48(r1)	;r3 As==00, 0x0030(r1)
    bf42:	c1 43 39 00 	mov.b	#0,	57(r1)	;r3 As==00, 0x0039(r1)
    bf46:	c1 43 38 00 	mov.b	#0,	56(r1)	;r3 As==00, 0x0038(r1)
    bf4a:	f1 43 3b 00 	mov.b	#-1,	59(r1)	;r3 As==11, 0x003b(r1)
    bf4e:	f1 43 3d 00 	mov.b	#-1,	61(r1)	;r3 As==11, 0x003d(r1)
    bf52:	f1 43 3c 00 	mov.b	#-1,	60(r1)	;r3 As==11, 0x003c(r1)
    bf56:	d1 42 7c 11 31 00 	mov.b	&0x117c,49(r1)	;0x0031(r1)
    bf5c:	d1 42 7b 11 32 00 	mov.b	&0x117b,50(r1)	;0x0032(r1)
    bf62:	d1 42 7a 11 33 00 	mov.b	&0x117a,51(r1)	;0x0033(r1)
    bf68:	1f 42 76 11 	mov	&0x1176,r15	
    bf6c:	c1 4f 35 00 	mov.b	r15,	53(r1)	;0x0035(r1)
    bf70:	8f 10       	swpb	r15		
    bf72:	c1 4f 34 00 	mov.b	r15,	52(r1)	;0x0034(r1)
    bf76:	1f 42 78 11 	mov	&0x1178,r15	
    bf7a:	c1 4f 37 00 	mov.b	r15,	55(r1)	;0x0037(r1)
    bf7e:	8f 10       	swpb	r15		
    bf80:	c1 4f 36 00 	mov.b	r15,	54(r1)	;0x0036(r1)
    bf84:	c1 43 3a 00 	mov.b	#0,	58(r1)	;r3 As==00, 0x003a(r1)
    bf88:	3d 40 10 00 	mov	#16,	r13	;#0x0010
    bf8c:	0e 41       	mov	r1,	r14	
    bf8e:	3e 50 2e 00 	add	#46,	r14	;#0x002e
    bf92:	0f 41       	mov	r1,	r15	
    bf94:	3f 50 50 01 	add	#336,	r15	;#0x0150
    bf98:	b0 12 1a e6 	call	#0xe61a	
    bf9c:	c2 93 dc 11 	tst.b	&0x11dc	
    bfa0:	33 20       	jnz	$+104    	;abs 0xc008
    bfa2:	e1 43 02 00 	mov.b	#2,	2(r1)	;r3 As==10, 0x0002(r1)
    bfa6:	f1 40 06 00 03 00 	mov.b	#6,	3(r1)	;#0x0006, 0x0003(r1)
    bfac:	f1 40 07 00 06 00 	mov.b	#7,	6(r1)	;#0x0007, 0x0006(r1)
    bfb2:	c1 43 07 00 	mov.b	#0,	7(r1)	;r3 As==00, 0x0007(r1)
    bfb6:	c1 43 08 00 	mov.b	#0,	8(r1)	;r3 As==00, 0x0008(r1)
    bfba:	e1 43 09 00 	mov.b	#2,	9(r1)	;r3 As==10, 0x0009(r1)
    bfbe:	1f 42 60 11 	mov	&0x1160,r15	
    bfc2:	c1 4f 01 00 	mov.b	r15,	1(r1)	;0x0001(r1)
    bfc6:	8f 10       	swpb	r15		
    bfc8:	c1 4f 00 00 	mov.b	r15,	0(r1)	;0x0000(r1)
    bfcc:	2d 43       	mov	#2,	r13	;r3 As==10
    bfce:	0e 41       	mov	r1,	r14	
    bfd0:	2e 53       	incd	r14		
    bfd2:	0f 41       	mov	r1,	r15	
    bfd4:	3f 50 60 01 	add	#352,	r15	;#0x0160
    bfd8:	b0 12 1a e6 	call	#0xe61a	
    bfdc:	2d 42       	mov	#4,	r13	;r2 As==10
    bfde:	0e 41       	mov	r1,	r14	
    bfe0:	3e 50 06 00 	add	#6,	r14	;#0x0006
    bfe4:	0f 41       	mov	r1,	r15	
    bfe6:	3f 50 62 01 	add	#354,	r15	;#0x0162
    bfea:	b0 12 1a e6 	call	#0xe61a	
    bfee:	2d 43       	mov	#2,	r13	;r3 As==10
    bff0:	0e 41       	mov	r1,	r14	
    bff2:	0f 41       	mov	r1,	r15	
    bff4:	3f 50 66 01 	add	#358,	r15	;#0x0166
    bff8:	b0 12 1a e6 	call	#0xe61a	
    bffc:	0a 41       	mov	r1,	r10	
    bffe:	3a 50 68 01 	add	#360,	r10	;#0x0168
    c002:	3b 40 34 00 	mov	#52,	r11	;#0x0034
    c006:	05 3c       	jmp	$+12     	;abs 0xc012
    c008:	0a 41       	mov	r1,	r10	
    c00a:	3a 50 60 01 	add	#352,	r10	;#0x0160
    c00e:	3b 40 2c 00 	mov	#44,	r11	;#0x002c
    c012:	c2 93 18 12 	tst.b	&0x1218	
    c016:	32 24       	jz	$+102    	;abs 0xc07c
    c018:	f1 42 ac 00 	mov.b	#8,	172(r1)	;r2 As==11, 0x00ac(r1)
    c01c:	f1 40 1e 00 ad 00 	mov.b	#30,	173(r1)	;#0x001e, 0x00ad(r1)
    c022:	d1 42 22 12 ae 00 	mov.b	&0x1222,174(r1)	;0x00ae(r1)
    c028:	f1 40 40 00 af 00 	mov.b	#64,	175(r1)	;#0x0040, 0x00af(r1)
    c02e:	f1 43 b3 00 	mov.b	#-1,	179(r1)	;r3 As==11, 0x00b3(r1)
    c032:	f1 43 b2 00 	mov.b	#-1,	178(r1)	;r3 As==11, 0x00b2(r1)
    c036:	f1 43 b1 00 	mov.b	#-1,	177(r1)	;r3 As==11, 0x00b1(r1)
    c03a:	f1 43 b0 00 	mov.b	#-1,	176(r1)	;r3 As==11, 0x00b0(r1)
    c03e:	f1 43 b7 00 	mov.b	#-1,	183(r1)	;r3 As==11, 0x00b7(r1)
    c042:	f1 43 b6 00 	mov.b	#-1,	182(r1)	;r3 As==11, 0x00b6(r1)
    c046:	f1 43 b5 00 	mov.b	#-1,	181(r1)	;r3 As==11, 0x00b5(r1)
    c04a:	f1 43 b4 00 	mov.b	#-1,	180(r1)	;r3 As==11, 0x00b4(r1)
    c04e:	81 43 b8 00 	mov	#0,	184(r1)	;r3 As==00, 0x00b8(r1)
    c052:	81 43 ba 00 	mov	#0,	186(r1)	;r3 As==00, 0x00ba(r1)
    c056:	3d 40 10 00 	mov	#16,	r13	;#0x0010
    c05a:	3e 40 7e 13 	mov	#4990,	r14	;#0x137e
    c05e:	0f 41       	mov	r1,	r15	
    c060:	3f 50 bc 00 	add	#188,	r15	;#0x00bc
    c064:	b0 12 80 e8 	call	#0xe880	
    c068:	3d 40 20 00 	mov	#32,	r13	;#0x0020
    c06c:	0e 41       	mov	r1,	r14	
    c06e:	3e 50 ac 00 	add	#172,	r14	;#0x00ac
    c072:	0f 4a       	mov	r10,	r15	
    c074:	b0 12 1a e6 	call	#0xe61a	
    c078:	3b 50 20 00 	add	#32,	r11	;#0x0020
    c07c:	0e 41       	mov	r1,	r14	
    c07e:	3e 50 34 01 	add	#308,	r14	;#0x0134
    c082:	81 4e 18 00 	mov	r14,	24(r1)	;0x0018(r1)
    c086:	81 4b 1a 00 	mov	r11,	26(r1)	;0x001a(r1)
    c08a:	81 43 1c 00 	mov	#0,	28(r1)	;r3 As==00, 0x001c(r1)
    c08e:	f1 40 3a 00 02 01 	mov.b	#58,	258(r1)	;#0x003a, 0x0102(r1)
    c094:	0f 4b       	mov	r11,	r15	
    c096:	8f 10       	swpb	r15		
    c098:	4f 4f       	mov.b	r15,	r15	
    c09a:	4b 4b       	mov.b	r11,	r11	
    c09c:	8b 10       	swpb	r11		
    c09e:	0b df       	bis	r15,	r11	
    c0a0:	81 4b 00 01 	mov	r11,	256(r1)	;0x0100(r1)
    c0a4:	0f 41       	mov	r1,	r15	
    c0a6:	3f 50 18 00 	add	#24,	r15	;#0x0018
    c0aa:	81 4f fa 00 	mov	r15,	250(r1)	;0x00fa(r1)
    c0ae:	c2 93 d0 11 	tst.b	&0x11d0	
    c0b2:	09 24       	jz	$+20     	;abs 0xc0c6
    c0b4:	c2 43 d0 11 	mov.b	#0,	&0x11d0	;r3 As==00
    c0b8:	3d 40 10 00 	mov	#16,	r13	;#0x0010
    c0bc:	3e 40 fe 24 	mov	#9470,	r14	;#0x24fe
    c0c0:	3f 50 fc 00 	add	#252,	r15	;#0x00fc
    c0c4:	07 3c       	jmp	$+16     	;abs 0xc0d4
    c0c6:	3d 40 10 00 	mov	#16,	r13	;#0x0010
    c0ca:	3e 40 32 12 	mov	#4658,	r14	;#0x1232
    c0ce:	0f 41       	mov	r1,	r15	
    c0d0:	3f 50 14 01 	add	#276,	r15	;#0x0114
    c0d4:	b0 12 80 e8 	call	#0xe880	
    c0d8:	0f 41       	mov	r1,	r15	
    c0da:	3f 50 04 01 	add	#260,	r15	;#0x0104
    c0de:	b0 12 b0 61 	call	#0x61b0	
    c0e2:	0f 41       	mov	r1,	r15	
    c0e4:	3f 50 f8 00 	add	#248,	r15	;#0x00f8
    c0e8:	b0 12 38 74 	call	#0x7438	
    c0ec:	30 40 24 c7 	br	#0xc724	
    c0f0:	c2 93 da 11 	tst.b	&0x11da	
    c0f4:	02 20       	jnz	$+6      	;abs 0xc0fa
    c0f6:	30 40 24 c7 	br	#0xc724	
    c0fa:	f1 40 9b ff 12 00 	mov.b	#-101,	18(r1)	;#0xff9b, 0x0012(r1)
    c100:	c1 43 13 00 	mov.b	#0,	19(r1)	;r3 As==00, 0x0013(r1)
    c104:	c1 43 15 00 	mov.b	#0,	21(r1)	;r3 As==00, 0x0015(r1)
    c108:	c1 43 14 00 	mov.b	#0,	20(r1)	;r3 As==00, 0x0014(r1)
    c10c:	c1 43 16 00 	mov.b	#0,	22(r1)	;r3 As==00, 0x0016(r1)
    c110:	c1 43 17 00 	mov.b	#0,	23(r1)	;r3 As==00, 0x0017(r1)
    c114:	f1 40 3a 00 3e 01 	mov.b	#58,	318(r1)	;#0x003a, 0x013e(r1)
    c11a:	b1 40 00 06 3c 01 	mov	#1536,	316(r1)	;#0x0600, 0x013c(r1)
    c120:	0e 41       	mov	r1,	r14	
    c122:	3e 50 12 00 	add	#18,	r14	;#0x0012
    c126:	81 4e 18 00 	mov	r14,	24(r1)	;0x0018(r1)
    c12a:	b1 40 06 00 1a 00 	mov	#6,	26(r1)	;#0x0006, 0x001a(r1)
    c130:	81 43 1c 00 	mov	#0,	28(r1)	;r3 As==00, 0x001c(r1)
    c134:	0f 41       	mov	r1,	r15	
    c136:	3f 50 18 00 	add	#24,	r15	;#0x0018
    c13a:	81 4f 36 01 	mov	r15,	310(r1)	;0x0136(r1)
    c13e:	3d 40 10 00 	mov	#16,	r13	;#0x0010
    c142:	3e 40 32 12 	mov	#4658,	r14	;#0x1232
    c146:	3f 50 38 01 	add	#312,	r15	;#0x0138
    c14a:	b0 12 80 e8 	call	#0xe880	
    c14e:	0f 41       	mov	r1,	r15	
    c150:	3f 50 40 01 	add	#320,	r15	;#0x0140
    c154:	b0 12 b0 61 	call	#0x61b0	
    c158:	0f 41       	mov	r1,	r15	
    c15a:	3f 50 34 01 	add	#308,	r15	;#0x0134
    c15e:	b0 12 38 74 	call	#0x7438	
    c162:	30 40 24 c7 	br	#0xc724	
    c166:	e2 43 7f 11 	mov.b	#2,	&0x117f	;r3 As==10
    c16a:	92 42 78 11 9e 11 	mov	&0x1178,&0x119e	
    c170:	3d 40 10 00 	mov	#16,	r13	;#0x0010
    c174:	0e 43       	clr	r14		
    c176:	3f 40 32 12 	mov	#4658,	r15	;#0x1232
    c17a:	b0 12 74 ea 	call	#0xea74	
    c17e:	f2 43 32 12 	mov.b	#-1,	&0x1232	;r3 As==11
    c182:	e2 43 33 12 	mov.b	#2,	&0x1233	;r3 As==10
    c186:	f2 40 1a 00 41 12 	mov.b	#26,	&0x1241	;#0x001a
    c18c:	c2 93 de 11 	tst.b	&0x11de	
    c190:	0a 24       	jz	$+22     	;abs 0xc1a6
    c192:	3f 40 ae 13 	mov	#5038,	r15	;#0x13ae
    c196:	b0 12 1a 48 	call	#0x481a	
    c19a:	7f 40 17 00 	mov.b	#23,	r15	;#0x0017
    c19e:	b0 12 8a 63 	call	#0x638a	
    c1a2:	30 40 24 c7 	br	#0xc724	
    c1a6:	3d 40 00 0c 	mov	#3072,	r13	;#0x0c00
    c1aa:	0e 43       	clr	r14		
    c1ac:	7f 40 05 00 	mov.b	#5,	r15	;#0x0005
    c1b0:	b0 12 f4 76 	call	#0x76f4	
    c1b4:	30 40 24 c7 	br	#0xc724	
    c1b8:	c2 93 de 11 	tst.b	&0x11de	
    c1bc:	02 20       	jnz	$+6      	;abs 0xc1c2
    c1be:	30 40 24 c7 	br	#0xc724	
    c1c2:	b0 12 2a 86 	call	#0x862a	
    c1c6:	30 40 24 c7 	br	#0xc724	
    c1ca:	1d 42 2e 13 	mov	&0x132e,r13	
    c1ce:	1e 42 30 13 	mov	&0x1330,r14	
    c1d2:	1d 82 fa 24 	sub	&0x24fa,r13	
    c1d6:	1e 72 fc 24 	subc	&0x24fc,r14	
    c1da:	d2 43 e0 11 	mov.b	#1,	&0x11e0	;r3 As==01
    c1de:	6f 42       	mov.b	#4,	r15	;r2 As==10
    c1e0:	b0 12 98 77 	call	#0x7798	
    c1e4:	30 40 24 c7 	br	#0xc724	
    c1e8:	c2 93 d8 11 	tst.b	&0x11d8	
    c1ec:	02 20       	jnz	$+6      	;abs 0xc1f2
    c1ee:	30 40 24 c7 	br	#0xc724	
    c1f2:	b0 12 a0 5f 	call	#0x5fa0	
    c1f6:	1f 92 9e 11 	cmp	&0x119e,r15	
    c1fa:	02 20       	jnz	$+6      	;abs 0xc200
    c1fc:	30 40 24 c7 	br	#0xc724	
    c200:	b0 12 2c 48 	call	#0x482c	
    c204:	0b 4f       	mov	r15,	r11	
    c206:	0f 93       	tst	r15		
    c208:	02 20       	jnz	$+6      	;abs 0xc20e
    c20a:	30 40 24 c7 	br	#0xc724	
    c20e:	ff 40 9b ff 2c 00 	mov.b	#-101,	44(r15)	;#0xff9b, 0x002c(r15)
    c214:	ef 43 2d 00 	mov.b	#2,	45(r15)	;r3 As==10, 0x002d(r15)
    c218:	cf 43 2f 00 	mov.b	#0,	47(r15)	;r3 As==00, 0x002f(r15)
    c21c:	cf 43 2e 00 	mov.b	#0,	46(r15)	;r3 As==00, 0x002e(r15)
    c220:	df 42 d6 11 30 00 	mov.b	&0x11d6,48(r15)	;0x0030(r15)
    c226:	ff 40 40 00 31 00 	mov.b	#64,	49(r15)	;#0x0040, 0x0031(r15)
    c22c:	cf 43 32 00 	mov.b	#0,	50(r15)	;r3 As==00, 0x0032(r15)
    c230:	df 42 cc 11 33 00 	mov.b	&0x11cc,51(r15)	;0x0033(r15)
    c236:	3d 40 10 00 	mov	#16,	r13	;#0x0010
    c23a:	3e 40 ae 13 	mov	#5038,	r14	;#0x13ae
    c23e:	3f 50 34 00 	add	#52,	r15	;#0x0034
    c242:	b0 12 80 e8 	call	#0xe880	
    c246:	fb 40 05 00 44 00 	mov.b	#5,	68(r11)	;#0x0005, 0x0044(r11)
    c24c:	fb 40 12 00 45 00 	mov.b	#18,	69(r11)	;#0x0012, 0x0045(r11)
    c252:	cb 43 46 00 	mov.b	#0,	70(r11)	;r3 As==00, 0x0046(r11)
    c256:	fb 40 80 ff 47 00 	mov.b	#-128,	71(r11)	;#0xff80, 0x0047(r11)
    c25c:	0f 4b       	mov	r11,	r15	
    c25e:	3f 50 48 00 	add	#72,	r15	;#0x0048
    c262:	b0 12 1a 48 	call	#0x481a	
    c266:	fb 40 06 00 58 00 	mov.b	#6,	88(r11)	;#0x0006, 0x0058(r11)
    c26c:	fb 40 14 00 59 00 	mov.b	#20,	89(r11)	;#0x0014, 0x0059(r11)
    c272:	cb 43 5a 00 	mov.b	#0,	90(r11)	;r3 As==00, 0x005a(r11)
    c276:	db 42 c8 11 5b 00 	mov.b	&0x11c8,91(r11)	;0x005b(r11)
    c27c:	db 42 ca 11 5c 00 	mov.b	&0x11ca,92(r11)	;0x005c(r11)
    c282:	fb 43 5d 00 	mov.b	#-1,	93(r11)	;r3 As==11, 0x005d(r11)
    c286:	c2 93 ea 11 	tst.b	&0x11ea	
    c28a:	33 24       	jz	$+104    	;abs 0xc2f2
    c28c:	5f 42 62 11 	mov.b	&0x1162,r15	
    c290:	02 12       	push	r2		
    c292:	32 c2       	dint			
    c294:	03 43       	nop			
    c296:	82 4f 32 01 	mov	r15,	&0x0132	
    c29a:	b2 40 18 00 38 01 	mov	#24,	&0x0138	;#0x0018
    c2a0:	1e 42 3a 01 	mov	&0x013a,r14	
    c2a4:	32 41       	pop	r2		
    c2a6:	3d 40 10 00 	mov	#16,	r13	;#0x0010
    c2aa:	3e 50 dc 13 	add	#5084,	r14	;#0x13dc
    c2ae:	0f 4b       	mov	r11,	r15	
    c2b0:	3f 50 5e 00 	add	#94,	r15	;#0x005e
    c2b4:	b0 12 1a e6 	call	#0xe61a	
    c2b8:	0e 4b       	mov	r11,	r14	
    c2ba:	3e 50 2c 00 	add	#44,	r14	;#0x002c
    c2be:	8b 4e 6e 00 	mov	r14,	110(r11);0x006e(r11)
    c2c2:	bb 40 42 00 70 00 	mov	#66,	112(r11);#0x0042, 0x0070(r11)
    c2c8:	8b 43 72 00 	mov	#0,	114(r11);r3 As==00, 0x0072(r11)
    c2cc:	fb 40 60 00 04 00 	mov.b	#96,	4(r11)	;#0x0060, 0x0004(r11)
    c2d2:	fb 40 3a 00 0a 00 	mov.b	#58,	10(r11)	;#0x003a, 0x000a(r11)
    c2d8:	bb 40 00 42 08 00 	mov	#16896,	8(r11)	;#0x4200, 0x0008(r11)
    c2de:	0f 4b       	mov	r11,	r15	
    c2e0:	3f 50 6e 00 	add	#110,	r15	;#0x006e
    c2e4:	8b 4f 02 00 	mov	r15,	2(r11)	;0x0002(r11)
    c2e8:	f2 90 05 00 be 11 	cmp.b	#5,	&0x11be	;#0x0005
    c2ee:	0b 2c       	jc	$+24     	;abs 0xc306
    c2f0:	05 3c       	jmp	$+12     	;abs 0xc2fc
    c2f2:	0f 4b       	mov	r11,	r15	
    c2f4:	b0 12 98 4f 	call	#0x4f98	
    c2f8:	30 40 24 c7 	br	#0xc724	
    c2fc:	0f 4b       	mov	r11,	r15	
    c2fe:	b0 12 c8 4f 	call	#0x4fc8	
    c302:	4f 93       	tst.b	r15		
    c304:	05 24       	jz	$+12     	;abs 0xc310
    c306:	0f 4b       	mov	r11,	r15	
    c308:	b0 12 98 4f 	call	#0x4f98	
    c30c:	30 40 24 c7 	br	#0xc724	
    c310:	e2 b3 30 1c 	bit.b	#2,	&0x1c30	;r3 As==10
    c314:	0f 43       	clr	r15		
    c316:	0f 6f       	rlc	r15		
    c318:	4f 93       	tst.b	r15		
    c31a:	02 24       	jz	$+6      	;abs 0xc320
    c31c:	30 40 24 c7 	br	#0xc724	
    c320:	1d 42 6c 11 	mov	&0x116c,r13	
    c324:	1e 42 6e 11 	mov	&0x116e,r14	
    c328:	7f 40 07 00 	mov.b	#7,	r15	;#0x0007
    c32c:	b0 12 98 77 	call	#0x7798	
    c330:	30 40 24 c7 	br	#0xc724	
    c334:	b0 12 a0 5f 	call	#0x5fa0	
    c338:	1f 92 9e 11 	cmp	&0x119e,r15	
    c33c:	02 20       	jnz	$+6      	;abs 0xc342
    c33e:	30 40 24 c7 	br	#0xc724	
    c342:	5e 42 be 11 	mov.b	&0x11be,r14	
    c346:	4e 93       	tst.b	r14		
    c348:	02 20       	jnz	$+6      	;abs 0xc34e
    c34a:	30 40 24 c7 	br	#0xc724	
    c34e:	c2 93 7f 11 	tst.b	&0x117f	
    c352:	02 20       	jnz	$+6      	;abs 0xc358
    c354:	30 40 24 c7 	br	#0xc724	
    c358:	5d 42 c2 11 	mov.b	&0x11c2,r13	
    c35c:	4f 4d       	mov.b	r13,	r15	
    c35e:	0f 5f       	rla	r15		
    c360:	1b 4f 4a 1d 	mov	7498(r15),r11	;0x1d4a(r15)
    c364:	4f 4d       	mov.b	r13,	r15	
    c366:	5f 53       	inc.b	r15		
    c368:	c2 4f c2 11 	mov.b	r15,	&0x11c2	
    c36c:	7f 90 05 00 	cmp.b	#5,	r15	;#0x0005
    c370:	02 20       	jnz	$+6      	;abs 0xc376
    c372:	c2 43 c2 11 	mov.b	#0,	&0x11c2	;r3 As==00
    c376:	7e 53       	add.b	#-1,	r14	;r3 As==11
    c378:	c2 4e be 11 	mov.b	r14,	&0x11be	
    c37c:	0f 4b       	mov	r11,	r15	
    c37e:	3f 50 0c 00 	add	#12,	r15	;#0x000c
    c382:	b0 12 b0 61 	call	#0x61b0	
    c386:	c2 93 ea 11 	tst.b	&0x11ea	
    c38a:	2c 24       	jz	$+90     	;abs 0xc3e4
    c38c:	5f 42 62 11 	mov.b	&0x1162,r15	
    c390:	02 12       	push	r2		
    c392:	32 c2       	dint			
    c394:	03 43       	nop			
    c396:	82 4f 32 01 	mov	r15,	&0x0132	
    c39a:	b2 40 18 00 38 01 	mov	#24,	&0x0138	;#0x0018
    c3a0:	1e 42 3a 01 	mov	&0x013a,r14	
    c3a4:	32 41       	pop	r2		
    c3a6:	3d 40 10 00 	mov	#16,	r13	;#0x0010
    c3aa:	3e 50 dc 13 	add	#5084,	r14	;#0x13dc
    c3ae:	0f 41       	mov	r1,	r15	
    c3b0:	3f 50 3e 00 	add	#62,	r15	;#0x003e
    c3b4:	b0 12 1a e6 	call	#0xe61a	
    c3b8:	3d 40 10 00 	mov	#16,	r13	;#0x0010
    c3bc:	0e 41       	mov	r1,	r14	
    c3be:	3e 50 3e 00 	add	#62,	r14	;#0x003e
    c3c2:	0f 4b       	mov	r11,	r15	
    c3c4:	3f 50 1c 00 	add	#28,	r15	;#0x001c
    c3c8:	b0 12 1a e6 	call	#0xe61a	
    c3cc:	0f 4b       	mov	r11,	r15	
    c3ce:	b0 12 38 74 	call	#0x7438	
    c3d2:	0f 4b       	mov	r11,	r15	
    c3d4:	b0 12 98 4f 	call	#0x4f98	
    c3d8:	c2 93 be 11 	tst.b	&0x11be	
    c3dc:	02 20       	jnz	$+6      	;abs 0xc3e2
    c3de:	30 40 24 c7 	br	#0xc724	
    c3e2:	05 3c       	jmp	$+12     	;abs 0xc3ee
    c3e4:	0f 4b       	mov	r11,	r15	
    c3e6:	b0 12 98 4f 	call	#0x4f98	
    c3ea:	30 40 24 c7 	br	#0xc724	
    c3ee:	7f 40 1a 00 	mov.b	#26,	r15	;#0x001a
    c3f2:	b0 12 8a 63 	call	#0x638a	
    c3f6:	30 40 24 c7 	br	#0xc724	
    c3fa:	c2 93 2e 1d 	tst.b	&0x1d2e	
    c3fe:	02 24       	jz	$+6      	;abs 0xc404
    c400:	30 40 24 c7 	br	#0xc724	
    c404:	b0 12 ec 94 	call	#0x94ec	
    c408:	30 40 24 c7 	br	#0xc724	
    c40c:	b0 12 b2 5f 	call	#0x5fb2	
    c410:	e2 43 b8 11 	mov.b	#2,	&0x11b8	;r3 As==10
    c414:	b0 12 c4 5f 	call	#0x5fc4	
    c418:	5f 42 0a 11 	mov.b	&0x110a,r15	
    c41c:	4f 93       	tst.b	r15		
    c41e:	05 24       	jz	$+12     	;abs 0xc42a
    c420:	5f 93       	cmp.b	#1,	r15	;r3 As==01
    c422:	02 24       	jz	$+6      	;abs 0xc428
    c424:	30 40 24 c7 	br	#0xc724	
    c428:	05 3c       	jmp	$+12     	;abs 0xc434
    c42a:	4f 43       	clr.b	r15		
    c42c:	b0 12 de 9e 	call	#0x9ede	
    c430:	30 40 24 c7 	br	#0xc724	
    c434:	5f 43       	mov.b	#1,	r15	;r3 As==01
    c436:	b0 12 de 9e 	call	#0x9ede	
    c43a:	30 40 24 c7 	br	#0xc724	
    c43e:	f2 93 09 11 	cmp.b	#-1,	&0x1109	;r3 As==11
    c442:	02 20       	jnz	$+6      	;abs 0xc448
    c444:	30 40 24 c7 	br	#0xc724	
    c448:	c2 93 3c 24 	tst.b	&0x243c	
    c44c:	03 24       	jz	$+8      	;abs 0xc454
    c44e:	3f 40 06 00 	mov	#6,	r15	;#0x0006
    c452:	02 3c       	jmp	$+6      	;abs 0xc458
    c454:	3f 40 05 00 	mov	#5,	r15	;#0x0005
    c458:	b0 12 3e 96 	call	#0x963e	
    c45c:	4f 93       	tst.b	r15		
    c45e:	04 20       	jnz	$+10     	;abs 0xc468
    c460:	f2 43 09 11 	mov.b	#-1,	&0x1109	;r3 As==11
    c464:	30 40 24 c7 	br	#0xc724	
    c468:	7f 40 1d 00 	mov.b	#29,	r15	;#0x001d
    c46c:	b0 12 8a 63 	call	#0x638a	
    c470:	30 40 24 c7 	br	#0xc724	
    c474:	5b 42 08 11 	mov.b	&0x1108,r11	
    c478:	b0 12 b2 5f 	call	#0x5fb2	
    c47c:	4e 4b       	mov.b	r11,	r14	
    c47e:	0e 5e       	rla	r14		
    c480:	0d 4e       	mov	r14,	r13	
    c482:	3d 50 14 13 	add	#4884,	r13	;#0x1314
    c486:	8d 43 00 00 	mov	#0,	0(r13)	;r3 As==00, 0x0000(r13)
    c48a:	8e 4d f8 24 	mov	r13,	9464(r14);0x24f8(r14)
    c48e:	b0 12 c4 5f 	call	#0x5fc4	
    c492:	d2 43 08 11 	mov.b	#1,	&0x1108	;r3 As==01
    c496:	4e 43       	clr.b	r14		
    c498:	4f 4b       	mov.b	r11,	r15	
    c49a:	b0 12 d2 95 	call	#0x95d2	
    c49e:	30 40 24 c7 	br	#0xc724	
    c4a2:	5a 42 08 11 	mov.b	&0x1108,r10	
    c4a6:	b0 12 b2 5f 	call	#0x5fb2	
    c4aa:	49 4a       	mov.b	r10,	r9	
    c4ac:	0d 49       	mov	r9,	r13	
    c4ae:	0d 5d       	rla	r13		
    c4b0:	1b 4d 14 13 	mov	4884(r13),r11	;0x1314(r13)
    c4b4:	b0 12 c4 5f 	call	#0x5fc4	
    c4b8:	02 3c       	jmp	$+6      	;abs 0xc4be
    c4ba:	1b 4b 02 00 	mov	2(r11),	r11	;0x0002(r11)
    c4be:	0b 93       	tst	r11		
    c4c0:	fc 23       	jnz	$-6      	;abs 0xc4ba
    c4c2:	b0 12 b2 5f 	call	#0x5fb2	
    c4c6:	0e 49       	mov	r9,	r14	
    c4c8:	0e 5e       	rla	r14		
    c4ca:	8e 43 14 13 	mov	#0,	4884(r14);r3 As==00, 0x1314(r14)
    c4ce:	4d 4a       	mov.b	r10,	r13	
    c4d0:	0d 5d       	rla	r13		
    c4d2:	3d 50 14 13 	add	#4884,	r13	;#0x1314
    c4d6:	8e 4d f8 24 	mov	r13,	9464(r14);0x24f8(r14)
    c4da:	b0 12 c4 5f 	call	#0x5fc4	
    c4de:	d2 43 08 11 	mov.b	#1,	&0x1108	;r3 As==01
    c4e2:	5e 43       	mov.b	#1,	r14	;r3 As==01
    c4e4:	4f 4a       	mov.b	r10,	r15	
    c4e6:	b0 12 d2 95 	call	#0x95d2	
    c4ea:	30 40 24 c7 	br	#0xc724	
    c4ee:	b0 12 b2 5f 	call	#0x5fb2	
    c4f2:	82 43 de 15 	mov	#0,	&0x15de	;r3 As==00
    c4f6:	b0 12 c4 5f 	call	#0x5fc4	
    c4fa:	30 40 24 c7 	br	#0xc724	
    c4fe:	b2 90 05 00 98 18 	cmp	#5,	&0x1898	;#0x0005
    c504:	02 28       	jnc	$+6      	;abs 0xc50a
    c506:	30 40 24 c7 	br	#0xc724	
    c50a:	1f 42 98 18 	mov	&0x1898,r15	
    c50e:	0f 5f       	rla	r15		
    c510:	5b 42 64 12 	mov.b	&0x1264,r11	
    c514:	10 4f b6 f7 	br	-2122(r15)	;0xf7b6(r15)
    c518:	4b 93       	tst.b	r11		
    c51a:	02 24       	jz	$+6      	;abs 0xc520
    c51c:	30 40 24 c7 	br	#0xc724	
    c520:	b0 12 0c a6 	call	#0xa60c	
    c524:	30 40 24 c7 	br	#0xc724	
    c528:	5e 42 ce 13 	mov.b	&0x13ce,r14	
    c52c:	1c 42 fa 23 	mov	&0x23fa,r12	
    c530:	1d 42 fc 23 	mov	&0x23fc,r13	
    c534:	1a 42 08 26 	mov	&0x2608,r10	
    c538:	4b 93       	tst.b	r11		
    c53a:	02 24       	jz	$+6      	;abs 0xc540
    c53c:	30 40 24 c7 	br	#0xc724	
    c540:	5f 42 6c 12 	mov.b	&0x126c,r15	
    c544:	6f 93       	cmp.b	#2,	r15	;r3 As==10
    c546:	14 24       	jz	$+42     	;abs 0xc570
    c548:	7f 90 03 00 	cmp.b	#3,	r15	;#0x0003
    c54c:	05 2c       	jc	$+12     	;abs 0xc558
    c54e:	5f 93       	cmp.b	#1,	r15	;r3 As==01
    c550:	02 24       	jz	$+6      	;abs 0xc556
    c552:	30 40 24 c7 	br	#0xc724	
    c556:	08 3c       	jmp	$+18     	;abs 0xc568
    c558:	7f 90 03 00 	cmp.b	#3,	r15	;#0x0003
    c55c:	0d 24       	jz	$+28     	;abs 0xc578
    c55e:	6f 92       	cmp.b	#4,	r15	;r2 As==10
    c560:	02 24       	jz	$+6      	;abs 0xc566
    c562:	30 40 24 c7 	br	#0xc724	
    c566:	17 3c       	jmp	$+48     	;abs 0xc596
    c568:	4f 43       	clr.b	r15		
    c56a:	b0 12 7e a1 	call	#0xa17e	
    c56e:	da 3c       	jmp	$+438    	;abs 0xc724
    c570:	4f 43       	clr.b	r15		
    c572:	b0 12 5e a0 	call	#0xa05e	
    c576:	d6 3c       	jmp	$+430    	;abs 0xc724
    c578:	1e 42 52 12 	mov	&0x1252,r14	
    c57c:	0f 43       	clr	r15		
    c57e:	c2 93 56 12 	tst.b	&0x1256	
    c582:	02 20       	jnz	$+6      	;abs 0xc588
    c584:	0e 53       	add	#0,	r14	;r3 As==00
    c586:	1f 63       	addc	#1,	r15	;r3 As==01
    c588:	0d 12       	push	r13		
    c58a:	0c 12       	push	r12		
    c58c:	0d 4a       	mov	r10,	r13	
    c58e:	b0 12 4c 8e 	call	#0x8e4c	
    c592:	21 52       	add	#4,	r1	;r2 As==10
    c594:	c7 3c       	jmp	$+400    	;abs 0xc724
    c596:	5b 42 aa 13 	mov.b	&0x13aa,r11	
    c59a:	8b 10       	swpb	r11		
    c59c:	0e 4b       	mov	r11,	r14	
    c59e:	1e 52 2c 13 	add	&0x132c,r14	
    c5a2:	0f 43       	clr	r15		
    c5a4:	c2 93 56 12 	tst.b	&0x1256	
    c5a8:	02 20       	jnz	$+6      	;abs 0xc5ae
    c5aa:	0e 53       	add	#0,	r14	;r3 As==00
    c5ac:	1f 63       	addc	#1,	r15	;r3 As==01
    c5ae:	0d 12       	push	r13		
    c5b0:	0c 12       	push	r12		
    c5b2:	0d 4a       	mov	r10,	r13	
    c5b4:	b0 12 4c 8e 	call	#0x8e4c	
    c5b8:	21 52       	add	#4,	r1	;r2 As==10
    c5ba:	b4 3c       	jmp	$+362    	;abs 0xc724
    c5bc:	19 42 40 24 	mov	&0x2440,r9	
    c5c0:	1c 42 96 1c 	mov	&0x1c96,r12	
    c5c4:	1d 42 98 1c 	mov	&0x1c98,r13	
    c5c8:	4b 93       	tst.b	r11		
    c5ca:	ac 20       	jnz	$+346    	;abs 0xc724
    c5cc:	d2 93 6c 12 	cmp.b	#1,	&0x126c	;r3 As==01
    c5d0:	12 20       	jnz	$+38     	;abs 0xc5f6
    c5d2:	4f 4d       	mov.b	r13,	r15	
    c5d4:	0e 4f       	mov	r15,	r14	
    c5d6:	0e 5e       	rla	r14		
    c5d8:	0f 5e       	add	r14,	r15	
    c5da:	0f 5f       	rla	r15		
    c5dc:	3f 50 14 26 	add	#9748,	r15	;#0x2614
    c5e0:	19 9f 04 00 	cmp	4(r15),	r9	;0x0004(r15)
    c5e4:	04 24       	jz	$+10     	;abs 0xc5ee
    c5e6:	bf 43 00 00 	mov	#-1,	0(r15)	;r3 As==11, 0x0000(r15)
    c5ea:	bf 43 02 00 	mov	#-1,	2(r15)	;r3 As==11, 0x0002(r15)
    c5ee:	4f 43       	clr.b	r15		
    c5f0:	b0 12 7e a1 	call	#0xa17e	
    c5f4:	97 3c       	jmp	$+304    	;abs 0xc724
    c5f6:	5a 42 56 12 	mov.b	&0x1256,r10	
    c5fa:	1f 42 54 12 	mov	&0x1254,r15	
    c5fe:	1f 53       	inc	r15		
    c600:	82 4f 54 12 	mov	r15,	&0x1254	
    c604:	1b 43       	mov	#1,	r11	;r3 As==01
    c606:	4a 93       	tst.b	r10		
    c608:	01 24       	jz	$+4      	;abs 0xc60c
    c60a:	0b 43       	clr	r11		
    c60c:	0e 4b       	mov	r11,	r14	
    c60e:	0e 5e       	rla	r14		
    c610:	0e 5b       	add	r11,	r14	
    c612:	0e 5e       	rla	r14		
    c614:	3e 50 14 26 	add	#9748,	r14	;#0x2614
    c618:	8e 4f 00 00 	mov	r15,	0(r14)	;0x0000(r14)
    c61c:	8f 10       	swpb	r15		
    c61e:	8f 11       	sxt	r15		
    c620:	8f 10       	swpb	r15		
    c622:	8f 11       	sxt	r15		
    c624:	8e 4f 02 00 	mov	r15,	2(r14)	;0x0002(r14)
    c628:	8e 49 04 00 	mov	r9,	4(r14)	;0x0004(r14)
    c62c:	0e 4c       	mov	r12,	r14	
    c62e:	0f 4d       	mov	r13,	r15	
    c630:	3e 50 fa ff 	add	#-6,	r14	;#0xfffa
    c634:	0f 63       	adc	r15		
    c636:	4a 93       	tst.b	r10		
    c638:	03 20       	jnz	$+8      	;abs 0xc640
    c63a:	3d 40 1a 26 	mov	#9754,	r13	;#0x261a
    c63e:	02 3c       	jmp	$+6      	;abs 0xc644
    c640:	3d 40 14 26 	mov	#9748,	r13	;#0x2614
    c644:	03 12       	push	#0		;r3 As==00
    c646:	30 12 06 00 	push	#6		;#0x0006
    c64a:	b0 12 4c 8e 	call	#0x8e4c	
    c64e:	21 52       	add	#4,	r1	;r2 As==10
    c650:	69 3c       	jmp	$+212    	;abs 0xc724
    c652:	1f 42 fa 23 	mov	&0x23fa,r15	
    c656:	4b 93       	tst.b	r11		
    c658:	65 20       	jnz	$+204    	;abs 0xc724
    c65a:	5e 42 6c 12 	mov.b	&0x126c,r14	
    c65e:	7e 90 03 00 	cmp.b	#3,	r14	;#0x0003
    c662:	03 24       	jz	$+8      	;abs 0xc66a
    c664:	6e 92       	cmp.b	#4,	r14	;r2 As==10
    c666:	5e 20       	jnz	$+190    	;abs 0xc724
    c668:	08 3c       	jmp	$+18     	;abs 0xc67a
    c66a:	82 5f 52 12 	add	r15,	&0x1252	
    c66e:	82 5f 2c 13 	add	r15,	&0x132c	
    c672:	4f 43       	clr.b	r15		
    c674:	b0 12 a0 a3 	call	#0xa3a0	
    c678:	55 3c       	jmp	$+172    	;abs 0xc724
    c67a:	82 5f 2c 13 	add	r15,	&0x132c	
    c67e:	4f 43       	clr.b	r15		
    c680:	b0 12 e2 a4 	call	#0xa4e2	
    c684:	4f 3c       	jmp	$+160    	;abs 0xc724
    c686:	4b 93       	tst.b	r11		
    c688:	4d 20       	jnz	$+156    	;abs 0xc724
    c68a:	4f 43       	clr.b	r15		
    c68c:	d2 93 6c 12 	cmp.b	#1,	&0x126c	;r3 As==01
    c690:	03 20       	jnz	$+8      	;abs 0xc698
    c692:	b0 12 7e a1 	call	#0xa17e	
    c696:	46 3c       	jmp	$+142    	;abs 0xc724
    c698:	b0 12 e2 a4 	call	#0xa4e2	
    c69c:	43 3c       	jmp	$+136    	;abs 0xc724
    c69e:	b0 12 b2 5f 	call	#0x5fb2	
    c6a2:	d2 42 c0 15 00 11 	mov.b	&0x15c0,&0x1100	
    c6a8:	f2 40 03 00 b6 11 	mov.b	#3,	&0x11b6	;#0x0003
    c6ae:	b0 12 c4 5f 	call	#0x5fc4	
    c6b2:	d2 42 00 11 64 12 	mov.b	&0x1100,&0x1264	
    c6b8:	5f 43       	mov.b	#1,	r15	;r3 As==01
    c6ba:	b0 12 a2 83 	call	#0x83a2	
    c6be:	32 3c       	jmp	$+102    	;abs 0xc724
    c6c0:	f2 f0 fd ff 94 1c 	and.b	#-3,	&0x1c94	;#0xfffd
    c6c6:	c2 43 b0 11 	mov.b	#0,	&0x11b0	;r3 As==00
    c6ca:	5f 43       	mov.b	#1,	r15	;r3 As==01
    c6cc:	b0 12 a2 83 	call	#0x83a2	
    c6d0:	4f 93       	tst.b	r15		
    c6d2:	03 20       	jnz	$+8      	;abs 0xc6da
    c6d4:	92 43 c4 15 	mov	#1,	&0x15c4	;r3 As==01
    c6d8:	25 3c       	jmp	$+76     	;abs 0xc724
    c6da:	7f 90 09 00 	cmp.b	#9,	r15	;#0x0009
    c6de:	22 20       	jnz	$+70     	;abs 0xc724
    c6e0:	b0 12 d8 92 	call	#0x92d8	
    c6e4:	1f 3c       	jmp	$+64     	;abs 0xc724
    c6e6:	3d 40 00 04 	mov	#1024,	r13	;#0x0400
    c6ea:	0e 43       	clr	r14		
    c6ec:	7f 40 11 00 	mov.b	#17,	r15	;#0x0011
    c6f0:	b0 12 98 77 	call	#0x7798	
    c6f4:	17 3c       	jmp	$+48     	;abs 0xc724
    c6f6:	d2 43 20 1d 	mov.b	#1,	&0x1d20	;r3 As==01
    c6fa:	14 3c       	jmp	$+42     	;abs 0xc724
    c6fc:	81 49 10 00 	mov	r9,	16(r1)	;0x0010(r1)
    c700:	46 48       	mov.b	r8,	r6	
    c702:	c1 48 0f 00 	mov.b	r8,	15(r1)	;0x000f(r1)
    c706:	0f 41       	mov	r1,	r15	
    c708:	3f 50 0e 00 	add	#14,	r15	;#0x000e
    c70c:	b0 12 86 49 	call	#0x4986	
    c710:	4e 4f       	mov.b	r15,	r14	
    c712:	c1 4f 0e 00 	mov.b	r15,	14(r1)	;0x000e(r1)
    c716:	7e 90 10 00 	cmp.b	#16,	r14	;#0x0010
    c71a:	02 24       	jz	$+6      	;abs 0xc720
    c71c:	30 40 60 bc 	br	#0xbc60	
    c720:	30 40 1c be 	br	#0xbe1c	
    c724:	31 50 b2 01 	add	#434,	r1	;#0x01b2
    c728:	34 41       	pop	r4		
    c72a:	35 41       	pop	r5		
    c72c:	36 41       	pop	r6		
    c72e:	37 41       	pop	r7		
    c730:	38 41       	pop	r8		
    c732:	39 41       	pop	r9		
    c734:	3a 41       	pop	r10		
    c736:	3b 41       	pop	r11		
    c738:	30 41       	ret			

0000c73a <RealMainP__Scheduler__runNextTask>:
    c73a:	f2 93 f7 24 	cmp.b	#-1,	&0x24f7	;r3 As==11
    c73e:	08 24       	jz	$+18     	;abs 0xc750
    c740:	b0 12 fe 4e 	call	#0x4efe	
    c744:	7f 93       	cmp.b	#-1,	r15	;r3 As==11
    c746:	06 24       	jz	$+14     	;abs 0xc754
    c748:	b0 12 f6 b1 	call	#0xb1f6	
    c74c:	5f 43       	mov.b	#1,	r15	;r3 As==01
    c74e:	30 41       	ret			
    c750:	4f 43       	clr.b	r15		
    c752:	30 41       	ret			
    c754:	4f 43       	clr.b	r15		
    c756:	30 41       	ret			

0000c758 <sig_TIMERA0_VECTOR>:
    c758:	0f 12       	push	r15		
    c75a:	0e 12       	push	r14		
    c75c:	0d 12       	push	r13		
    c75e:	0c 12       	push	r12		
    c760:	4f 43       	clr.b	r15		
    c762:	b0 12 1c 4f 	call	#0x4f1c	
    c766:	3c 41       	pop	r12		
    c768:	3d 41       	pop	r13		
    c76a:	3e 41       	pop	r14		
    c76c:	3f 41       	pop	r15		
    c76e:	b1 c0 f0 00 00 00 	bic	#240,	0(r1)	;#0x00f0, 0x0000(r1)
    c774:	00 13       	reti			

0000c776 <sig_TIMERA1_VECTOR>:
    c776:	0f 12       	push	r15		
    c778:	0e 12       	push	r14		
    c77a:	0d 12       	push	r13		
    c77c:	0c 12       	push	r12		
    c77e:	1f 42 2e 01 	mov	&0x012e,r15	
    c782:	4f 4f       	mov.b	r15,	r15	
    c784:	12 c3       	clrc			
    c786:	4f 10       	rrc.b	r15		
    c788:	b0 12 1c 4f 	call	#0x4f1c	
    c78c:	3c 41       	pop	r12		
    c78e:	3d 41       	pop	r13		
    c790:	3e 41       	pop	r14		
    c792:	3f 41       	pop	r15		
    c794:	b1 c0 f0 00 00 00 	bic	#240,	0(r1)	;#0x00f0, 0x0000(r1)
    c79a:	00 13       	reti			

0000c79c <sig_TIMERB0_VECTOR>:
    c79c:	0f 12       	push	r15		
    c79e:	0e 12       	push	r14		
    c7a0:	0d 12       	push	r13		
    c7a2:	0c 12       	push	r12		
    c7a4:	4f 43       	clr.b	r15		
    c7a6:	b0 12 4e ae 	call	#0xae4e	
    c7aa:	3c 41       	pop	r12		
    c7ac:	3d 41       	pop	r13		
    c7ae:	3e 41       	pop	r14		
    c7b0:	3f 41       	pop	r15		
    c7b2:	b1 c0 f0 00 00 00 	bic	#240,	0(r1)	;#0x00f0, 0x0000(r1)
    c7b8:	00 13       	reti			

0000c7ba <sig_TIMERB1_VECTOR>:
    c7ba:	0f 12       	push	r15		
    c7bc:	0e 12       	push	r14		
    c7be:	0d 12       	push	r13		
    c7c0:	0c 12       	push	r12		
    c7c2:	1f 42 1e 01 	mov	&0x011e,r15	
    c7c6:	4f 4f       	mov.b	r15,	r15	
    c7c8:	12 c3       	clrc			
    c7ca:	4f 10       	rrc.b	r15		
    c7cc:	b0 12 4e ae 	call	#0xae4e	
    c7d0:	3c 41       	pop	r12		
    c7d2:	3d 41       	pop	r13		
    c7d4:	3e 41       	pop	r14		
    c7d6:	3f 41       	pop	r15		
    c7d8:	b1 c0 f0 00 00 00 	bic	#240,	0(r1)	;#0x00f0, 0x0000(r1)
    c7de:	00 13       	reti			

0000c7e0 <sig_PORT1_VECTOR>:
    c7e0:	0f 12       	push	r15		
    c7e2:	0e 12       	push	r14		
    c7e4:	0d 12       	push	r13		
    c7e6:	0c 12       	push	r12		
    c7e8:	21 83       	decd	r1		
    c7ea:	5e 42 23 00 	mov.b	&0x0023,r14	
    c7ee:	5f 42 25 00 	mov.b	&0x0025,r15	
    c7f2:	4f fe       	and.b	r14,	r15	
    c7f4:	4f 4f       	mov.b	r15,	r15	
    c7f6:	81 4f 00 00 	mov	r15,	0(r1)	;0x0000(r1)
    c7fa:	91 b3 00 00 	bit	#1,	0(r1)	;r3 As==01, 0x0000(r1)
    c7fe:	0e 24       	jz	$+30     	;abs 0xc81c
    c800:	f2 f0 fe ff 23 00 	and.b	#-2,	&0x0023	;#0xfffe
    c806:	92 93 6a 13 	cmp	#1,	&0x136a	;r3 As==01
    c80a:	05 20       	jnz	$+12     	;abs 0xc816
    c80c:	a2 43 6a 13 	mov	#2,	&0x136a	;r3 As==10
    c810:	b0 12 98 a8 	call	#0xa898	
    c814:	56 3c       	jmp	$+174    	;abs 0xc8c2
    c816:	d2 53 92 13 	inc.b	&0x1392	
    c81a:	53 3c       	jmp	$+168    	;abs 0xc8c2
    c81c:	a1 b3 00 00 	bit	#2,	0(r1)	;r3 As==10, 0x0000(r1)
    c820:	05 24       	jz	$+12     	;abs 0xc82c
    c822:	5f 42 23 00 	mov.b	&0x0023,r15	
    c826:	7f f0 fd ff 	and.b	#-3,	r15	;#0xfffd
    c82a:	49 3c       	jmp	$+148    	;abs 0xc8be
    c82c:	a1 b2 00 00 	bit	#4,	0(r1)	;r2 As==10, 0x0000(r1)
    c830:	05 24       	jz	$+12     	;abs 0xc83c
    c832:	5f 42 23 00 	mov.b	&0x0023,r15	
    c836:	7f f0 fb ff 	and.b	#-5,	r15	;#0xfffb
    c83a:	41 3c       	jmp	$+132    	;abs 0xc8be
    c83c:	b1 b2 00 00 	bit	#8,	0(r1)	;r2 As==11, 0x0000(r1)
    c840:	05 24       	jz	$+12     	;abs 0xc84c
    c842:	5f 42 23 00 	mov.b	&0x0023,r15	
    c846:	7f f0 f7 ff 	and.b	#-9,	r15	;#0xfff7
    c84a:	39 3c       	jmp	$+116    	;abs 0xc8be
    c84c:	b1 b0 10 00 00 00 	bit	#16,	0(r1)	;#0x0010, 0x0000(r1)
    c852:	1b 24       	jz	$+56     	;abs 0xc88a
    c854:	f2 f0 ef ff 23 00 	and.b	#-17,	&0x0023	;#0xffef
    c85a:	a2 42 04 12 	mov	#4,	&0x1204	;r2 As==10
    c85e:	f2 f0 ef ff 25 00 	and.b	#-17,	&0x0025	;#0xffef
    c864:	f2 f0 ef ff 23 00 	and.b	#-17,	&0x0023	;#0xffef
    c86a:	0e 43       	clr	r14		
    c86c:	7f 40 1d 00 	mov.b	#29,	r15	;#0x001d
    c870:	b0 12 54 90 	call	#0x9054	
    c874:	b0 12 10 91 	call	#0x9110	
    c878:	b0 12 c2 83 	call	#0x83c2	
    c87c:	b0 12 e0 80 	call	#0x80e0	
    c880:	7f 40 0d 00 	mov.b	#13,	r15	;#0x000d
    c884:	b0 12 8a 63 	call	#0x638a	
    c888:	1c 3c       	jmp	$+58     	;abs 0xc8c2
    c88a:	b1 b0 20 00 00 00 	bit	#32,	0(r1)	;#0x0020, 0x0000(r1)
    c890:	05 24       	jz	$+12     	;abs 0xc89c
    c892:	5f 42 23 00 	mov.b	&0x0023,r15	
    c896:	7f f0 df ff 	and.b	#-33,	r15	;#0xffdf
    c89a:	11 3c       	jmp	$+36     	;abs 0xc8be
    c89c:	b1 b0 40 00 00 00 	bit	#64,	0(r1)	;#0x0040, 0x0000(r1)
    c8a2:	05 24       	jz	$+12     	;abs 0xc8ae
    c8a4:	5f 42 23 00 	mov.b	&0x0023,r15	
    c8a8:	7f f0 bf ff 	and.b	#-65,	r15	;#0xffbf
    c8ac:	08 3c       	jmp	$+18     	;abs 0xc8be
    c8ae:	b1 b0 80 00 00 00 	bit	#128,	0(r1)	;#0x0080, 0x0000(r1)
    c8b4:	06 24       	jz	$+14     	;abs 0xc8c2
    c8b6:	5f 42 23 00 	mov.b	&0x0023,r15	
    c8ba:	7f f0 7f 00 	and.b	#127,	r15	;#0x007f
    c8be:	c2 4f 23 00 	mov.b	r15,	&0x0023	
    c8c2:	21 53       	incd	r1		
    c8c4:	3c 41       	pop	r12		
    c8c6:	3d 41       	pop	r13		
    c8c8:	3e 41       	pop	r14		
    c8ca:	3f 41       	pop	r15		
    c8cc:	b1 c0 f0 00 00 00 	bic	#240,	0(r1)	;#0x00f0, 0x0000(r1)
    c8d2:	00 13       	reti			

0000c8d4 <sig_PORT2_VECTOR>:
    c8d4:	0f 12       	push	r15		
    c8d6:	0e 12       	push	r14		
    c8d8:	21 83       	decd	r1		
    c8da:	5e 42 2b 00 	mov.b	&0x002b,r14	
    c8de:	5f 42 2d 00 	mov.b	&0x002d,r15	
    c8e2:	4f fe       	and.b	r14,	r15	
    c8e4:	4f 4f       	mov.b	r15,	r15	
    c8e6:	81 4f 00 00 	mov	r15,	0(r1)	;0x0000(r1)
    c8ea:	91 b3 00 00 	bit	#1,	0(r1)	;r3 As==01, 0x0000(r1)
    c8ee:	05 24       	jz	$+12     	;abs 0xc8fa
    c8f0:	5f 42 2b 00 	mov.b	&0x002b,r15	
    c8f4:	7f f0 fe ff 	and.b	#-2,	r15	;#0xfffe
    c8f8:	3b 3c       	jmp	$+120    	;abs 0xc970
    c8fa:	a1 b3 00 00 	bit	#2,	0(r1)	;r3 As==10, 0x0000(r1)
    c8fe:	05 24       	jz	$+12     	;abs 0xc90a
    c900:	5f 42 2b 00 	mov.b	&0x002b,r15	
    c904:	7f f0 fd ff 	and.b	#-3,	r15	;#0xfffd
    c908:	33 3c       	jmp	$+104    	;abs 0xc970
    c90a:	a1 b2 00 00 	bit	#4,	0(r1)	;r2 As==10, 0x0000(r1)
    c90e:	05 24       	jz	$+12     	;abs 0xc91a
    c910:	5f 42 2b 00 	mov.b	&0x002b,r15	
    c914:	7f f0 fb ff 	and.b	#-5,	r15	;#0xfffb
    c918:	2b 3c       	jmp	$+88     	;abs 0xc970
    c91a:	b1 b2 00 00 	bit	#8,	0(r1)	;r2 As==11, 0x0000(r1)
    c91e:	05 24       	jz	$+12     	;abs 0xc92a
    c920:	5f 42 2b 00 	mov.b	&0x002b,r15	
    c924:	7f f0 f7 ff 	and.b	#-9,	r15	;#0xfff7
    c928:	23 3c       	jmp	$+72     	;abs 0xc970
    c92a:	b1 b0 10 00 00 00 	bit	#16,	0(r1)	;#0x0010, 0x0000(r1)
    c930:	05 24       	jz	$+12     	;abs 0xc93c
    c932:	5f 42 2b 00 	mov.b	&0x002b,r15	
    c936:	7f f0 ef ff 	and.b	#-17,	r15	;#0xffef
    c93a:	1a 3c       	jmp	$+54     	;abs 0xc970
    c93c:	b1 b0 20 00 00 00 	bit	#32,	0(r1)	;#0x0020, 0x0000(r1)
    c942:	05 24       	jz	$+12     	;abs 0xc94e
    c944:	5f 42 2b 00 	mov.b	&0x002b,r15	
    c948:	7f f0 df ff 	and.b	#-33,	r15	;#0xffdf
    c94c:	11 3c       	jmp	$+36     	;abs 0xc970
    c94e:	b1 b0 40 00 00 00 	bit	#64,	0(r1)	;#0x0040, 0x0000(r1)
    c954:	05 24       	jz	$+12     	;abs 0xc960
    c956:	5f 42 2b 00 	mov.b	&0x002b,r15	
    c95a:	7f f0 bf ff 	and.b	#-65,	r15	;#0xffbf
    c95e:	08 3c       	jmp	$+18     	;abs 0xc970
    c960:	b1 b0 80 00 00 00 	bit	#128,	0(r1)	;#0x0080, 0x0000(r1)
    c966:	06 24       	jz	$+14     	;abs 0xc974
    c968:	5f 42 2b 00 	mov.b	&0x002b,r15	
    c96c:	7f f0 7f 00 	and.b	#127,	r15	;#0x007f
    c970:	c2 4f 2b 00 	mov.b	r15,	&0x002b	
    c974:	21 53       	incd	r1		
    c976:	3e 41       	pop	r14		
    c978:	3f 41       	pop	r15		
    c97a:	b1 c0 f0 00 00 00 	bic	#240,	0(r1)	;#0x00f0, 0x0000(r1)
    c980:	00 13       	reti			

0000c982 <sig_UART0RX_VECTOR>:
    c982:	0f 12       	push	r15		
    c984:	0e 12       	push	r14		
    c986:	0d 12       	push	r13		
    c988:	0c 12       	push	r12		
    c98a:	5f 42 76 00 	mov.b	&0x0076,r15	
    c98e:	5e 42 00 12 	mov.b	&0x1200,r14	
    c992:	4e 93       	tst.b	r14		
    c994:	0d 24       	jz	$+28     	;abs 0xc9b0
    c996:	09 3c       	jmp	$+20     	;abs 0xc9aa
    c998:	5e 42 96 11 	mov.b	&0x1196,r14	
    c99c:	4e 93       	tst.b	r14		
    c99e:	02 24       	jz	$+6      	;abs 0xc9a4
    c9a0:	5e 93       	cmp.b	#1,	r14	;r3 As==01
    c9a2:	06 20       	jnz	$+14     	;abs 0xc9b0
    c9a4:	b0 12 5a ad 	call	#0xad5a	
    c9a8:	03 3c       	jmp	$+8      	;abs 0xc9b0
    c9aa:	7e 90 03 00 	cmp.b	#3,	r14	;#0x0003
    c9ae:	f4 27       	jz	$-22     	;abs 0xc998
    c9b0:	3c 41       	pop	r12		
    c9b2:	3d 41       	pop	r13		
    c9b4:	3e 41       	pop	r14		
    c9b6:	3f 41       	pop	r15		
    c9b8:	b1 c0 f0 00 00 00 	bic	#240,	0(r1)	;#0x00f0, 0x0000(r1)
    c9be:	00 13       	reti			

0000c9c0 <sig_UART0TX_VECTOR>:
    c9c0:	0f 12       	push	r15		
    c9c2:	5f 42 70 00 	mov.b	&0x0070,r15	
    c9c6:	3f f0 20 00 	and	#32,	r15	;#0x0020
    c9ca:	06 24       	jz	$+14     	;abs 0xc9d8
    c9cc:	5f 42 70 00 	mov.b	&0x0070,r15	
    c9d0:	2f f2       	and	#4,	r15	;r2 As==10
    c9d2:	02 24       	jz	$+6      	;abs 0xc9d8
    c9d4:	5f 42 70 00 	mov.b	&0x0070,r15	
    c9d8:	3f 41       	pop	r15		
    c9da:	b1 c0 f0 00 00 00 	bic	#240,	0(r1)	;#0x00f0, 0x0000(r1)
    c9e0:	00 13       	reti			

0000c9e2 <sig_ADC12_VECTOR>:
    c9e2:	0f 12       	push	r15		
    c9e4:	0e 12       	push	r14		
    c9e6:	0d 12       	push	r13		
    c9e8:	0c 12       	push	r12		
    c9ea:	0b 12       	push	r11		
    c9ec:	1f 42 a8 01 	mov	&0x01a8,r15	
    c9f0:	3f 90 05 00 	cmp	#5,	r15	;#0x0005
    c9f4:	0a 2c       	jc	$+22     	;abs 0xca0a
    c9f6:	b0 12 14 48 	call	#0x4814	
    c9fa:	1e 42 a6 01 	mov	&0x01a6,r14	
    c9fe:	0e 93       	tst	r14		
    ca00:	9b 24       	jz	$+312    	;abs 0xcb38
    ca02:	3f f0 80 00 	and	#128,	r15	;#0x0080
    ca06:	5e 43       	mov.b	#1,	r14	;r3 As==01
    ca08:	01 24       	jz	$+4      	;abs 0xca0c
    ca0a:	4e 43       	clr.b	r14		
    ca0c:	5f 42 c4 1b 	mov.b	&0x1bc4,r15	
    ca10:	3f f0 1f 00 	and	#31,	r15	;#0x001f
    ca14:	3f 53       	add	#-1,	r15	;r3 As==11
    ca16:	3f 90 10 00 	cmp	#16,	r15	;#0x0010
    ca1a:	8c 2c       	jc	$+282    	;abs 0xcb34
    ca1c:	0f 5f       	rla	r15		
    ca1e:	10 4f e2 f7 	br	-2078(r15)	;0xf7e2(r15)
    ca22:	b0 12 aa 4c 	call	#0x4caa	
    ca26:	1e 42 40 01 	mov	&0x0140,r14	
    ca2a:	5f 42 86 12 	mov.b	&0x1286,r15	
    ca2e:	b0 12 30 7b 	call	#0x7b30	
    ca32:	82 3c       	jmp	$+262    	;abs 0xcb38
    ca34:	1e 42 40 01 	mov	&0x0140,r14	
    ca38:	5f 42 86 12 	mov.b	&0x1286,r15	
    ca3c:	b0 12 30 7b 	call	#0x7b30	
    ca40:	4f 93       	tst.b	r15		
    ca42:	7a 24       	jz	$+246    	;abs 0xcb38
    ca44:	77 3c       	jmp	$+240    	;abs 0xcb34
    ca46:	1f 42 88 12 	mov	&0x1288,r15	
    ca4a:	0f 5f       	rla	r15		
    ca4c:	1c 42 50 16 	mov	&0x1650,r12	
    ca50:	0c 5f       	add	r15,	r12	
    ca52:	5b 42 93 13 	mov.b	&0x1393,r11	
    ca56:	0d 43       	clr	r13		
    ca58:	4f 4d       	mov.b	r13,	r15	
    ca5a:	0f 5f       	rla	r15		
    ca5c:	3f 50 40 01 	add	#320,	r15	;#0x0140
    ca60:	ac 4f 00 00 	mov	@r15,	0(r12)	;0x0000(r12)
    ca64:	2c 53       	incd	r12		
    ca66:	1d 53       	inc	r13		
    ca68:	0d 9b       	cmp	r11,	r13	
    ca6a:	f6 2b       	jnc	$-18     	;abs 0xca58
    ca6c:	1b 52 88 12 	add	&0x1288,r11	
    ca70:	82 4b 88 12 	mov	r11,	&0x1288	
    ca74:	4e 93       	tst.b	r14		
    ca76:	03 20       	jnz	$+8      	;abs 0xca7e
    ca78:	82 9b 2a 13 	cmp	r11,	&0x132a	
    ca7c:	5d 20       	jnz	$+188    	;abs 0xcb38
    ca7e:	b0 12 aa 4c 	call	#0x4caa	
    ca82:	82 43 88 12 	mov	#0,	&0x1288	;r3 As==00
    ca86:	58 3c       	jmp	$+178    	;abs 0xcb38
    ca88:	1d 42 88 12 	mov	&0x1288,r13	
    ca8c:	0f 4d       	mov	r13,	r15	
    ca8e:	0f 5f       	rla	r15		
    ca90:	1b 42 50 16 	mov	&0x1650,r11	
    ca94:	0b 5f       	add	r15,	r11	
    ca96:	1f 42 2a 13 	mov	&0x132a,r15	
    ca9a:	0f 8d       	sub	r13,	r15	
    ca9c:	0d 4f       	mov	r15,	r13	
    ca9e:	3f 90 11 00 	cmp	#17,	r15	;#0x0011
    caa2:	02 28       	jnc	$+6      	;abs 0xcaa8
    caa4:	3d 40 10 00 	mov	#16,	r13	;#0x0010
    caa8:	0c 43       	clr	r12		
    caaa:	4f 4c       	mov.b	r12,	r15	
    caac:	0f 5f       	rla	r15		
    caae:	3f 50 40 01 	add	#320,	r15	;#0x0140
    cab2:	ab 4f 00 00 	mov	@r15,	0(r11)	;0x0000(r11)
    cab6:	2b 53       	incd	r11		
    cab8:	1c 53       	inc	r12		
    caba:	0c 9d       	cmp	r13,	r12	
    cabc:	f6 2b       	jnc	$-18     	;abs 0xcaaa
    cabe:	1d 52 88 12 	add	&0x1288,r13	
    cac2:	82 4d 88 12 	mov	r13,	&0x1288	
    cac6:	4e 93       	tst.b	r14		
    cac8:	04 20       	jnz	$+10     	;abs 0xcad2
    caca:	1f 42 2a 13 	mov	&0x132a,r15	
    cace:	0f 9d       	cmp	r13,	r15	
    cad0:	09 20       	jnz	$+20     	;abs 0xcae4
    cad2:	b0 12 aa 4c 	call	#0x4caa	
    cad6:	82 43 88 12 	mov	#0,	&0x1288	;r3 As==00
    cada:	5f 42 86 12 	mov.b	&0x1286,r15	
    cade:	b0 12 84 7f 	call	#0x7f84	
    cae2:	2a 3c       	jmp	$+86     	;abs 0xcb38
    cae4:	0f 8d       	sub	r13,	r15	
    cae6:	3f 90 10 00 	cmp	#16,	r15	;#0x0010
    caea:	26 2c       	jc	$+78     	;abs 0xcb38
    caec:	4f 43       	clr.b	r15		
    caee:	b0 12 60 4a 	call	#0x4a60	
    caf2:	4e 4f       	mov.b	r15,	r14	
    caf4:	7e d0 80 ff 	bis.b	#-128,	r14	;#0xff80
    caf8:	5f 42 2a 13 	mov.b	&0x132a,r15	
    cafc:	5f 82 88 12 	sub.b	&0x1288,r15	
    cb00:	b0 12 fa 47 	call	#0x47fa	
    cb04:	19 3c       	jmp	$+52     	;abs 0xcb38
    cb06:	1d 42 50 16 	mov	&0x1650,r13	
    cb0a:	4e 43       	clr.b	r14		
    cb0c:	4f 4e       	mov.b	r14,	r15	
    cb0e:	0f 5f       	rla	r15		
    cb10:	3f 50 40 01 	add	#320,	r15	;#0x0140
    cb14:	ad 4f 00 00 	mov	@r15,	0(r13)	;0x0000(r13)
    cb18:	2d 53       	incd	r13		
    cb1a:	5e 53       	inc.b	r14		
    cb1c:	4f 4e       	mov.b	r14,	r15	
    cb1e:	1f 92 2a 13 	cmp	&0x132a,r15	
    cb22:	f4 2b       	jnc	$-22     	;abs 0xcb0c
    cb24:	5f 42 86 12 	mov.b	&0x1286,r15	
    cb28:	b0 12 84 7f 	call	#0x7f84	
    cb2c:	82 4f 50 16 	mov	r15,	&0x1650	
    cb30:	0f 93       	tst	r15		
    cb32:	02 20       	jnz	$+6      	;abs 0xcb38
    cb34:	b0 12 aa 4c 	call	#0x4caa	
    cb38:	3b 41       	pop	r11		
    cb3a:	3c 41       	pop	r12		
    cb3c:	3d 41       	pop	r13		
    cb3e:	3e 41       	pop	r14		
    cb40:	3f 41       	pop	r15		
    cb42:	b1 c0 f0 00 00 00 	bic	#240,	0(r1)	;#0x00f0, 0x0000(r1)
    cb48:	00 13       	reti			

0000cb4a <UDPShellP__lookup_cmd>:
    cb4a:	0b 12       	push	r11		
    cb4c:	0a 12       	push	r10		
    cb4e:	09 12       	push	r9		
    cb50:	08 12       	push	r8		
    cb52:	07 12       	push	r7		
    cb54:	08 4f       	mov	r15,	r8	
    cb56:	07 4e       	mov	r14,	r7	
    cb58:	0a 4d       	mov	r13,	r10	
    cb5a:	0b 43       	clr	r11		
    cb5c:	0f 3c       	jmp	$+32     	;abs 0xcb7c
    cb5e:	0e 4a       	mov	r10,	r14	
    cb60:	79 4e       	mov.b	@r14+,	r9	
    cb62:	0d 49       	mov	r9,	r13	
    cb64:	0f 48       	mov	r8,	r15	
    cb66:	b0 12 22 e8 	call	#0xe822	
    cb6a:	0f 93       	tst	r15		
    cb6c:	04 20       	jnz	$+10     	;abs 0xcb76
    cb6e:	09 58       	add	r8,	r9	
    cb70:	c9 93 00 00 	tst.b	0(r9)		;0x0000(r9)
    cb74:	07 24       	jz	$+16     	;abs 0xcb84
    cb76:	1b 53       	inc	r11		
    cb78:	3a 50 0c 00 	add	#12,	r10	;#0x000c
    cb7c:	0b 97       	cmp	r7,	r11	
    cb7e:	ef 3b       	jl	$-32     	;abs 0xcb5e
    cb80:	3b 40 fe 00 	mov	#254,	r11	;#0x00fe
    cb84:	0f 4b       	mov	r11,	r15	
    cb86:	37 41       	pop	r7		
    cb88:	38 41       	pop	r8		
    cb8a:	39 41       	pop	r9		
    cb8c:	3a 41       	pop	r10		
    cb8e:	3b 41       	pop	r11		
    cb90:	30 41       	ret			

0000cb92 <RPLRankP__insertParent>:
    cb92:	0b 12       	push	r11		
    cb94:	0a 12       	push	r10		
    cb96:	5a 42 ea 11 	mov.b	&0x11ea,r10	
    cb9a:	4a 93       	tst.b	r10		
    cb9c:	1b 24       	jz	$+56     	;abs 0xcbd4
    cb9e:	0b 43       	clr	r11		
    cba0:	02 12       	push	r2		
    cba2:	32 c2       	dint			
    cba4:	03 43       	nop			
    cba6:	82 4b 32 01 	mov	r11,	&0x0132	
    cbaa:	b2 40 18 00 38 01 	mov	#24,	&0x0138	;#0x0018
    cbb0:	1f 42 3a 01 	mov	&0x013a,r15	
    cbb4:	32 41       	pop	r2		
    cbb6:	3d 40 10 00 	mov	#16,	r13	;#0x0010
    cbba:	0e 41       	mov	r1,	r14	
    cbbc:	3e 50 06 00 	add	#6,	r14	;#0x0006
    cbc0:	3f 50 dc 13 	add	#5084,	r15	;#0x13dc
    cbc4:	b0 12 22 e8 	call	#0xe822	
    cbc8:	0f 93       	tst	r15		
    cbca:	2e 24       	jz	$+94     	;abs 0xcc28
    cbcc:	1b 53       	inc	r11		
    cbce:	3b 90 14 00 	cmp	#20,	r11	;#0x0014
    cbd2:	e6 23       	jnz	$-50     	;abs 0xcba0
    cbd4:	4f 43       	clr.b	r15		
    cbd6:	4e 4f       	mov.b	r15,	r14	
    cbd8:	02 12       	push	r2		
    cbda:	32 c2       	dint			
    cbdc:	03 43       	nop			
    cbde:	82 4e 32 01 	mov	r14,	&0x0132	
    cbe2:	b2 40 18 00 38 01 	mov	#24,	&0x0138	;#0x0018
    cbe8:	1d 42 3a 01 	mov	&0x013a,r13	
    cbec:	32 41       	pop	r2		
    cbee:	cd 93 f2 13 	tst.b	5106(r13)	;0x13f2(r13)
    cbf2:	15 20       	jnz	$+44     	;abs 0xcc1e
    cbf4:	02 12       	push	r2		
    cbf6:	32 c2       	dint			
    cbf8:	03 43       	nop			
    cbfa:	82 4e 32 01 	mov	r14,	&0x0132	
    cbfe:	b2 40 18 00 38 01 	mov	#24,	&0x0138	;#0x0018
    cc04:	1f 42 3a 01 	mov	&0x013a,r15	
    cc08:	32 41       	pop	r2		
    cc0a:	3d 40 18 00 	mov	#24,	r13	;#0x0018
    cc0e:	0e 41       	mov	r1,	r14	
    cc10:	3e 50 06 00 	add	#6,	r14	;#0x0006
    cc14:	3f 50 dc 13 	add	#5084,	r15	;#0x13dc
    cc18:	b0 12 80 e8 	call	#0xe880	
    cc1c:	27 3c       	jmp	$+80     	;abs 0xcc6c
    cc1e:	5f 53       	inc.b	r15		
    cc20:	7f 90 14 00 	cmp.b	#20,	r15	;#0x0014
    cc24:	d8 23       	jnz	$-78     	;abs 0xcbd6
    cc26:	25 3c       	jmp	$+76     	;abs 0xcc72
    cc28:	02 12       	push	r2		
    cc2a:	32 c2       	dint			
    cc2c:	03 43       	nop			
    cc2e:	82 4b 32 01 	mov	r11,	&0x0132	
    cc32:	b2 40 18 00 38 01 	mov	#24,	&0x0138	;#0x0018
    cc38:	1f 42 3a 01 	mov	&0x013a,r15	
    cc3c:	32 41       	pop	r2		
    cc3e:	3d 40 18 00 	mov	#24,	r13	;#0x0018
    cc42:	0e 41       	mov	r1,	r14	
    cc44:	3e 50 06 00 	add	#6,	r14	;#0x0006
    cc48:	3f 50 dc 13 	add	#5084,	r15	;#0x13dc
    cc4c:	b0 12 80 e8 	call	#0xe880	
    cc50:	02 12       	push	r2		
    cc52:	32 c2       	dint			
    cc54:	03 43       	nop			
    cc56:	82 4b 32 01 	mov	r11,	&0x0132	
    cc5a:	b2 40 18 00 38 01 	mov	#24,	&0x0138	;#0x0018
    cc60:	1f 42 3a 01 	mov	&0x013a,r15	
    cc64:	32 41       	pop	r2		
    cc66:	bf 40 0a 00 f0 13 	mov	#10,	5104(r15);#0x000a, 0x13f0(r15)
    cc6c:	5a 53       	inc.b	r10		
    cc6e:	c2 4a ea 11 	mov.b	r10,	&0x11ea	
    cc72:	3a 41       	pop	r10		
    cc74:	3b 41       	pop	r11		
    cc76:	30 41       	ret			

0000cc78 <IPPacketC__IPPacket__findHeader>:
    cc78:	0b 12       	push	r11		
    cc7a:	0a 12       	push	r10		
    cc7c:	09 12       	push	r9		
    cc7e:	21 83       	decd	r1		
    cc80:	09 4f       	mov	r15,	r9	
    cc82:	0a 4d       	mov	r13,	r10	
    cc84:	0b 43       	clr	r11		
    cc86:	10 3c       	jmp	$+34     	;abs 0xcca8
    cc88:	0c 41       	mov	r1,	r12	
    cc8a:	2d 43       	mov	#2,	r13	;r3 As==10
    cc8c:	0e 4b       	mov	r11,	r14	
    cc8e:	0f 49       	mov	r9,	r15	
    cc90:	b0 12 86 df 	call	#0xdf86	
    cc94:	2f 93       	cmp	#2,	r15	;r3 As==10
    cc96:	21 20       	jnz	$+68     	;abs 0xccda
    cc98:	6e 41       	mov.b	@r1,	r14	
    cc9a:	5c 41 01 00 	mov.b	1(r1),	r12	;0x0001(r1)
    cc9e:	1c 53       	inc	r12		
    cca0:	0c 5c       	rla	r12		
    cca2:	0c 5c       	rla	r12		
    cca4:	0c 5c       	rla	r12		
    cca6:	0b 5c       	add	r12,	r11	
    cca8:	6d 4a       	mov.b	@r10,	r13	
    ccaa:	7d 93       	cmp.b	#-1,	r13	;r3 As==11
    ccac:	11 20       	jnz	$+36     	;abs 0xccd0
    ccae:	4e 93       	tst.b	r14		
    ccb0:	eb 27       	jz	$-40     	;abs 0xcc88
    ccb2:	7e 90 2b 00 	cmp.b	#43,	r14	;#0x002b
    ccb6:	e8 27       	jz	$-46     	;abs 0xcc88
    ccb8:	7e 90 2c 00 	cmp.b	#44,	r14	;#0x002c
    ccbc:	e5 27       	jz	$-52     	;abs 0xcc88
    ccbe:	7e 90 3c 00 	cmp.b	#60,	r14	;#0x003c
    ccc2:	e2 27       	jz	$-58     	;abs 0xcc88
    ccc4:	7e 90 87 ff 	cmp.b	#-121,	r14	;#0xff87
    ccc8:	df 27       	jz	$-64     	;abs 0xcc88
    ccca:	ca 4e 00 00 	mov.b	r14,	0(r10)	;0x0000(r10)
    ccce:	02 3c       	jmp	$+6      	;abs 0xccd4
    ccd0:	4d 9e       	cmp.b	r14,	r13	
    ccd2:	da 23       	jnz	$-74     	;abs 0xcc88
    ccd4:	7e 90 3b 00 	cmp.b	#59,	r14	;#0x003b
    ccd8:	01 20       	jnz	$+4      	;abs 0xccdc
    ccda:	3b 43       	mov	#-1,	r11	;r3 As==11
    ccdc:	0f 4b       	mov	r11,	r15	
    ccde:	21 53       	incd	r1		
    cce0:	39 41       	pop	r9		
    cce2:	3a 41       	pop	r10		
    cce4:	3b 41       	pop	r11		
    cce6:	30 41       	ret			

0000cce8 <RPLRankP__IPPacket__findTLV.constprop.356>:
    cce8:	0b 12       	push	r11		
    ccea:	0a 12       	push	r10		
    ccec:	09 12       	push	r9		
    ccee:	21 82       	sub	#4,	r1	;r2 As==10
    ccf0:	0a 4f       	mov	r15,	r10	
    ccf2:	49 4e       	mov.b	r14,	r9	
    ccf4:	0c 41       	mov	r1,	r12	
    ccf6:	2c 53       	incd	r12		
    ccf8:	2d 43       	mov	#2,	r13	;r3 As==10
    ccfa:	0e 43       	clr	r14		
    ccfc:	b0 12 86 df 	call	#0xdf86	
    cd00:	2f 93       	cmp	#2,	r15	;r3 As==10
    cd02:	18 20       	jnz	$+50     	;abs 0xcd34
    cd04:	2b 43       	mov	#2,	r11	;r3 As==10
    cd06:	0e 3c       	jmp	$+30     	;abs 0xcd24
    cd08:	0c 41       	mov	r1,	r12	
    cd0a:	2d 43       	mov	#2,	r13	;r3 As==10
    cd0c:	0e 4b       	mov	r11,	r14	
    cd0e:	0f 4a       	mov	r10,	r15	
    cd10:	b0 12 86 df 	call	#0xdf86	
    cd14:	2f 93       	cmp	#2,	r15	;r3 As==10
    cd16:	0e 20       	jnz	$+30     	;abs 0xcd34
    cd18:	69 91       	cmp.b	@r1,	r9	
    cd1a:	0d 24       	jz	$+28     	;abs 0xcd36
    cd1c:	5d 41 01 00 	mov.b	1(r1),	r13	;0x0001(r1)
    cd20:	2d 53       	incd	r13		
    cd22:	0b 5d       	add	r13,	r11	
    cd24:	5d 41 03 00 	mov.b	3(r1),	r13	;0x0003(r1)
    cd28:	1d 53       	inc	r13		
    cd2a:	0d 5d       	rla	r13		
    cd2c:	0d 5d       	rla	r13		
    cd2e:	0d 5d       	rla	r13		
    cd30:	0b 9d       	cmp	r13,	r11	
    cd32:	ea 3b       	jl	$-42     	;abs 0xcd08
    cd34:	3b 43       	mov	#-1,	r11	;r3 As==11
    cd36:	0f 4b       	mov	r11,	r15	
    cd38:	21 52       	add	#4,	r1	;r2 As==10
    cd3a:	39 41       	pop	r9		
    cd3c:	3a 41       	pop	r10		
    cd3e:	3b 41       	pop	r11		
    cd40:	30 41       	ret			

0000cd42 <IPDispatchP__deliver>:
    cd42:	0b 12       	push	r11		
    cd44:	0a 12       	push	r10		
    cd46:	09 12       	push	r9		
    cd48:	08 12       	push	r8		
    cd4a:	07 12       	push	r7		
    cd4c:	06 12       	push	r6		
    cd4e:	05 12       	push	r5		
    cd50:	04 12       	push	r4		
    cd52:	31 50 42 fe 	add	#-446,	r1	;#0xfe42
    cd56:	81 4f ba 01 	mov	r15,	442(r1)	;0x01ba(r1)
    cd5a:	91 4f 06 00 b4 01 	mov	6(r15),	436(r1)	;0x0006(r15), 0x01b4(r1)
    cd60:	1a 4f 08 00 	mov	8(r15),	r10	;0x0008(r15)
    cd64:	3a 50 d8 ff 	add	#-40,	r10	;#0xffd8
    cd68:	4c 4a       	mov.b	r10,	r12	
    cd6a:	8c 10       	swpb	r12		
    cd6c:	0b 4a       	mov	r10,	r11	
    cd6e:	8b 10       	swpb	r11		
    cd70:	4b 4b       	mov.b	r11,	r11	
    cd72:	0c db       	bis	r11,	r12	
    cd74:	1e 41 b4 01 	mov	436(r1),r14	;0x01b4(r1)
    cd78:	ce 4c 04 00 	mov.b	r12,	4(r14)	;0x0004(r14)
    cd7c:	8c 10       	swpb	r12		
    cd7e:	ce 4c 05 00 	mov.b	r12,	5(r14)	;0x0005(r14)
    cd82:	0b 4e       	mov	r14,	r11	
    cd84:	3b 50 28 00 	add	#40,	r11	;#0x0028
    cd88:	81 4b 10 00 	mov	r11,	16(r1)	;0x0010(r1)
    cd8c:	81 4a 12 00 	mov	r10,	18(r1)	;0x0012(r1)
    cd90:	81 43 14 00 	mov	#0,	20(r1)	;r3 As==00, 0x0014(r1)
    cd94:	3e 50 18 00 	add	#24,	r14	;#0x0018
    cd98:	81 4e bc 01 	mov	r14,	444(r1)	;0x01bc(r1)
    cd9c:	0f 4e       	mov	r14,	r15	
    cd9e:	b0 12 6c 62 	call	#0x626c	
    cda2:	4f 93       	tst.b	r15		
    cda4:	02 20       	jnz	$+6      	;abs 0xcdaa
    cda6:	30 40 b6 de 	br	#0xdeb6	
    cdaa:	81 4b 0a 00 	mov	r11,	10(r1)	;0x000a(r1)
    cdae:	81 4a 0c 00 	mov	r10,	12(r1)	;0x000c(r1)
    cdb2:	81 43 0e 00 	mov	#0,	14(r1)	;r3 As==00, 0x000e(r1)
    cdb6:	f1 40 2c 00 00 00 	mov.b	#44,	0(r1)	;#0x002c, 0x0000(r1)
    cdbc:	0d 41       	mov	r1,	r13	
    cdbe:	1f 41 b4 01 	mov	436(r1),r15	;0x01b4(r1)
    cdc2:	5e 4f 06 00 	mov.b	6(r15),	r14	;0x0006(r15)
    cdc6:	0f 41       	mov	r1,	r15	
    cdc8:	3f 50 0a 00 	add	#10,	r15	;#0x000a
    cdcc:	b0 12 78 cc 	call	#0xcc78	
    cdd0:	0c 4f       	mov	r15,	r12	
    cdd2:	0f 93       	tst	r15		
    cdd4:	06 38       	jl	$+14     	;abs 0xcde2
    cdd6:	0c 5b       	add	r11,	r12	
    cdd8:	8c 93 02 00 	tst	2(r12)		;0x0002(r12)
    cddc:	02 24       	jz	$+6      	;abs 0xcde2
    cdde:	30 40 28 df 	br	#0xdf28	
    cde2:	f1 43 00 00 	mov.b	#-1,	0(r1)	;r3 As==11, 0x0000(r1)
    cde6:	0d 41       	mov	r1,	r13	
    cde8:	1f 41 b4 01 	mov	436(r1),r15	;0x01b4(r1)
    cdec:	5e 4f 06 00 	mov.b	6(r15),	r14	;0x0006(r15)
    cdf0:	0f 41       	mov	r1,	r15	
    cdf2:	3f 50 0a 00 	add	#10,	r15	;#0x000a
    cdf6:	b0 12 78 cc 	call	#0xcc78	
    cdfa:	0f 93       	tst	r15		
    cdfc:	02 34       	jge	$+6      	;abs 0xce02
    cdfe:	30 40 28 df 	br	#0xdf28	
    ce02:	0a 8f       	sub	r15,	r10	
    ce04:	06 4b       	mov	r11,	r6	
    ce06:	06 5f       	add	r15,	r6	
    ce08:	6c 41       	mov.b	@r1,	r12	
    ce0a:	7c 90 11 00 	cmp.b	#17,	r12	;#0x0011
    ce0e:	07 24       	jz	$+16     	;abs 0xce1e
    ce10:	7c 90 3a 00 	cmp.b	#58,	r12	;#0x003a
    ce14:	02 24       	jz	$+6      	;abs 0xce1a
    ce16:	30 40 28 df 	br	#0xdf28	
    ce1a:	30 40 84 d1 	br	#0xd184	
    ce1e:	18 46 06 00 	mov	6(r6),	r8	;0x0006(r6)
    ce22:	1e 46 02 00 	mov	2(r6),	r14	;0x0002(r6)
    ce26:	37 40 0c 26 	mov	#9740,	r7	;#0x260c
    ce2a:	49 43       	clr.b	r9		
    ce2c:	2e 97       	cmp	@r7,	r14	
    ce2e:	06 24       	jz	$+14     	;abs 0xce3c
    ce30:	59 53       	inc.b	r9		
    ce32:	27 53       	incd	r7		
    ce34:	69 92       	cmp.b	#4,	r9	;r2 As==10
    ce36:	fa 23       	jnz	$-10     	;abs 0xce2c
    ce38:	30 40 28 df 	br	#0xdf28	
    ce3c:	3d 40 10 00 	mov	#16,	r13	;#0x0010
    ce40:	1e 41 b4 01 	mov	436(r1),r14	;0x01b4(r1)
    ce44:	3e 52       	add	#8,	r14	;r2 As==11
    ce46:	0f 41       	mov	r1,	r15	
    ce48:	3f 50 74 00 	add	#116,	r15	;#0x0074
    ce4c:	b0 12 80 e8 	call	#0xe880	
    ce50:	a1 46 72 00 	mov	@r6,	114(r1)	;0x0072(r1)
    ce54:	86 43 06 00 	mov	#0,	6(r6)	;r3 As==00, 0x0006(r6)
    ce58:	81 46 16 00 	mov	r6,	22(r1)	;0x0016(r1)
    ce5c:	81 4a 18 00 	mov	r10,	24(r1)	;0x0018(r1)
    ce60:	81 43 1a 00 	mov	#0,	26(r1)	;r3 As==00, 0x001a(r1)
    ce64:	7d 40 11 00 	mov.b	#17,	r13	;#0x0011
    ce68:	0e 41       	mov	r1,	r14	
    ce6a:	3e 50 16 00 	add	#22,	r14	;#0x0016
    ce6e:	1f 41 b4 01 	mov	436(r1),r15	;0x01b4(r1)
    ce72:	b0 12 08 e1 	call	#0xe108	
    ce76:	0d 48       	mov	r8,	r13	
    ce78:	8d 10       	swpb	r13		
    ce7a:	4d 4d       	mov.b	r13,	r13	
    ce7c:	48 48       	mov.b	r8,	r8	
    ce7e:	88 10       	swpb	r8		
    ce80:	0d d8       	bis	r8,	r13	
    ce82:	0d 9f       	cmp	r15,	r13	
    ce84:	02 24       	jz	$+6      	;abs 0xce8a
    ce86:	30 40 28 df 	br	#0xdf28	
    ce8a:	0b 46       	mov	r6,	r11	
    ce8c:	3b 52       	add	#8,	r11	;r2 As==11
    ce8e:	59 93       	cmp.b	#1,	r9	;r3 As==01
    ce90:	29 24       	jz	$+84     	;abs 0xcee4
    ce92:	06 28       	jnc	$+14     	;abs 0xcea0
    ce94:	79 90 03 00 	cmp.b	#3,	r9	;#0x0003
    ce98:	02 24       	jz	$+6      	;abs 0xce9e
    ce9a:	30 40 28 df 	br	#0xdf28	
    ce9e:	50 3c       	jmp	$+162    	;abs 0xcf40
    cea0:	3d 40 06 00 	mov	#6,	r13	;#0x0006
    cea4:	0e 4b       	mov	r11,	r14	
    cea6:	3f 40 e8 25 	mov	#9704,	r15	;#0x25e8
    ceaa:	b0 12 80 e8 	call	#0xe880	
    ceae:	92 93 24 12 	cmp	#1,	&0x1224	;r3 As==01
    ceb2:	02 24       	jz	$+6      	;abs 0xceb8
    ceb4:	30 40 28 df 	br	#0xdf28	
    ceb8:	e2 42 ce 25 	mov.b	#4,	&0x25ce	;r2 As==10
    cebc:	f2 40 03 00 ee 1c 	mov.b	#3,	&0x1cee	;#0x0003
    cec2:	82 43 e8 1c 	mov	#0,	&0x1ce8	;r3 As==00
    cec6:	b2 40 e8 25 ea 1c 	mov	#9704,	&0x1cea	;#0x25e8
    cecc:	b2 40 06 00 ec 1c 	mov	#6,	&0x1cec	;#0x0006
    ced2:	c2 93 6c 12 	tst.b	&0x126c	
    ced6:	02 20       	jnz	$+6      	;abs 0xcedc
    ced8:	b0 12 44 9f 	call	#0x9f44	
    cedc:	82 43 24 12 	mov	#0,	&0x1224	;r3 As==00
    cee0:	30 40 28 df 	br	#0xdf28	
    cee4:	2d 42       	mov	#4,	r13	;r2 As==10
    cee6:	0e 4b       	mov	r11,	r14	
    cee8:	3f 40 56 26 	mov	#9814,	r15	;#0x2656
    ceec:	b0 12 80 e8 	call	#0xe880	
    cef0:	5e 42 58 26 	mov.b	&0x2658,r14	
    cef4:	5e 93       	cmp.b	#1,	r14	;r3 As==01
    cef6:	14 20       	jnz	$+42     	;abs 0xcf20
    cef8:	e2 43 ce 25 	mov.b	#2,	&0x25ce	;r3 As==10
    cefc:	3c 40 06 00 	mov	#6,	r12	;#0x0006
    cf00:	3d 40 cc 25 	mov	#9676,	r13	;#0x25cc
    cf04:	3e 40 ba 25 	mov	#9658,	r14	;#0x25ba
    cf08:	5f 43       	mov.b	#1,	r15	;r3 As==01
    cf0a:	b0 12 6a 70 	call	#0x706a	
    cf0e:	3c 40 06 00 	mov	#6,	r12	;#0x0006
    cf12:	3d 40 e8 25 	mov	#9704,	r13	;#0x25e8
    cf16:	3e 40 9a 25 	mov	#9626,	r14	;#0x259a
    cf1a:	4f 43       	clr.b	r15		
    cf1c:	30 40 80 df 	br	#0xdf80	
    cf20:	6e 92       	cmp.b	#4,	r14	;r2 As==10
    cf22:	04 20       	jnz	$+10     	;abs 0xcf2c
    cf24:	92 43 24 12 	mov	#1,	&0x1224	;r3 As==01
    cf28:	30 40 28 df 	br	#0xdf28	
    cf2c:	6e 93       	cmp.b	#2,	r14	;r3 As==10
    cf2e:	02 24       	jz	$+6      	;abs 0xcf34
    cf30:	30 40 28 df 	br	#0xdf28	
    cf34:	92 43 24 12 	mov	#1,	&0x1224	;r3 As==01
    cf38:	e2 43 ce 25 	mov.b	#2,	&0x25ce	;r3 As==10
    cf3c:	30 40 28 df 	br	#0xdf28	
    cf40:	3a 82       	sub	#8,	r10	;r2 As==11
    cf42:	3d 40 12 00 	mov	#18,	r13	;#0x0012
    cf46:	0e 41       	mov	r1,	r14	
    cf48:	3e 50 72 00 	add	#114,	r14	;#0x0072
    cf4c:	3f 40 28 24 	mov	#9256,	r15	;#0x2428
    cf50:	b0 12 80 e8 	call	#0xe880	
    cf54:	09 43       	clr	r9		
    cf56:	0e 43       	clr	r14		
    cf58:	1f 3c       	jmp	$+64     	;abs 0xcf98
    cf5a:	6f 4b       	mov.b	@r11,	r15	
    cf5c:	7f 90 20 00 	cmp.b	#32,	r15	;#0x0020
    cf60:	0a 24       	jz	$+22     	;abs 0xcf76
    cf62:	7f 90 0a 00 	cmp.b	#10,	r15	;#0x000a
    cf66:	07 24       	jz	$+16     	;abs 0xcf76
    cf68:	7f 90 09 00 	cmp.b	#9,	r15	;#0x0009
    cf6c:	04 24       	jz	$+10     	;abs 0xcf76
    cf6e:	4f 93       	tst.b	r15		
    cf70:	02 24       	jz	$+6      	;abs 0xcf76
    cf72:	1a 93       	cmp	#1,	r10	;r3 As==01
    cf74:	07 20       	jnz	$+16     	;abs 0xcf84
    cf76:	0e 93       	tst	r14		
    cf78:	0d 24       	jz	$+28     	;abs 0xcf94
    cf7a:	19 53       	inc	r9		
    cf7c:	cb 43 00 00 	mov.b	#0,	0(r11)	;r3 As==00, 0x0000(r11)
    cf80:	0e 43       	clr	r14		
    cf82:	08 3c       	jmp	$+18     	;abs 0xcf94
    cf84:	0e 93       	tst	r14		
    cf86:	06 20       	jnz	$+14     	;abs 0xcf94
    cf88:	0f 49       	mov	r9,	r15	
    cf8a:	0f 5f       	rla	r15		
    cf8c:	0f 51       	add	r1,	r15	
    cf8e:	8f 4b 84 00 	mov	r11,	132(r15);0x0084(r15)
    cf92:	1e 43       	mov	#1,	r14	;r3 As==01
    cf94:	1b 53       	inc	r11		
    cf96:	3a 53       	add	#-1,	r10	;r3 As==11
    cf98:	0a 93       	tst	r10		
    cf9a:	04 24       	jz	$+10     	;abs 0xcfa4
    cf9c:	39 90 0a 00 	cmp	#10,	r9	;#0x000a
    cfa0:	dc 3b       	jl	$-70     	;abs 0xcf5a
    cfa2:	04 3c       	jmp	$+10     	;abs 0xcfac
    cfa4:	09 93       	tst	r9		
    cfa6:	02 20       	jnz	$+6      	;abs 0xcfac
    cfa8:	30 40 28 df 	br	#0xdf28	
    cfac:	1b 41 84 00 	mov	132(r1),r11	;0x0084(r1)
    cfb0:	3d 40 16 11 	mov	#4374,	r13	;#0x1116
    cfb4:	3e 40 05 00 	mov	#5,	r14	;#0x0005
    cfb8:	0f 4b       	mov	r11,	r15	
    cfba:	b0 12 4a cb 	call	#0xcb4a	
    cfbe:	0d 4f       	mov	r15,	r13	
    cfc0:	3f 90 fe 00 	cmp	#254,	r15	;#0x00fe
    cfc4:	09 24       	jz	$+20     	;abs 0xcfd8
    cfc6:	0d 5d       	rla	r13		
    cfc8:	0e 41       	mov	r1,	r14	
    cfca:	3e 50 84 00 	add	#132,	r14	;#0x0084
    cfce:	0f 49       	mov	r9,	r15	
    cfd0:	9d 12 0c 11 	call	4364(r13)	;0x110c(r13)
    cfd4:	30 40 28 df 	br	#0xdf28	
    cfd8:	3d 40 3a 26 	mov	#9786,	r13	;#0x263a
    cfdc:	2e 43       	mov	#2,	r14	;r3 As==10
    cfde:	0f 4b       	mov	r11,	r15	
    cfe0:	b0 12 4a cb 	call	#0xcb4a	
    cfe4:	3f 90 fe 00 	cmp	#254,	r15	;#0x00fe
    cfe8:	c0 24       	jz	$+386    	;abs 0xd16a
    cfea:	4f 93       	tst.b	r15		
    cfec:	05 24       	jz	$+12     	;abs 0xcff8
    cfee:	5f 93       	cmp.b	#1,	r15	;r3 As==01
    cff0:	02 24       	jz	$+6      	;abs 0xcff6
    cff2:	30 40 28 df 	br	#0xdf28	
    cff6:	5e 3c       	jmp	$+190    	;abs 0xd0b4
    cff8:	c2 43 94 12 	mov.b	#0,	&0x1294	;r3 As==00
    cffc:	19 93       	cmp	#1,	r9	;r3 As==01
    cffe:	03 24       	jz	$+8      	;abs 0xd006
    d000:	29 93       	cmp	#2,	r9	;r3 As==10
    d002:	55 20       	jnz	$+172    	;abs 0xd0ae
    d004:	1c 3c       	jmp	$+58     	;abs 0xd03e
    d006:	1a 42 3a 24 	mov	&0x243a,r10	
    d00a:	5b 42 e8 25 	mov.b	&0x25e8,r11	
    d00e:	8b 10       	swpb	r11		
    d010:	5e 42 e9 25 	mov.b	&0x25e9,r14	
    d014:	0b de       	bis	r14,	r11	
    d016:	3f 40 ea 25 	mov	#9706,	r15	;#0x25ea
    d01a:	b0 12 96 47 	call	#0x4796	
    d01e:	0a 12       	push	r10		
    d020:	5d 42 cf 25 	mov.b	&0x25cf,r13	
    d024:	0d 12       	push	r13		
    d026:	0b 12       	push	r11		
    d028:	0e 12       	push	r14		
    d02a:	30 12 42 f6 	push	#-2494		;#0xf642
    d02e:	30 12 94 12 	push	#4756		;#0x1294
    d032:	b0 12 c6 eb 	call	#0xebc6	
    d036:	31 50 0c 00 	add	#12,	r1	;#0x000c
    d03a:	30 40 64 df 	br	#0xdf64	
    d03e:	1b 41 86 00 	mov	134(r1),r11	;0x0086(r1)
    d042:	0e 4b       	mov	r11,	r14	
    d044:	3f 40 7a f6 	mov	#-2438,	r15	;#0xf67a
    d048:	b0 12 04 e8 	call	#0xe804	
    d04c:	0f 93       	tst	r15		
    d04e:	08 20       	jnz	$+18     	;abs 0xd060
    d050:	3f 40 ea 25 	mov	#9706,	r15	;#0x25ea
    d054:	b0 12 96 47 	call	#0x4796	
    d058:	0e 12       	push	r14		
    d05a:	30 12 7d f6 	push	#-2435		;#0xf67d
    d05e:	1f 3c       	jmp	$+64     	;abs 0xd09e
    d060:	0e 4b       	mov	r11,	r14	
    d062:	3f 40 8a f6 	mov	#-2422,	r15	;#0xf68a
    d066:	b0 12 04 e8 	call	#0xe804	
    d06a:	0f 93       	tst	r15		
    d06c:	0a 20       	jnz	$+22     	;abs 0xd082
    d06e:	5e 42 e8 25 	mov.b	&0x25e8,r14	
    d072:	8e 10       	swpb	r14		
    d074:	5d 42 e9 25 	mov.b	&0x25e9,r13	
    d078:	0e dd       	bis	r13,	r14	
    d07a:	0e 12       	push	r14		
    d07c:	30 12 8d f6 	push	#-2419		;#0xf68d
    d080:	0e 3c       	jmp	$+30     	;abs 0xd09e
    d082:	0e 4b       	mov	r11,	r14	
    d084:	3f 40 9f f6 	mov	#-2401,	r15	;#0xf69f
    d088:	b0 12 04 e8 	call	#0xe804	
    d08c:	0f 93       	tst	r15		
    d08e:	02 24       	jz	$+6      	;abs 0xd094
    d090:	30 40 64 df 	br	#0xdf64	
    d094:	5e 42 cf 25 	mov.b	&0x25cf,r14	
    d098:	0e 12       	push	r14		
    d09a:	30 12 a2 f6 	push	#-2398		;#0xf6a2
    d09e:	30 12 94 12 	push	#4756		;#0x1294
    d0a2:	b0 12 c6 eb 	call	#0xebc6	
    d0a6:	31 50 06 00 	add	#6,	r1	;#0x0006
    d0aa:	30 40 64 df 	br	#0xdf64	
    d0ae:	3e 40 b2 f6 	mov	#-2382,	r14	;#0xf6b2
    d0b2:	55 3c       	jmp	$+172    	;abs 0xd15e
    d0b4:	c2 43 94 12 	mov.b	#0,	&0x1294	;r3 As==00
    d0b8:	39 90 03 00 	cmp	#3,	r9	;#0x0003
    d0bc:	4e 20       	jnz	$+158    	;abs 0xd15a
    d0be:	1b 41 86 00 	mov	134(r1),r11	;0x0086(r1)
    d0c2:	0e 4b       	mov	r11,	r14	
    d0c4:	3f 40 c8 f6 	mov	#-2360,	r15	;#0xf6c8
    d0c8:	b0 12 04 e8 	call	#0xe804	
    d0cc:	0f 93       	tst	r15		
    d0ce:	20 20       	jnz	$+66     	;abs 0xd110
    d0d0:	1f 41 88 00 	mov	136(r1),r15	;0x0088(r1)
    d0d4:	b0 12 de ea 	call	#0xeade	
    d0d8:	0d 4f       	mov	r15,	r13	
    d0da:	0e 4f       	mov	r15,	r14	
    d0dc:	8e 10       	swpb	r14		
    d0de:	8e 11       	sxt	r14		
    d0e0:	8e 10       	swpb	r14		
    d0e2:	8e 11       	sxt	r14		
    d0e4:	c2 4f ed 25 	mov.b	r15,	&0x25ed	
    d0e8:	0c 4e       	mov	r14,	r12	
    d0ea:	8d 10       	swpb	r13		
    d0ec:	8c 10       	swpb	r12		
    d0ee:	4d ec       	xor.b	r12,	r13	
    d0f0:	0d ec       	xor	r12,	r13	
    d0f2:	c2 4d ec 25 	mov.b	r13,	&0x25ec	
    d0f6:	c2 4e eb 25 	mov.b	r14,	&0x25eb	
    d0fa:	8e 10       	swpb	r14		
    d0fc:	c2 4e ea 25 	mov.b	r14,	&0x25ea	
    d100:	3f 40 ea 25 	mov	#9706,	r15	;#0x25ea
    d104:	b0 12 96 47 	call	#0x4796	
    d108:	0e 12       	push	r14		
    d10a:	30 12 cd f6 	push	#-2355		;#0xf6cd
    d10e:	1a 3c       	jmp	$+54     	;abs 0xd144
    d110:	0e 4b       	mov	r11,	r14	
    d112:	3f 40 8a f6 	mov	#-2422,	r15	;#0xf68a
    d116:	b0 12 04 e8 	call	#0xe804	
    d11a:	0f 93       	tst	r15		
    d11c:	02 24       	jz	$+6      	;abs 0xd122
    d11e:	30 40 64 df 	br	#0xdf64	
    d122:	1f 41 88 00 	mov	136(r1),r15	;0x0088(r1)
    d126:	b0 12 de ea 	call	#0xeade	
    d12a:	c2 4f e9 25 	mov.b	r15,	&0x25e9	
    d12e:	0e 4f       	mov	r15,	r14	
    d130:	8e 10       	swpb	r14		
    d132:	4e 4e       	mov.b	r14,	r14	
    d134:	c2 4e e8 25 	mov.b	r14,	&0x25e8	
    d138:	8e 10       	swpb	r14		
    d13a:	4d 4f       	mov.b	r15,	r13	
    d13c:	0e dd       	bis	r13,	r14	
    d13e:	0e 12       	push	r14		
    d140:	30 12 e4 f6 	push	#-2332		;#0xf6e4
    d144:	30 12 94 12 	push	#4756		;#0x1294
    d148:	b0 12 c6 eb 	call	#0xebc6	
    d14c:	31 50 06 00 	add	#6,	r1	;#0x0006
    d150:	4f 43       	clr.b	r15		
    d152:	b0 12 8a 63 	call	#0x638a	
    d156:	30 40 64 df 	br	#0xdf64	
    d15a:	3e 40 00 f7 	mov	#-2304,	r14	;#0xf700
    d15e:	3f 40 94 12 	mov	#4756,	r15	;#0x1294
    d162:	b0 12 42 e8 	call	#0xe842	
    d166:	30 40 64 df 	br	#0xdf64	
    d16a:	0b 12       	push	r11		
    d16c:	30 12 14 f7 	push	#-2284		;#0xf714
    d170:	30 12 80 00 	push	#128		;#0x0080
    d174:	30 12 94 12 	push	#4756		;#0x1294
    d178:	b0 12 e2 eb 	call	#0xebe2	
    d17c:	31 52       	add	#8,	r1	;r2 As==11
    d17e:	0c 4f       	mov	r15,	r12	
    d180:	30 40 74 df 	br	#0xdf74	
    d184:	19 46 02 00 	mov	2(r6),	r9	;0x0002(r6)
    d188:	08 49       	mov	r9,	r8	
    d18a:	88 10       	swpb	r8		
    d18c:	48 48       	mov.b	r8,	r8	
    d18e:	49 49       	mov.b	r9,	r9	
    d190:	89 10       	swpb	r9		
    d192:	09 d8       	bis	r8,	r9	
    d194:	86 43 02 00 	mov	#0,	2(r6)	;r3 As==00, 0x0002(r6)
    d198:	81 46 04 00 	mov	r6,	4(r1)	;0x0004(r1)
    d19c:	81 4a 06 00 	mov	r10,	6(r1)	;0x0006(r1)
    d1a0:	81 43 08 00 	mov	#0,	8(r1)	;r3 As==00, 0x0008(r1)
    d1a4:	0b 41       	mov	r1,	r11	
    d1a6:	2b 52       	add	#4,	r11	;r2 As==10
    d1a8:	7d 40 3a 00 	mov.b	#58,	r13	;#0x003a
    d1ac:	0e 4b       	mov	r11,	r14	
    d1ae:	1f 41 b4 01 	mov	436(r1),r15	;0x01b4(r1)
    d1b2:	b0 12 08 e1 	call	#0xe108	
    d1b6:	0f 99       	cmp	r9,	r15	
    d1b8:	02 24       	jz	$+6      	;abs 0xd1be
    d1ba:	30 40 28 df 	br	#0xdf28	
    d1be:	6c 46       	mov.b	@r6,	r12	
    d1c0:	7c 90 80 ff 	cmp.b	#-128,	r12	;#0xff80
    d1c4:	2f 20       	jnz	$+96     	;abs 0xd224
    d1c6:	f6 40 81 ff 00 00 	mov.b	#-127,	0(r6)	;#0xff81, 0x0000(r6)
    d1cc:	3d 40 2c 00 	mov	#44,	r13	;#0x002c
    d1d0:	0e 43       	clr	r14		
    d1d2:	0f 41       	mov	r1,	r15	
    d1d4:	3f 50 e4 00 	add	#228,	r15	;#0x00e4
    d1d8:	b0 12 74 ea 	call	#0xea74	
    d1dc:	3d 40 10 00 	mov	#16,	r13	;#0x0010
    d1e0:	1e 41 b4 01 	mov	436(r1),r14	;0x01b4(r1)
    d1e4:	3e 52       	add	#8,	r14	;r2 As==11
    d1e6:	0f 41       	mov	r1,	r15	
    d1e8:	3f 50 00 01 	add	#256,	r15	;#0x0100
    d1ec:	b0 12 80 e8 	call	#0xe880	
    d1f0:	0f 41       	mov	r1,	r15	
    d1f2:	3f 50 e8 00 	add	#232,	r15	;#0x00e8
    d1f6:	b0 12 30 62 	call	#0x6230	
    d1fa:	f1 40 60 00 e8 00 	mov.b	#96,	232(r1)	;#0x0060, 0x00e8(r1)
    d200:	f1 40 3a 00 ee 00 	mov.b	#58,	238(r1)	;#0x003a, 0x00ee(r1)
    d206:	81 4b e6 00 	mov	r11,	230(r1)	;0x00e6(r1)
    d20a:	0e 4a       	mov	r10,	r14	
    d20c:	8e 10       	swpb	r14		
    d20e:	4e 4e       	mov.b	r14,	r14	
    d210:	4a 4a       	mov.b	r10,	r10	
    d212:	8a 10       	swpb	r10		
    d214:	0a de       	bis	r14,	r10	
    d216:	81 4a ec 00 	mov	r10,	236(r1)	;0x00ec(r1)
    d21a:	0f 41       	mov	r1,	r15	
    d21c:	3f 50 e4 00 	add	#228,	r15	;#0x00e4
    d220:	30 40 12 d5 	br	#0xd512	
    d224:	7c 90 85 ff 	cmp.b	#-123,	r12	;#0xff85
    d228:	69 24       	jz	$+212    	;abs 0xd2fc
    d22a:	7c 90 86 ff 	cmp.b	#-122,	r12	;#0xff86
    d22e:	06 2c       	jc	$+14     	;abs 0xd23c
    d230:	7c 90 81 ff 	cmp.b	#-127,	r12	;#0xff81
    d234:	02 24       	jz	$+6      	;abs 0xd23a
    d236:	30 40 28 df 	br	#0xdf28	
    d23a:	0c 3c       	jmp	$+26     	;abs 0xd254
    d23c:	7c 90 86 ff 	cmp.b	#-122,	r12	;#0xff86
    d240:	02 20       	jnz	$+6      	;abs 0xd246
    d242:	30 40 1a d5 	br	#0xd51a	
    d246:	7c 90 9b ff 	cmp.b	#-101,	r12	;#0xff9b
    d24a:	02 24       	jz	$+6      	;abs 0xd250
    d24c:	30 40 28 df 	br	#0xdf28	
    d250:	30 40 d2 d5 	br	#0xd5d2	
    d254:	54 46 06 00 	mov.b	6(r6),	r4	;0x0006(r6)
    d258:	55 46 07 00 	mov.b	7(r6),	r5	;0x0007(r6)
    d25c:	1e 41 b4 01 	mov	436(r1),r14	;0x01b4(r1)
    d260:	d1 4e 07 00 b6 01 	mov.b	7(r14),	438(r1)	;0x0007(r14), 0x01b6(r1)
    d266:	b0 12 78 76 	call	#0x7678	
    d26a:	08 4e       	mov	r14,	r8	
    d26c:	09 4f       	mov	r15,	r9	
    d26e:	0f 46       	mov	r6,	r15	
    d270:	3f 52       	add	#8,	r15	;r2 As==11
    d272:	b0 12 96 47 	call	#0x4796	
    d276:	0a 4e       	mov	r14,	r10	
    d278:	0b 4f       	mov	r15,	r11	
    d27a:	5c 46 04 00 	mov.b	4(r6),	r12	;0x0004(r6)
    d27e:	8c 10       	swpb	r12		
    d280:	57 46 05 00 	mov.b	5(r6),	r7	;0x0005(r6)
    d284:	0c d7       	bis	r7,	r12	
    d286:	4c 93       	tst.b	r12		
    d288:	35 20       	jnz	$+108    	;abs 0xd2f4
    d28a:	3d 40 80 00 	mov	#128,	r13	;#0x0080
    d28e:	3e 40 94 12 	mov	#4756,	r14	;#0x1294
    d292:	1f 41 b4 01 	mov	436(r1),r15	;0x01b4(r1)
    d296:	3f 52       	add	#8,	r15	;r2 As==11
    d298:	b0 12 b8 e4 	call	#0xe4b8	
    d29c:	07 4f       	mov	r15,	r7	
    d29e:	1f 93       	cmp	#1,	r15	;r3 As==01
    d2a0:	29 38       	jl	$+84     	;abs 0xd2f4
    d2a2:	0e 48       	mov	r8,	r14	
    d2a4:	0f 49       	mov	r9,	r15	
    d2a6:	0e 8a       	sub	r10,	r14	
    d2a8:	0f 7b       	subc	r11,	r15	
    d2aa:	0f 12       	push	r15		
    d2ac:	0e 12       	push	r14		
    d2ae:	5c 41 ba 01 	mov.b	442(r1),r12	;0x01ba(r1)
    d2b2:	0c 12       	push	r12		
    d2b4:	4e 44       	mov.b	r4,	r14	
    d2b6:	8e 10       	swpb	r14		
    d2b8:	4d 45       	mov.b	r5,	r13	
    d2ba:	0e dd       	bis	r13,	r14	
    d2bc:	0e 12       	push	r14		
    d2be:	12 12 56 11 	push	&0x1156	
    d2c2:	3e 40 81 00 	mov	#129,	r14	;#0x0081
    d2c6:	0e 87       	sub	r7,	r14	
    d2c8:	0e 12       	push	r14		
    d2ca:	0e 47       	mov	r7,	r14	
    d2cc:	3e 53       	add	#-1,	r14	;r3 As==11
    d2ce:	3e 50 94 12 	add	#4756,	r14	;#0x1294
    d2d2:	0e 12       	push	r14		
    d2d4:	b0 12 e2 eb 	call	#0xebe2	
    d2d8:	31 50 0e 00 	add	#14,	r1	;#0x000e
    d2dc:	0c 47       	mov	r7,	r12	
    d2de:	0c 5f       	add	r15,	r12	
    d2e0:	cc 43 94 12 	mov.b	#0,	4756(r12);r3 As==00, 0x1294(r12)
    d2e4:	3d 40 94 12 	mov	#4756,	r13	;#0x1294
    d2e8:	3e 40 28 24 	mov	#9256,	r14	;#0x2428
    d2ec:	7f 40 03 00 	mov.b	#3,	r15	;#0x0003
    d2f0:	b0 12 6a 70 	call	#0x706a	
    d2f4:	92 53 b0 25 	inc	&0x25b0	
    d2f8:	30 40 28 df 	br	#0xdf28	
    d2fc:	c6 93 01 00 	tst.b	1(r6)		;0x0001(r6)
    d300:	02 24       	jz	$+6      	;abs 0xd306
    d302:	30 40 28 df 	br	#0xdf28	
    d306:	3a 90 09 00 	cmp	#9,	r10	;#0x0009
    d30a:	02 2c       	jc	$+6      	;abs 0xd310
    d30c:	30 40 28 df 	br	#0xdf28	
    d310:	0b 46       	mov	r6,	r11	
    d312:	3b 52       	add	#8,	r11	;r2 As==11
    d314:	3a 82       	sub	#8,	r10	;r2 As==11
    d316:	2a 93       	cmp	#2,	r10	;r3 As==10
    d318:	02 2c       	jc	$+6      	;abs 0xd31e
    d31a:	30 40 28 df 	br	#0xdf28	
    d31e:	6e 4b       	mov.b	@r11,	r14	
    d320:	5f 4b 01 00 	mov.b	1(r11),	r15	;0x0001(r11)
    d324:	4f 5f       	rla.b	r15		
    d326:	4f 5f       	rla.b	r15		
    d328:	4f 5f       	rla.b	r15		
    d32a:	4f 4f       	mov.b	r15,	r15	
    d32c:	0a 9f       	cmp	r15,	r10	
    d32e:	02 2c       	jc	$+6      	;abs 0xd334
    d330:	30 40 28 df 	br	#0xdf28	
    d334:	5e 93       	cmp.b	#1,	r14	;r3 As==01
    d336:	03 24       	jz	$+8      	;abs 0xd33e
    d338:	0b 5f       	add	r15,	r11	
    d33a:	0a 8f       	sub	r15,	r10	
    d33c:	ec 3f       	jmp	$-38     	;abs 0xd316
    d33e:	c2 93 18 12 	tst.b	&0x1218	
    d342:	1d 24       	jz	$+60     	;abs 0xd37e
    d344:	3d 40 10 00 	mov	#16,	r13	;#0x0010
    d348:	3e 40 7e 13 	mov	#4990,	r14	;#0x137e
    d34c:	0f 41       	mov	r1,	r15	
    d34e:	3f 50 32 00 	add	#50,	r15	;#0x0032
    d352:	b0 12 80 e8 	call	#0xe880	
    d356:	3d 42       	mov	#8,	r13	;r2 As==11
    d358:	1e 41 b4 01 	mov	436(r1),r14	;0x01b4(r1)
    d35c:	3e 50 10 00 	add	#16,	r14	;#0x0010
    d360:	0f 41       	mov	r1,	r15	
    d362:	3f 50 3a 00 	add	#58,	r15	;#0x003a
    d366:	b0 12 80 e8 	call	#0xe880	
    d36a:	1d 41 b4 01 	mov	436(r1),r13	;0x01b4(r1)
    d36e:	3d 52       	add	#8,	r13	;r2 As==11
    d370:	3e 40 80 00 	mov	#128,	r14	;#0x0080
    d374:	0f 41       	mov	r1,	r15	
    d376:	3f 50 32 00 	add	#50,	r15	;#0x0032
    d37a:	b0 12 a6 74 	call	#0x74a6	
    d37e:	f1 40 86 ff 42 00 	mov.b	#-122,	66(r1)	;#0xff86, 0x0042(r1)
    d384:	c1 43 43 00 	mov.b	#0,	67(r1)	;r3 As==00, 0x0043(r1)
    d388:	c1 43 45 00 	mov.b	#0,	69(r1)	;r3 As==00, 0x0045(r1)
    d38c:	c1 43 44 00 	mov.b	#0,	68(r1)	;r3 As==00, 0x0044(r1)
    d390:	f1 40 10 00 46 00 	mov.b	#16,	70(r1)	;#0x0010, 0x0046(r1)
    d396:	c1 43 47 00 	mov.b	#0,	71(r1)	;r3 As==00, 0x0047(r1)
    d39a:	f1 43 49 00 	mov.b	#-1,	73(r1)	;r3 As==11, 0x0049(r1)
    d39e:	f1 43 48 00 	mov.b	#-1,	72(r1)	;r3 As==11, 0x0048(r1)
    d3a2:	c1 43 4d 00 	mov.b	#0,	77(r1)	;r3 As==00, 0x004d(r1)
    d3a6:	c1 43 4c 00 	mov.b	#0,	76(r1)	;r3 As==00, 0x004c(r1)
    d3aa:	c1 43 4b 00 	mov.b	#0,	75(r1)	;r3 As==00, 0x004b(r1)
    d3ae:	c1 43 4a 00 	mov.b	#0,	74(r1)	;r3 As==00, 0x004a(r1)
    d3b2:	c1 43 51 00 	mov.b	#0,	81(r1)	;r3 As==00, 0x0051(r1)
    d3b6:	c1 43 50 00 	mov.b	#0,	80(r1)	;r3 As==00, 0x0050(r1)
    d3ba:	c1 43 4f 00 	mov.b	#0,	79(r1)	;r3 As==00, 0x004f(r1)
    d3be:	c1 43 4e 00 	mov.b	#0,	78(r1)	;r3 As==00, 0x004e(r1)
    d3c2:	3d 40 10 00 	mov	#16,	r13	;#0x0010
    d3c6:	0e 41       	mov	r1,	r14	
    d3c8:	3e 50 42 00 	add	#66,	r14	;#0x0042
    d3cc:	0f 41       	mov	r1,	r15	
    d3ce:	3f 50 3c 01 	add	#316,	r15	;#0x013c
    d3d2:	b0 12 1a e6 	call	#0xe61a	
    d3d6:	0f 41       	mov	r1,	r15	
    d3d8:	3f 50 4c 01 	add	#332,	r15	;#0x014c
    d3dc:	b0 12 3e 63 	call	#0x633e	
    d3e0:	4a 4f       	mov.b	r15,	r10	
    d3e2:	c2 93 18 12 	tst.b	&0x1218	
    d3e6:	04 20       	jnz	$+10     	;abs 0xd3f0
    d3e8:	0d 4a       	mov	r10,	r13	
    d3ea:	3d 50 10 00 	add	#16,	r13	;#0x0010
    d3ee:	4a 3c       	jmp	$+150    	;abs 0xd484
    d3f0:	f1 40 03 00 98 00 	mov.b	#3,	152(r1)	;#0x0003, 0x0098(r1)
    d3f6:	e1 42 99 00 	mov.b	#4,	153(r1)	;r2 As==10, 0x0099(r1)
    d3fa:	d1 42 22 12 9a 00 	mov.b	&0x1222,154(r1)	;0x009a(r1)
    d400:	f1 40 40 00 9b 00 	mov.b	#64,	155(r1)	;#0x0040, 0x009b(r1)
    d406:	1e 42 1e 12 	mov	&0x121e,r14	
    d40a:	1c 42 20 12 	mov	&0x1220,r12	
    d40e:	c1 4e 9f 00 	mov.b	r14,	159(r1)	;0x009f(r1)
    d412:	0d 4c       	mov	r12,	r13	
    d414:	8e 10       	swpb	r14		
    d416:	8d 10       	swpb	r13		
    d418:	4e ed       	xor.b	r13,	r14	
    d41a:	0e ed       	xor	r13,	r14	
    d41c:	c1 4e 9e 00 	mov.b	r14,	158(r1)	;0x009e(r1)
    d420:	c1 4c 9d 00 	mov.b	r12,	157(r1)	;0x009d(r1)
    d424:	8c 10       	swpb	r12		
    d426:	c1 4c 9c 00 	mov.b	r12,	156(r1)	;0x009c(r1)
    d42a:	1e 42 1a 12 	mov	&0x121a,r14	
    d42e:	1c 42 1c 12 	mov	&0x121c,r12	
    d432:	c1 4e a3 00 	mov.b	r14,	163(r1)	;0x00a3(r1)
    d436:	0d 4c       	mov	r12,	r13	
    d438:	8e 10       	swpb	r14		
    d43a:	8d 10       	swpb	r13		
    d43c:	4e ed       	xor.b	r13,	r14	
    d43e:	0e ed       	xor	r13,	r14	
    d440:	c1 4e a2 00 	mov.b	r14,	162(r1)	;0x00a2(r1)
    d444:	c1 4c a1 00 	mov.b	r12,	161(r1)	;0x00a1(r1)
    d448:	8c 10       	swpb	r12		
    d44a:	c1 4c a0 00 	mov.b	r12,	160(r1)	;0x00a0(r1)
    d44e:	81 43 a4 00 	mov	#0,	164(r1)	;r3 As==00, 0x00a4(r1)
    d452:	81 43 a6 00 	mov	#0,	166(r1)	;r3 As==00, 0x00a6(r1)
    d456:	3d 40 10 00 	mov	#16,	r13	;#0x0010
    d45a:	3e 40 7e 13 	mov	#4990,	r14	;#0x137e
    d45e:	0f 41       	mov	r1,	r15	
    d460:	3f 50 a8 00 	add	#168,	r15	;#0x00a8
    d464:	b0 12 1a e6 	call	#0xe61a	
    d468:	3d 40 20 00 	mov	#32,	r13	;#0x0020
    d46c:	0e 41       	mov	r1,	r14	
    d46e:	3e 50 98 00 	add	#152,	r14	;#0x0098
    d472:	3f 40 4c 01 	mov	#332,	r15	;#0x014c
    d476:	0f 51       	add	r1,	r15	
    d478:	0f 5a       	add	r10,	r15	
    d47a:	b0 12 1a e6 	call	#0xe61a	
    d47e:	0d 4a       	mov	r10,	r13	
    d480:	3d 50 30 00 	add	#48,	r13	;#0x0030
    d484:	0f 41       	mov	r1,	r15	
    d486:	3f 50 3c 01 	add	#316,	r15	;#0x013c
    d48a:	81 4f 16 00 	mov	r15,	22(r1)	;0x0016(r1)
    d48e:	81 4d 18 00 	mov	r13,	24(r1)	;0x0018(r1)
    d492:	81 43 1a 00 	mov	#0,	26(r1)	;r3 As==00, 0x001a(r1)
    d496:	f1 40 3a 00 c2 00 	mov.b	#58,	194(r1)	;#0x003a, 0x00c2(r1)
    d49c:	0e 4d       	mov	r13,	r14	
    d49e:	8e 10       	swpb	r14		
    d4a0:	4e 4e       	mov.b	r14,	r14	
    d4a2:	4d 4d       	mov.b	r13,	r13	
    d4a4:	8d 10       	swpb	r13		
    d4a6:	0d de       	bis	r14,	r13	
    d4a8:	81 4d c0 00 	mov	r13,	192(r1)	;0x00c0(r1)
    d4ac:	0e 41       	mov	r1,	r14	
    d4ae:	3e 50 16 00 	add	#22,	r14	;#0x0016
    d4b2:	81 4e ba 00 	mov	r14,	186(r1)	;0x00ba(r1)
    d4b6:	3d 40 10 00 	mov	#16,	r13	;#0x0010
    d4ba:	0e 43       	clr	r14		
    d4bc:	3f 50 98 ff 	add	#-104,	r15	;#0xff98
    d4c0:	b0 12 74 ea 	call	#0xea74	
    d4c4:	b1 40 fe 80 d4 00 	mov	#-32514,212(r1)	;#0x80fe, 0x00d4(r1)
    d4ca:	5e 4b 09 00 	mov.b	9(r11),	r14	;0x0009(r11)
    d4ce:	c1 4e dc 00 	mov.b	r14,	220(r1)	;0x00dc(r1)
    d4d2:	d1 4b 08 00 dd 00 	mov.b	8(r11),	221(r1)	;0x0008(r11), 0x00dd(r1)
    d4d8:	d1 4b 07 00 de 00 	mov.b	7(r11),	222(r1)	;0x0007(r11), 0x00de(r1)
    d4de:	d1 4b 06 00 df 00 	mov.b	6(r11),	223(r1)	;0x0006(r11), 0x00df(r1)
    d4e4:	d1 4b 05 00 e0 00 	mov.b	5(r11),	224(r1)	;0x0005(r11), 0x00e0(r1)
    d4ea:	d1 4b 04 00 e1 00 	mov.b	4(r11),	225(r1)	;0x0004(r11), 0x00e1(r1)
    d4f0:	d1 4b 03 00 e2 00 	mov.b	3(r11),	226(r1)	;0x0003(r11), 0x00e2(r1)
    d4f6:	d1 4b 02 00 e3 00 	mov.b	2(r11),	227(r1)	;0x0002(r11), 0x00e3(r1)
    d4fc:	6e e3       	xor.b	#2,	r14	;r3 As==10
    d4fe:	c1 4e dc 00 	mov.b	r14,	220(r1)	;0x00dc(r1)
    d502:	0f 41       	mov	r1,	r15	
    d504:	3f 50 c4 00 	add	#196,	r15	;#0x00c4
    d508:	b0 12 b0 61 	call	#0x61b0	
    d50c:	0f 41       	mov	r1,	r15	
    d50e:	3f 50 b8 00 	add	#184,	r15	;#0x00b8
    d512:	b0 12 38 74 	call	#0x7438	
    d516:	30 40 28 df 	br	#0xdf28	
    d51a:	c6 93 01 00 	tst.b	1(r6)		;0x0001(r6)
    d51e:	02 24       	jz	$+6      	;abs 0xd524
    d520:	30 40 28 df 	br	#0xdf28	
    d524:	3a 90 10 00 	cmp	#16,	r10	;#0x0010
    d528:	02 2c       	jc	$+6      	;abs 0xd52e
    d52a:	30 40 28 df 	br	#0xdf28	
    d52e:	0b 46       	mov	r6,	r11	
    d530:	3b 50 10 00 	add	#16,	r11	;#0x0010
    d534:	3a 50 f0 ff 	add	#-16,	r10	;#0xfff0
    d538:	15 41 b4 01 	mov	436(r1),r5	;0x01b4(r1)
    d53c:	35 52       	add	#8,	r5	;r2 As==11
    d53e:	2a 93       	cmp	#2,	r10	;r3 As==10
    d540:	43 28       	jnc	$+136    	;abs 0xd5c8
    d542:	6e 4b       	mov.b	@r11,	r14	
    d544:	5f 4b 01 00 	mov.b	1(r11),	r15	;0x0001(r11)
    d548:	4f 5f       	rla.b	r15		
    d54a:	4f 5f       	rla.b	r15		
    d54c:	4f 5f       	rla.b	r15		
    d54e:	47 4f       	mov.b	r15,	r7	
    d550:	0a 97       	cmp	r7,	r10	
    d552:	02 2c       	jc	$+6      	;abs 0xd558
    d554:	30 40 28 df 	br	#0xdf28	
    d558:	5e 93       	cmp.b	#1,	r14	;r3 As==01
    d55a:	04 24       	jz	$+10     	;abs 0xd564
    d55c:	7e 90 03 00 	cmp.b	#3,	r14	;#0x0003
    d560:	30 20       	jnz	$+98     	;abs 0xd5c2
    d562:	0b 3c       	jmp	$+24     	;abs 0xd57a
    d564:	0e 43       	clr	r14		
    d566:	0f 43       	clr	r15		
    d568:	b0 12 24 4d 	call	#0x4d24	
    d56c:	0f 93       	tst	r15		
    d56e:	29 20       	jnz	$+84     	;abs 0xd5c2
    d570:	0d 45       	mov	r5,	r13	
    d572:	0e 43       	clr	r14		
    d574:	b0 12 a6 74 	call	#0x74a6	
    d578:	24 3c       	jmp	$+74     	;abs 0xd5c2
    d57a:	5e 4b 03 00 	mov.b	3(r11),	r14	;0x0003(r11)
    d57e:	3e f0 40 00 	and	#64,	r14	;#0x0040
    d582:	7f 40 06 00 	mov.b	#6,	r15	;#0x0006
    d586:	0e 11       	rra	r14		
    d588:	7f 53       	add.b	#-1,	r15	;r3 As==11
    d58a:	fd 23       	jnz	$-4      	;abs 0xd586
    d58c:	4e 93       	tst.b	r14		
    d58e:	19 24       	jz	$+52     	;abs 0xd5c2
    d590:	56 4b 02 00 	mov.b	2(r11),	r6	;0x0002(r11)
    d594:	46 93       	tst.b	r6		
    d596:	15 24       	jz	$+44     	;abs 0xd5c2
    d598:	0f 4b       	mov	r11,	r15	
    d59a:	3f 52       	add	#8,	r15	;r2 As==11
    d59c:	b0 12 96 47 	call	#0x4796	
    d5a0:	08 4e       	mov	r14,	r8	
    d5a2:	09 4f       	mov	r15,	r9	
    d5a4:	0f 4b       	mov	r11,	r15	
    d5a6:	2f 52       	add	#4,	r15	;r2 As==10
    d5a8:	b0 12 96 47 	call	#0x4796	
    d5ac:	09 12       	push	r9		
    d5ae:	08 12       	push	r8		
    d5b0:	0c 4e       	mov	r14,	r12	
    d5b2:	0d 4f       	mov	r15,	r13	
    d5b4:	4e 46       	mov.b	r6,	r14	
    d5b6:	0f 4b       	mov	r11,	r15	
    d5b8:	3f 50 10 00 	add	#16,	r15	;#0x0010
    d5bc:	b0 12 92 4e 	call	#0x4e92	
    d5c0:	21 52       	add	#4,	r1	;r2 As==10
    d5c2:	0b 57       	add	r7,	r11	
    d5c4:	0a 87       	sub	r7,	r10	
    d5c6:	bb 3f       	jmp	$-136    	;abs 0xd53e
    d5c8:	f2 f0 fd ff ea 1b 	and.b	#-3,	&0x1bea	;#0xfffd
    d5ce:	30 40 28 df 	br	#0xdf28	
    d5d2:	5c 46 01 00 	mov.b	1(r6),	r12	;0x0001(r6)
    d5d6:	5c 93       	cmp.b	#1,	r12	;r3 As==01
    d5d8:	06 24       	jz	$+14     	;abs 0xd5e6
    d5da:	6c 93       	cmp.b	#2,	r12	;r3 As==10
    d5dc:	02 24       	jz	$+6      	;abs 0xd5e2
    d5de:	30 40 5c de 	br	#0xde5c	
    d5e2:	30 40 e4 db 	br	#0xdbe4	
    d5e6:	c2 93 e2 11 	tst.b	&0x11e2	
    d5ea:	02 20       	jnz	$+6      	;abs 0xd5f0
    d5ec:	30 40 5c de 	br	#0xde5c	
    d5f0:	92 92 9e 11 8c 11 	cmp	&0x119e,&0x118c	
    d5f6:	02 20       	jnz	$+6      	;abs 0xd5fc
    d5f8:	30 40 36 da 	br	#0xda36	
    d5fc:	5c 46 06 00 	mov.b	6(r6),	r12	;0x0006(r6)
    d600:	8c 10       	swpb	r12		
    d602:	5b 46 07 00 	mov.b	7(r6),	r11	;0x0007(r6)
    d606:	0c db       	bis	r11,	r12	
    d608:	3c 93       	cmp	#-1,	r12	;r3 As==11
    d60a:	02 20       	jnz	$+6      	;abs 0xd610
    d60c:	30 40 36 da 	br	#0xda36	
    d610:	3a 90 1c 00 	cmp	#28,	r10	;#0x001c
    d614:	02 2c       	jc	$+6      	;abs 0xd61a
    d616:	30 40 36 da 	br	#0xda36	
    d61a:	07 46       	mov	r6,	r7	
    d61c:	37 50 1c 00 	add	#28,	r7	;#0x001c
    d620:	0e 4a       	mov	r10,	r14	
    d622:	3e 50 e4 ff 	add	#-28,	r14	;#0xffe4
    d626:	0c 4a       	mov	r10,	r12	
    d628:	3c 50 dc ff 	add	#-36,	r12	;#0xffdc
    d62c:	0c 93       	tst	r12		
    d62e:	02 34       	jge	$+6      	;abs 0xd634
    d630:	3c 50 07 00 	add	#7,	r12	;#0x0007
    d634:	0c 11       	rra	r12		
    d636:	0c 11       	rra	r12		
    d638:	0c 11       	rra	r12		
    d63a:	c1 4c 03 00 	mov.b	r12,	3(r1)	;0x0003(r1)
    d63e:	a1 43 18 00 	mov	#2,	24(r1)	;r3 As==10, 0x0018(r1)
    d642:	0f 41       	mov	r1,	r15	
    d644:	2f 53       	incd	r15		
    d646:	81 4f 16 00 	mov	r15,	22(r1)	;0x0016(r1)
    d64a:	3f 50 1a 00 	add	#26,	r15	;#0x001a
    d64e:	81 4f 1a 00 	mov	r15,	26(r1)	;0x001a(r1)
    d652:	81 4e 1e 00 	mov	r14,	30(r1)	;0x001e(r1)
    d656:	81 47 1c 00 	mov	r7,	28(r1)	;0x001c(r1)
    d65a:	81 43 20 00 	mov	#0,	32(r1)	;r3 As==00, 0x0020(r1)
    d65e:	58 46 06 00 	mov.b	6(r6),	r8	;0x0006(r6)
    d662:	59 46 07 00 	mov.b	7(r6),	r9	;0x0007(r6)
    d666:	5e 46 08 00 	mov.b	8(r6),	r14	;0x0008(r6)
    d66a:	7e f0 07 00 	and.b	#7,	r14	;#0x0007
    d66e:	c1 4e b6 01 	mov.b	r14,	438(r1)	;0x01b6(r1)
    d672:	3d 40 10 00 	mov	#16,	r13	;#0x0010
    d676:	0e 46       	mov	r6,	r14	
    d678:	3e 50 0c 00 	add	#12,	r14	;#0x000c
    d67c:	3f 50 06 00 	add	#6,	r15	;#0x0006
    d680:	b0 12 1a e6 	call	#0xe61a	
    d684:	3d 40 10 00 	mov	#16,	r13	;#0x0010
    d688:	3e 40 f6 1c 	mov	#7414,	r14	;#0x1cf6
    d68c:	3f 40 fe 23 	mov	#9214,	r15	;#0x23fe
    d690:	b0 12 22 e8 	call	#0xe822	
    d694:	0f 93       	tst	r15		
    d696:	17 24       	jz	$+48     	;abs 0xd6c6
    d698:	3d 40 10 00 	mov	#16,	r13	;#0x0010
    d69c:	0e 41       	mov	r1,	r14	
    d69e:	3e 50 22 00 	add	#34,	r14	;#0x0022
    d6a2:	3f 40 fe 23 	mov	#9214,	r15	;#0x23fe
    d6a6:	b0 12 22 e8 	call	#0xe822	
    d6aa:	0f 93       	tst	r15		
    d6ac:	2c 24       	jz	$+90     	;abs 0xd706
    d6ae:	5a 42 86 11 	mov.b	&0x1186,r10	
    d6b2:	5a 91 b6 01 	cmp.b	438(r1),r10	;0x01b6(r1)
    d6b6:	02 2c       	jc	$+6      	;abs 0xd6bc
    d6b8:	30 40 e2 d9 	br	#0xd9e2	
    d6bc:	c1 9a b6 01 	cmp.b	r10,	438(r1)	;0x01b6(r1)
    d6c0:	02 28       	jnc	$+6      	;abs 0xd6c6
    d6c2:	30 40 e2 d9 	br	#0xd9e2	
    d6c6:	d2 41 b6 01 86 11 	mov.b	438(r1),&0x1186	;0x01b6(r1)
    d6cc:	3d 40 10 00 	mov	#16,	r13	;#0x0010
    d6d0:	0e 41       	mov	r1,	r14	
    d6d2:	3e 50 22 00 	add	#34,	r14	;#0x0022
    d6d6:	3f 40 fe 23 	mov	#9214,	r15	;#0x23fe
    d6da:	b0 12 1a e6 	call	#0xe61a	
    d6de:	c2 43 ea 11 	mov.b	#0,	&0x11ea	;r3 As==00
    d6e2:	d2 46 05 00 e8 11 	mov.b	5(r6),	&0x11e8	;0x0005(r6)
    d6e8:	c2 43 e9 11 	mov.b	#0,	&0x11e9	;r3 As==00
    d6ec:	b2 43 66 11 	mov	#-1,	&0x1166	;r3 As==11
    d6f0:	b2 43 64 11 	mov	#-1,	&0x1164	;r3 As==11
    d6f4:	b2 43 8c 11 	mov	#-1,	&0x118c	;r3 As==11
    d6f8:	b2 43 8a 11 	mov	#-1,	&0x118a	;r3 As==11
    d6fc:	b0 12 e6 4b 	call	#0x4be6	
    d700:	d1 43 b7 01 	mov.b	#1,	439(r1)	;r3 As==01, 0x01b7(r1)
    d704:	15 3c       	jmp	$+44     	;abs 0xd730
    d706:	5c 46 05 00 	mov.b	5(r6),	r12	;0x0005(r6)
    d70a:	1c 92 e8 11 	cmp	&0x11e8,r12	
    d70e:	0e 24       	jz	$+30     	;abs 0xd72c
    d710:	c2 43 ea 11 	mov.b	#0,	&0x11ea	;r3 As==00
    d714:	82 4c e8 11 	mov	r12,	&0x11e8	
    d718:	b2 43 66 11 	mov	#-1,	&0x1166	;r3 As==11
    d71c:	b2 43 64 11 	mov	#-1,	&0x1164	;r3 As==11
    d720:	b2 43 8c 11 	mov	#-1,	&0x118c	;r3 As==11
    d724:	b2 43 8a 11 	mov	#-1,	&0x118a	;r3 As==11
    d728:	b0 12 e6 4b 	call	#0x4be6	
    d72c:	c1 43 b7 01 	mov.b	#0,	439(r1)	;r3 As==00, 0x01b7(r1)
    d730:	48 48       	mov.b	r8,	r8	
    d732:	81 48 b8 01 	mov	r8,	440(r1)	;0x01b8(r1)
    d736:	91 10 b8 01 	swpb	440(r1)	;0x01b8(r1)
    d73a:	4c 49       	mov.b	r9,	r12	
    d73c:	81 dc b8 01 	bis	r12,	440(r1)	;0x01b8(r1)
    d740:	6e 43       	mov.b	#2,	r14	;r3 As==10
    d742:	0f 41       	mov	r1,	r15	
    d744:	3f 50 16 00 	add	#22,	r15	;#0x0016
    d748:	b0 12 e8 cc 	call	#0xcce8	
    d74c:	09 4f       	mov	r15,	r9	
    d74e:	0c 4f       	mov	r15,	r12	
    d750:	2c 83       	decd	r12		
    d752:	c2 43 bc 15 	mov.b	#0,	&0x15bc	;r3 As==00
    d756:	82 43 8a 12 	mov	#0,	&0x128a	;r3 As==00
    d75a:	0c 93       	tst	r12		
    d75c:	16 38       	jl	$+46     	;abs 0xd78a
    d75e:	0c 57       	add	r7,	r12	
    d760:	ec 92 01 00 	cmp.b	#4,	1(r12)	;r2 As==10, 0x0001(r12)
    d764:	1a 28       	jnc	$+54     	;abs 0xd79a
    d766:	09 57       	add	r7,	r9	
    d768:	f9 90 07 00 00 00 	cmp.b	#7,	0(r9)	;#0x0007, 0x0000(r9)
    d76e:	15 20       	jnz	$+44     	;abs 0xd79a
    d770:	e9 93 03 00 	cmp.b	#2,	3(r9)	;r3 As==10, 0x0003(r9)
    d774:	12 20       	jnz	$+38     	;abs 0xd79a
    d776:	5a 49 04 00 	mov.b	4(r9),	r10	;0x0004(r9)
    d77a:	8a 10       	swpb	r10		
    d77c:	59 49 05 00 	mov.b	5(r9),	r9	;0x0005(r9)
    d780:	0a d9       	bis	r9,	r10	
    d782:	f2 40 07 00 bc 15 	mov.b	#7,	&0x15bc	;#0x0007
    d788:	09 3c       	jmp	$+20     	;abs 0xd79c
    d78a:	1a 41 b8 01 	mov	440(r1),r10	;0x01b8(r1)
    d78e:	0a 5a       	rla	r10		
    d790:	0c 4a       	mov	r10,	r12	
    d792:	0c 5c       	rla	r12		
    d794:	0c 5c       	rla	r12		
    d796:	0a 5c       	add	r12,	r10	
    d798:	01 3c       	jmp	$+4      	;abs 0xd79c
    d79a:	3a 43       	mov	#-1,	r10	;r3 As==11
    d79c:	6e 42       	mov.b	#4,	r14	;r2 As==10
    d79e:	0f 41       	mov	r1,	r15	
    d7a0:	3f 50 16 00 	add	#22,	r15	;#0x0016
    d7a4:	b0 12 e8 cc 	call	#0xcce8	
    d7a8:	09 4f       	mov	r15,	r9	
    d7aa:	29 83       	decd	r9		
    d7ac:	09 93       	tst	r9		
    d7ae:	2d 38       	jl	$+92     	;abs 0xd80a
    d7b0:	0e 47       	mov	r7,	r14	
    d7b2:	0e 59       	add	r9,	r14	
    d7b4:	59 4e 0a 00 	mov.b	10(r14),r9	;0x000a(r14)
    d7b8:	89 10       	swpb	r9		
    d7ba:	58 4e 0b 00 	mov.b	11(r14),r8	;0x000b(r14)
    d7be:	09 d8       	bis	r8,	r9	
    d7c0:	82 49 8a 12 	mov	r9,	&0x128a	
    d7c4:	5c 4e 06 00 	mov.b	6(r14),	r12	;0x0006(r14)
    d7c8:	8c 10       	swpb	r12		
    d7ca:	58 4e 07 00 	mov.b	7(r14),	r8	;0x0007(r14)
    d7ce:	0c d8       	bis	r8,	r12	
    d7d0:	82 4c 88 11 	mov	r12,	&0x1188	
    d7d4:	5d 4e 08 00 	mov.b	8(r14),	r13	;0x0008(r14)
    d7d8:	8d 10       	swpb	r13		
    d7da:	59 4e 09 00 	mov.b	9(r14),	r9	;0x0009(r14)
    d7de:	0d d9       	bis	r9,	r13	
    d7e0:	5f 4e 05 00 	mov.b	5(r14),	r15	;0x0005(r14)
    d7e4:	5b 4e 04 00 	mov.b	4(r14),	r11	;0x0004(r14)
    d7e8:	d2 4e 03 00 7c 11 	mov.b	3(r14),	&0x117c	;0x0003(r14)
    d7ee:	c2 4b 7b 11 	mov.b	r11,	&0x117b	
    d7f2:	c2 4f 7a 11 	mov.b	r15,	&0x117a	
    d7f6:	c2 4c 76 11 	mov.b	r12,	&0x1176	
    d7fa:	c2 43 77 11 	mov.b	#0,	&0x1177	;r3 As==00
    d7fe:	c2 4d 78 11 	mov.b	r13,	&0x1178	
    d802:	c2 43 79 11 	mov.b	#0,	&0x1179	;r3 As==00
    d806:	82 4d 5e 11 	mov	r13,	&0x115e	
    d80a:	7e 42       	mov.b	#8,	r14	;r2 As==11
    d80c:	0f 41       	mov	r1,	r15	
    d80e:	3f 50 16 00 	add	#22,	r15	;#0x0016
    d812:	b0 12 e8 cc 	call	#0xcce8	
    d816:	0b 4f       	mov	r15,	r11	
    d818:	2b 83       	decd	r11		
    d81a:	0b 93       	tst	r11		
    d81c:	25 38       	jl	$+76     	;abs 0xd868
    d81e:	07 5b       	add	r11,	r7	
    d820:	59 47 03 00 	mov.b	3(r7),	r9	;0x0003(r7)
    d824:	39 f0 40 00 	and	#64,	r9	;#0x0040
    d828:	7b 40 06 00 	mov.b	#6,	r11	;#0x0006
    d82c:	09 11       	rra	r9		
    d82e:	7b 53       	add.b	#-1,	r11	;r3 As==11
    d830:	fd 23       	jnz	$-4      	;abs 0xd82c
    d832:	49 93       	tst.b	r9		
    d834:	19 24       	jz	$+52     	;abs 0xd868
    d836:	5b 47 02 00 	mov.b	2(r7),	r11	;0x0002(r7)
    d83a:	4b 93       	tst.b	r11		
    d83c:	15 24       	jz	$+44     	;abs 0xd868
    d83e:	0f 47       	mov	r7,	r15	
    d840:	3f 52       	add	#8,	r15	;r2 As==11
    d842:	b0 12 96 47 	call	#0x4796	
    d846:	04 4e       	mov	r14,	r4	
    d848:	05 4f       	mov	r15,	r5	
    d84a:	0f 47       	mov	r7,	r15	
    d84c:	2f 52       	add	#4,	r15	;r2 As==10
    d84e:	b0 12 96 47 	call	#0x4796	
    d852:	05 12       	push	r5		
    d854:	04 12       	push	r4		
    d856:	0c 4e       	mov	r14,	r12	
    d858:	0d 4f       	mov	r15,	r13	
    d85a:	4e 4b       	mov.b	r11,	r14	
    d85c:	0f 47       	mov	r7,	r15	
    d85e:	3f 50 10 00 	add	#16,	r15	;#0x0010
    d862:	b0 12 92 4e 	call	#0x4e92	
    d866:	21 52       	add	#4,	r1	;r2 As==10
    d868:	1b 41 b4 01 	mov	436(r1),r11	;0x01b4(r1)
    d86c:	3b 52       	add	#8,	r11	;r2 As==11
    d86e:	3d 40 10 00 	mov	#16,	r13	;#0x0010
    d872:	0e 4b       	mov	r11,	r14	
    d874:	0f 41       	mov	r1,	r15	
    d876:	3f 50 3c 01 	add	#316,	r15	;#0x013c
    d87a:	b0 12 1a e6 	call	#0xe61a	
    d87e:	91 41 b8 01 4c 01 	mov	440(r1),332(r1)	;0x01b8(r1), 0x014c(r1)
    d884:	b1 40 0a 00 50 01 	mov	#10,	336(r1)	;#0x000a, 0x0150(r1)
    d88a:	d1 43 52 01 	mov.b	#1,	338(r1)	;r3 As==01, 0x0152(r1)
    d88e:	81 4a 4e 01 	mov	r10,	334(r1)	;0x014e(r1)
    d892:	82 93 8a 12 	tst	&0x128a	
    d896:	17 24       	jz	$+48     	;abs 0xd8c6
    d898:	30 40 56 df 	br	#0xdf56	
    d89c:	31 50 e8 ff 	add	#-24,	r1	;#0xffe8
    d8a0:	3d 40 18 00 	mov	#24,	r13	;#0x0018
    d8a4:	0e 41       	mov	r1,	r14	
    d8a6:	3e 50 54 01 	add	#340,	r14	;#0x0154
    d8aa:	0f 41       	mov	r1,	r15	
    d8ac:	b0 12 80 e8 	call	#0xe880	
    d8b0:	b0 12 92 cb 	call	#0xcb92	
    d8b4:	31 50 18 00 	add	#24,	r1	;#0x0018
    d8b8:	b0 12 b6 86 	call	#0x86b6	
    d8bc:	b2 43 8c 11 	mov	#-1,	&0x118c	;r3 As==11
    d8c0:	d2 43 ec 11 	mov.b	#1,	&0x11ec	;r3 As==01
    d8c4:	b8 3c       	jmp	$+370    	;abs 0xda36
    d8c6:	0f 4b       	mov	r11,	r15	
    d8c8:	b0 12 4c 51 	call	#0x514c	
    d8cc:	7f 90 14 00 	cmp.b	#20,	r15	;#0x0014
    d8d0:	53 24       	jz	$+168    	;abs 0xd978
    d8d2:	c1 93 b7 01 	tst.b	439(r1)	;0x01b7(r1)
    d8d6:	2f 24       	jz	$+96     	;abs 0xd936
    d8d8:	c2 93 ea 11 	tst.b	&0x11ea	
    d8dc:	85 24       	jz	$+268    	;abs 0xd9e8
    d8de:	b0 12 b6 86 	call	#0x86b6	
    d8e2:	5c 42 62 11 	mov.b	&0x1162,r12	
    d8e6:	02 12       	push	r2		
    d8e8:	32 c2       	dint			
    d8ea:	03 43       	nop			
    d8ec:	82 4c 32 01 	mov	r12,	&0x0132	
    d8f0:	b2 40 18 00 38 01 	mov	#24,	&0x0138	;#0x0018
    d8f6:	1c 42 3a 01 	mov	&0x013a,r12	
    d8fa:	32 41       	pop	r2		
    d8fc:	0f 4c       	mov	r12,	r15	
    d8fe:	3f 50 dc 13 	add	#5084,	r15	;#0x13dc
    d902:	b0 12 4c 51 	call	#0x514c	
    d906:	4c 4f       	mov.b	r15,	r12	
    d908:	02 12       	push	r2		
    d90a:	32 c2       	dint			
    d90c:	03 43       	nop			
    d90e:	82 4c 32 01 	mov	r12,	&0x0132	
    d912:	b2 40 18 00 38 01 	mov	#24,	&0x0138	;#0x0018
    d918:	1c 42 3a 01 	mov	&0x013a,r12	
    d91c:	32 41       	pop	r2		
    d91e:	1d 4c f0 13 	mov	5104(r12),r13	;0x13f0(r12)
    d922:	1d 5c ee 13 	add	5102(r12),r13	;0x13ee(r12)
    d926:	1e 41 50 01 	mov	336(r1),r14	;0x0150(r1)
    d92a:	1e 51 4e 01 	add	334(r1),r14	;0x014e(r1)
    d92e:	0d 9e       	cmp	r14,	r13	
    d930:	1e 24       	jz	$+62     	;abs 0xd96e
    d932:	1d 28       	jnc	$+60     	;abs 0xd96e
    d934:	59 3c       	jmp	$+180    	;abs 0xd9e8
    d936:	4b 4f       	mov.b	r15,	r11	
    d938:	02 12       	push	r2		
    d93a:	32 c2       	dint			
    d93c:	03 43       	nop			
    d93e:	82 4b 32 01 	mov	r11,	&0x0132	
    d942:	b2 40 18 00 38 01 	mov	#24,	&0x0138	;#0x0018
    d948:	19 42 3a 01 	mov	&0x013a,r9	
    d94c:	32 41       	pop	r2		
    d94e:	99 41 b8 01 ec 13 	mov	440(r1),5100(r9);0x01b8(r1), 0x13ec(r9)
    d954:	02 12       	push	r2		
    d956:	32 c2       	dint			
    d958:	03 43       	nop			
    d95a:	82 4b 32 01 	mov	r11,	&0x0132	
    d95e:	b2 40 18 00 38 01 	mov	#24,	&0x0138	;#0x0018
    d964:	1b 42 3a 01 	mov	&0x013a,r11	
    d968:	32 41       	pop	r2		
    d96a:	8b 4a ee 13 	mov	r10,	5102(r11);0x13ee(r11)
    d96e:	b0 12 b6 86 	call	#0x86b6	
    d972:	b0 12 d2 88 	call	#0x88d2	
    d976:	35 3c       	jmp	$+108    	;abs 0xd9e2
    d978:	5c 42 ea 11 	mov.b	&0x11ea,r12	
    d97c:	7c 90 15 00 	cmp.b	#21,	r12	;#0x0015
    d980:	5a 2c       	jc	$+182    	;abs 0xda36
    d982:	c1 93 b7 01 	tst.b	439(r1)	;0x01b7(r1)
    d986:	45 24       	jz	$+140    	;abs 0xda12
    d988:	4c 93       	tst.b	r12		
    d98a:	2e 24       	jz	$+94     	;abs 0xd9e8
    d98c:	b0 12 b6 86 	call	#0x86b6	
    d990:	5c 42 62 11 	mov.b	&0x1162,r12	
    d994:	02 12       	push	r2		
    d996:	32 c2       	dint			
    d998:	03 43       	nop			
    d99a:	82 4c 32 01 	mov	r12,	&0x0132	
    d99e:	b2 40 18 00 38 01 	mov	#24,	&0x0138	;#0x0018
    d9a4:	1c 42 3a 01 	mov	&0x013a,r12	
    d9a8:	32 41       	pop	r2		
    d9aa:	0f 4c       	mov	r12,	r15	
    d9ac:	3f 50 dc 13 	add	#5084,	r15	;#0x13dc
    d9b0:	b0 12 4c 51 	call	#0x514c	
    d9b4:	4c 4f       	mov.b	r15,	r12	
    d9b6:	02 12       	push	r2		
    d9b8:	32 c2       	dint			
    d9ba:	03 43       	nop			
    d9bc:	82 4c 32 01 	mov	r12,	&0x0132	
    d9c0:	b2 40 18 00 38 01 	mov	#24,	&0x0138	;#0x0018
    d9c6:	1c 42 3a 01 	mov	&0x013a,r12	
    d9ca:	32 41       	pop	r2		
    d9cc:	1d 4c f0 13 	mov	5104(r12),r13	;0x13f0(r12)
    d9d0:	1d 5c ee 13 	add	5102(r12),r13	;0x13ee(r12)
    d9d4:	1e 41 50 01 	mov	336(r1),r14	;0x0150(r1)
    d9d8:	1e 51 4e 01 	add	334(r1),r14	;0x014e(r1)
    d9dc:	0d 9e       	cmp	r14,	r13	
    d9de:	01 24       	jz	$+4      	;abs 0xd9e2
    d9e0:	03 2c       	jc	$+8      	;abs 0xd9e8
    d9e2:	d2 43 e6 11 	mov.b	#1,	&0x11e6	;r3 As==01
    d9e6:	27 3c       	jmp	$+80     	;abs 0xda36
    d9e8:	d2 41 b6 01 86 11 	mov.b	438(r1),&0x1186	;0x01b6(r1)
    d9ee:	3d 40 10 00 	mov	#16,	r13	;#0x0010
    d9f2:	0e 41       	mov	r1,	r14	
    d9f4:	3e 50 22 00 	add	#34,	r14	;#0x0022
    d9f8:	3f 40 fe 23 	mov	#9214,	r15	;#0x23fe
    d9fc:	b0 12 1a e6 	call	#0xe61a	
    da00:	c2 43 ea 11 	mov.b	#0,	&0x11ea	;r3 As==00
    da04:	d2 46 05 00 e8 11 	mov.b	5(r6),	&0x11e8	;0x0005(r6)
    da0a:	c2 43 e9 11 	mov.b	#0,	&0x11e9	;r3 As==00
    da0e:	b0 12 e6 4b 	call	#0x4be6	
    da12:	31 50 e8 ff 	add	#-24,	r1	;#0xffe8
    da16:	3d 40 18 00 	mov	#24,	r13	;#0x0018
    da1a:	0e 41       	mov	r1,	r14	
    da1c:	3e 50 54 01 	add	#340,	r14	;#0x0154
    da20:	0f 41       	mov	r1,	r15	
    da22:	b0 12 80 e8 	call	#0xe880	
    da26:	b0 12 92 cb 	call	#0xcb92	
    da2a:	31 50 18 00 	add	#24,	r1	;#0x0018
    da2e:	b0 12 b6 86 	call	#0x86b6	
    da32:	b0 12 d2 88 	call	#0x88d2	
    da36:	5c 46 06 00 	mov.b	6(r6),	r12	;0x0006(r6)
    da3a:	8c 10       	swpb	r12		
    da3c:	5b 46 07 00 	mov.b	7(r6),	r11	;0x0007(r6)
    da40:	0c db       	bis	r11,	r12	
    da42:	3c 93       	cmp	#-1,	r12	;r3 As==11
    da44:	0a 20       	jnz	$+22     	;abs 0xda5a
    da46:	1f 41 b4 01 	mov	436(r1),r15	;0x01b4(r1)
    da4a:	3f 52       	add	#8,	r15	;r2 As==11
    da4c:	b0 12 4c 51 	call	#0x514c	
    da50:	7f 90 14 00 	cmp.b	#20,	r15	;#0x0014
    da54:	02 24       	jz	$+6      	;abs 0xda5a
    da56:	b0 12 6a 86 	call	#0x866a	
    da5a:	5c 46 06 00 	mov.b	6(r6),	r12	;0x0006(r6)
    da5e:	8c 10       	swpb	r12		
    da60:	5b 46 07 00 	mov.b	7(r6),	r11	;0x0007(r6)
    da64:	0c db       	bis	r11,	r12	
    da66:	1c 92 8c 11 	cmp	&0x118c,r12	
    da6a:	04 28       	jnc	$+10     	;abs 0xda74
    da6c:	3c 93       	cmp	#-1,	r12	;r3 As==11
    da6e:	02 24       	jz	$+6      	;abs 0xda74
    da70:	30 40 5c de 	br	#0xde5c	
    da74:	c2 93 e6 11 	tst.b	&0x11e6	
    da78:	b1 20       	jnz	$+356    	;abs 0xdbdc
    da7a:	c2 93 da 11 	tst.b	&0x11da	
    da7e:	ae 24       	jz	$+350    	;abs 0xdbdc
    da80:	c2 93 de 11 	tst.b	&0x11de	
    da84:	ab 20       	jnz	$+344    	;abs 0xdbdc
    da86:	f2 93 7a 11 	cmp.b	#-1,	&0x117a	;r3 As==11
    da8a:	03 24       	jz	$+8      	;abs 0xda92
    da8c:	d2 53 7d 11 	inc.b	&0x117d	
    da90:	02 3c       	jmp	$+6      	;abs 0xda96
    da92:	f2 43 7d 11 	mov.b	#-1,	&0x117d	;r3 As==11
    da96:	3c 93       	cmp	#-1,	r12	;r3 As==11
    da98:	0d 20       	jnz	$+28     	;abs 0xdab4
    da9a:	b0 12 a0 5f 	call	#0x5fa0	
    da9e:	3f 93       	cmp	#-1,	r15	;r3 As==11
    daa0:	9d 24       	jz	$+316    	;abs 0xdbdc
    daa2:	b0 12 78 76 	call	#0x7678	
    daa6:	1e b3       	bit	#1,	r14	;r3 As==01
    daa8:	99 24       	jz	$+308    	;abs 0xdbdc
    daaa:	7f 40 14 00 	mov.b	#20,	r15	;#0x0014
    daae:	b0 12 8a 63 	call	#0x638a	
    dab2:	94 3c       	jmp	$+298    	;abs 0xdbdc
    dab4:	c2 93 ea 11 	tst.b	&0x11ea	
    dab8:	09 24       	jz	$+20     	;abs 0xdacc
    daba:	e2 b3 1c 1c 	bit.b	#2,	&0x1c1c	;r3 As==10
    dabe:	0c 43       	clr	r12		
    dac0:	0c 6c       	rlc	r12		
    dac2:	4c 93       	tst.b	r12		
    dac4:	03 24       	jz	$+8      	;abs 0xdacc
    dac6:	f2 f0 fd ff 1c 1c 	and.b	#-3,	&0x1c1c	;#0xfffd
    dacc:	5e 42 ec 11 	mov.b	&0x11ec,r14	
    dad0:	c2 4e dc 11 	mov.b	r14,	&0x11dc	
    dad4:	4e 93       	tst.b	r14		
    dad6:	03 24       	jz	$+8      	;abs 0xdade
    dad8:	c2 93 d8 11 	tst.b	&0x11d8	
    dadc:	58 24       	jz	$+178    	;abs 0xdb8e
    dade:	3d 40 10 00 	mov	#16,	r13	;#0x0010
    dae2:	0e 46       	mov	r6,	r14	
    dae4:	3e 50 0c 00 	add	#12,	r14	;#0x000c
    dae8:	3f 40 ae 13 	mov	#5038,	r15	;#0x13ae
    daec:	b0 12 22 e8 	call	#0xe822	
    daf0:	0f 93       	tst	r15		
    daf2:	4d 20       	jnz	$+156    	;abs 0xdb8e
    daf4:	d2 96 04 00 d6 11 	cmp.b	4(r6),	&0x11d6	;0x0004(r6)
    dafa:	0d 20       	jnz	$+28     	;abs 0xdb16
    dafc:	5c 46 05 00 	mov.b	5(r6),	r12	;0x0005(r6)
    db00:	c2 9c d4 11 	cmp.b	r12,	&0x11d4	
    db04:	08 24       	jz	$+18     	;abs 0xdb16
    db06:	c2 93 d8 11 	tst.b	&0x11d8	
    db0a:	05 24       	jz	$+12     	;abs 0xdb16
    db0c:	c2 4c d4 11 	mov.b	r12,	&0x11d4	
    db10:	b0 12 2a 86 	call	#0x862a	
    db14:	22 3c       	jmp	$+70     	;abs 0xdb5a
    db16:	b0 12 a0 5f 	call	#0x5fa0	
    db1a:	1b 42 84 11 	mov	&0x1184,r11	
    db1e:	0f 9b       	cmp	r11,	r15	
    db20:	1c 24       	jz	$+58     	;abs 0xdb5a
    db22:	c2 93 d8 11 	tst.b	&0x11d8	
    db26:	19 24       	jz	$+52     	;abs 0xdb5a
    db28:	3b 93       	cmp	#-1,	r11	;r3 As==11
    db2a:	17 24       	jz	$+48     	;abs 0xdb5a
    db2c:	1b 42 82 11 	mov	&0x1182,r11	
    db30:	0e 4b       	mov	r11,	r14	
    db32:	1e 52 76 11 	add	&0x1176,r14	
    db36:	0e 9f       	cmp	r15,	r14	
    db38:	05 2c       	jc	$+12     	;abs 0xdb44
    db3a:	c2 43 d8 11 	mov.b	#0,	&0x11d8	;r3 As==00
    db3e:	b2 43 84 11 	mov	#-1,	&0x1184	;r3 As==11
    db42:	08 3c       	jmp	$+18     	;abs 0xdb54
    db44:	0f 9b       	cmp	r11,	r15	
    db46:	02 2c       	jc	$+6      	;abs 0xdb4c
    db48:	82 4f 82 11 	mov	r15,	&0x1182	
    db4c:	b0 12 a0 5f 	call	#0x5fa0	
    db50:	82 4f 84 11 	mov	r15,	&0x1184	
    db54:	b0 12 98 86 	call	#0x8698	
    db58:	41 3c       	jmp	$+132    	;abs 0xdbdc
    db5a:	c2 93 ea 11 	tst.b	&0x11ea	
    db5e:	04 24       	jz	$+10     	;abs 0xdb68
    db60:	c2 93 d8 11 	tst.b	&0x11d8	
    db64:	14 24       	jz	$+42     	;abs 0xdb8e
    db66:	3a 3c       	jmp	$+118    	;abs 0xdbdc
    db68:	c2 93 de 11 	tst.b	&0x11de	
    db6c:	37 20       	jnz	$+112    	;abs 0xdbdc
    db6e:	c2 43 d8 11 	mov.b	#0,	&0x11d8	;r3 As==00
    db72:	5f 46 08 00 	mov.b	8(r6),	r15	;0x0008(r6)
    db76:	7f f0 80 ff 	and.b	#-128,	r15	;#0xff80
    db7a:	c2 4f 80 11 	mov.b	r15,	&0x1180	
    db7e:	f2 f0 fd ff 12 1c 	and.b	#-3,	&0x1c12	;#0xfffd
    db84:	b0 12 2a 86 	call	#0x862a	
    db88:	b0 12 fc 84 	call	#0x84fc	
    db8c:	27 3c       	jmp	$+80     	;abs 0xdbdc
    db8e:	d2 43 d8 11 	mov.b	#1,	&0x11d8	;r3 As==01
    db92:	5e 46 08 00 	mov.b	8(r6),	r14	;0x0008(r6)
    db96:	0c 4e       	mov	r14,	r12	
    db98:	3c f0 38 00 	and	#56,	r12	;#0x0038
    db9c:	0c 11       	rra	r12		
    db9e:	0c 11       	rra	r12		
    dba0:	0c 11       	rra	r12		
    dba2:	c2 4c 7f 11 	mov.b	r12,	&0x117f	
    dba6:	7e f0 07 00 	and.b	#7,	r14	;#0x0007
    dbaa:	c2 4e 7e 11 	mov.b	r14,	&0x117e	
    dbae:	d2 46 04 00 d6 11 	mov.b	4(r6),	&0x11d6	;0x0004(r6)
    dbb4:	3d 40 10 00 	mov	#16,	r13	;#0x0010
    dbb8:	0e 46       	mov	r6,	r14	
    dbba:	3e 50 0c 00 	add	#12,	r14	;#0x000c
    dbbe:	3f 40 ae 13 	mov	#5038,	r15	;#0x13ae
    dbc2:	b0 12 80 e8 	call	#0xe880	
    dbc6:	d2 46 05 00 d4 11 	mov.b	5(r6),	&0x11d4	;0x0005(r6)
    dbcc:	5e 46 08 00 	mov.b	8(r6),	r14	;0x0008(r6)
    dbd0:	7e f0 80 ff 	and.b	#-128,	r14	;#0xff80
    dbd4:	c2 4e 80 11 	mov.b	r14,	&0x1180	
    dbd8:	b0 12 2a 86 	call	#0x862a	
    dbdc:	c2 43 e6 11 	mov.b	#0,	&0x11e6	;r3 As==00
    dbe0:	30 40 5c de 	br	#0xde5c	
    dbe4:	c2 93 c4 11 	tst.b	&0x11c4	
    dbe8:	02 20       	jnz	$+6      	;abs 0xdbee
    dbea:	30 40 5c de 	br	#0xde5c	
    dbee:	3a 92       	cmp	#8,	r10	;r2 As==11
    dbf0:	02 2c       	jc	$+6      	;abs 0xdbf6
    dbf2:	30 40 5c de 	br	#0xde5c	
    dbf6:	5c 46 05 00 	mov.b	5(r6),	r12	;0x0005(r6)
    dbfa:	3c f0 40 00 	and	#64,	r12	;#0x0040
    dbfe:	7b 40 06 00 	mov.b	#6,	r11	;#0x0006
    dc02:	0c 11       	rra	r12		
    dc04:	7b 53       	add.b	#-1,	r11	;r3 As==11
    dc06:	fd 23       	jnz	$-4      	;abs 0xdc02
    dc08:	09 46       	mov	r6,	r9	
    dc0a:	0c 93       	tst	r12		
    dc0c:	06 24       	jz	$+14     	;abs 0xdc1a
    dc0e:	39 50 18 00 	add	#24,	r9	;#0x0018
    dc12:	0c 4a       	mov	r10,	r12	
    dc14:	3c 50 e8 ff 	add	#-24,	r12	;#0xffe8
    dc18:	03 3c       	jmp	$+8      	;abs 0xdc20
    dc1a:	39 52       	add	#8,	r9	;r2 As==11
    dc1c:	0c 4a       	mov	r10,	r12	
    dc1e:	3c 82       	sub	#8,	r12	;r2 As==11
    dc20:	2c 93       	cmp	#2,	r12	;r3 As==10
    dc22:	02 2c       	jc	$+6      	;abs 0xdc28
    dc24:	30 40 5c de 	br	#0xde5c	
    dc28:	07 43       	clr	r7		
    dc2a:	08 43       	clr	r8		
    dc2c:	2b 3c       	jmp	$+88     	;abs 0xdc84
    dc2e:	6f 49       	mov.b	@r9,	r15	
    dc30:	7f 90 05 00 	cmp.b	#5,	r15	;#0x0005
    dc34:	0c 20       	jnz	$+26     	;abs 0xdc4e
    dc36:	5f 49 01 00 	mov.b	1(r9),	r15	;0x0001(r9)
    dc3a:	0e 4f       	mov	r15,	r14	
    dc3c:	2e 53       	incd	r14		
    dc3e:	0c 9e       	cmp	r14,	r12	
    dc40:	02 2c       	jc	$+6      	;abs 0xdc46
    dc42:	30 40 5c de 	br	#0xde5c	
    dc46:	0c 8f       	sub	r15,	r12	
    dc48:	2c 83       	decd	r12		
    dc4a:	08 49       	mov	r9,	r8	
    dc4c:	0e 3c       	jmp	$+30     	;abs 0xdc6a
    dc4e:	7f 90 06 00 	cmp.b	#6,	r15	;#0x0006
    dc52:	0d 20       	jnz	$+28     	;abs 0xdc6e
    dc54:	5f 49 01 00 	mov.b	1(r9),	r15	;0x0001(r9)
    dc58:	0e 4f       	mov	r15,	r14	
    dc5a:	2e 53       	incd	r14		
    dc5c:	0c 9e       	cmp	r14,	r12	
    dc5e:	02 2c       	jc	$+6      	;abs 0xdc64
    dc60:	30 40 5c de 	br	#0xde5c	
    dc64:	0c 8f       	sub	r15,	r12	
    dc66:	2c 83       	decd	r12		
    dc68:	07 49       	mov	r9,	r7	
    dc6a:	09 5e       	add	r14,	r9	
    dc6c:	0b 3c       	jmp	$+24     	;abs 0xdc84
    dc6e:	5f 49 01 00 	mov.b	1(r9),	r15	;0x0001(r9)
    dc72:	0e 4f       	mov	r15,	r14	
    dc74:	2e 53       	incd	r14		
    dc76:	0c 9e       	cmp	r14,	r12	
    dc78:	02 2c       	jc	$+6      	;abs 0xdc7e
    dc7a:	30 40 5c de 	br	#0xde5c	
    dc7e:	09 5e       	add	r14,	r9	
    dc80:	0c 8f       	sub	r15,	r12	
    dc82:	2c 83       	decd	r12		
    dc84:	3c 90 03 00 	cmp	#3,	r12	;#0x0003
    dc88:	d2 2f       	jc	$-90     	;abs 0xdc2e
    dc8a:	08 93       	tst	r8		
    dc8c:	02 20       	jnz	$+6      	;abs 0xdc92
    dc8e:	30 40 5c de 	br	#0xde5c	
    dc92:	07 93       	tst	r7		
    dc94:	02 20       	jnz	$+6      	;abs 0xdc9a
    dc96:	30 40 5c de 	br	#0xde5c	
    dc9a:	3d 40 10 00 	mov	#16,	r13	;#0x0010
    dc9e:	0e 43       	clr	r14		
    dca0:	0f 41       	mov	r1,	r15	
    dca2:	3f 50 52 00 	add	#82,	r15	;#0x0052
    dca6:	b0 12 74 ea 	call	#0xea74	
    dcaa:	5c 48 03 00 	mov.b	3(r8),	r12	;0x0003(r8)
    dcae:	12 c3       	clrc			
    dcb0:	4c 10       	rrc.b	r12		
    dcb2:	12 c3       	clrc			
    dcb4:	4c 10       	rrc.b	r12		
    dcb6:	12 c3       	clrc			
    dcb8:	4c 10       	rrc.b	r12		
    dcba:	0d 4c       	mov	r12,	r13	
    dcbc:	3d f0 1f 00 	and	#31,	r13	;#0x001f
    dcc0:	0e 48       	mov	r8,	r14	
    dcc2:	2e 52       	add	#4,	r14	;r2 As==10
    dcc4:	0f 41       	mov	r1,	r15	
    dcc6:	3f 50 52 00 	add	#82,	r15	;#0x0052
    dcca:	b0 12 80 e8 	call	#0xe880	
    dcce:	59 48 03 00 	mov.b	3(r8),	r9	;0x0003(r8)
    dcd2:	4b 49       	mov.b	r9,	r11	
    dcd4:	0e 4b       	mov	r11,	r14	
    dcd6:	0f 41       	mov	r1,	r15	
    dcd8:	3f 50 52 00 	add	#82,	r15	;#0x0052
    dcdc:	b0 12 24 4d 	call	#0x4d24	
    dce0:	0c 4f       	mov	r15,	r12	
    dce2:	0f 93       	tst	r15		
    dce4:	24 24       	jz	$+74     	;abs 0xdd2e
    dce6:	55 4f 14 00 	mov.b	20(r15),r5	;0x0014(r15)
    dcea:	45 99       	cmp.b	r9,	r5	
    dcec:	20 20       	jnz	$+66     	;abs 0xdd2e
    dcee:	09 43       	clr	r9		
    dcf0:	0e 4c       	mov	r12,	r14	
    dcf2:	0e 59       	add	r9,	r14	
    dcf4:	1f 41 b4 01 	mov	436(r1),r15	;0x01b4(r1)
    dcf8:	0f 59       	add	r9,	r15	
    dcfa:	de 9f 08 00 16 00 	cmp.b	8(r15),	22(r14)	;0x0008(r15), 0x0016(r14)
    dd00:	05 20       	jnz	$+12     	;abs 0xdd0c
    dd02:	19 53       	inc	r9		
    dd04:	39 90 10 00 	cmp	#16,	r9	;#0x0010
    dd08:	f3 23       	jnz	$-24     	;abs 0xdcf0
    dd0a:	5b 3c       	jmp	$+184    	;abs 0xddc2
    dd0c:	d2 53 74 11 	inc.b	&0x1174	
    dd10:	45 93       	tst.b	r5		
    dd12:	57 24       	jz	$+176    	;abs 0xddc2
    dd14:	1d 41 b4 01 	mov	436(r1),r13	;0x01b4(r1)
    dd18:	3d 52       	add	#8,	r13	;r2 As==11
    dd1a:	0e 4b       	mov	r11,	r14	
    dd1c:	0f 41       	mov	r1,	r15	
    dd1e:	3f 50 52 00 	add	#82,	r15	;#0x0052
    dd22:	b0 12 a6 74 	call	#0x74a6	
    dd26:	09 4f       	mov	r15,	r9	
    dd28:	3f 93       	cmp	#-1,	r15	;r3 As==11
    dd2a:	37 20       	jnz	$+112    	;abs 0xdd9a
    dd2c:	4a 3c       	jmp	$+150    	;abs 0xddc2
    dd2e:	0b 41       	mov	r1,	r11	
    dd30:	3b 50 62 00 	add	#98,	r11	;#0x0062
    dd34:	0f 4b       	mov	r11,	r15	
    dd36:	b0 12 1a 48 	call	#0x481a	
    dd3a:	f2 90 14 00 c6 11 	cmp.b	#20,	&0x11c6	;#0x0014
    dd40:	8d 24       	jz	$+284    	;abs 0xde5c
    dd42:	0c 43       	clr	r12		
    dd44:	0e 4b       	mov	r11,	r14	
    dd46:	0d 4e       	mov	r14,	r13	
    dd48:	0d 5c       	add	r12,	r13	
    dd4a:	3f 40 52 00 	mov	#82,	r15	;#0x0052
    dd4e:	0f 51       	add	r1,	r15	
    dd50:	0f 5c       	add	r12,	r15	
    dd52:	ed 9f 00 00 	cmp.b	@r15,	0(r13)	;0x0000(r13)
    dd56:	05 20       	jnz	$+12     	;abs 0xdd62
    dd58:	1c 53       	inc	r12		
    dd5a:	3c 90 10 00 	cmp	#16,	r12	;#0x0010
    dd5e:	f3 23       	jnz	$-24     	;abs 0xdd46
    dd60:	7d 3c       	jmp	$+252    	;abs 0xde5c
    dd62:	5c 48 03 00 	mov.b	3(r8),	r12	;0x0003(r8)
    dd66:	4c 93       	tst.b	r12		
    dd68:	2c 24       	jz	$+90     	;abs 0xddc2
    dd6a:	1d 41 b4 01 	mov	436(r1),r13	;0x01b4(r1)
    dd6e:	3d 52       	add	#8,	r13	;r2 As==11
    dd70:	4e 4c       	mov.b	r12,	r14	
    dd72:	0f 41       	mov	r1,	r15	
    dd74:	3f 50 52 00 	add	#82,	r15	;#0x0052
    dd78:	b0 12 a6 74 	call	#0x74a6	
    dd7c:	09 4f       	mov	r15,	r9	
    dd7e:	3f 93       	cmp	#-1,	r15	;r3 As==11
    dd80:	20 24       	jz	$+66     	;abs 0xddc2
    dd82:	5e 42 c6 11 	mov.b	&0x11c6,r14	
    dd86:	4b 4e       	mov.b	r14,	r11	
    dd88:	0c 4b       	mov	r11,	r12	
    dd8a:	0c 5c       	rla	r12		
    dd8c:	0c 5b       	add	r11,	r12	
    dd8e:	0c 5c       	rla	r12		
    dd90:	8c 4f 1e 25 	mov	r15,	9502(r12);0x251e(r12)
    dd94:	5e 53       	inc.b	r14		
    dd96:	c2 4e c6 11 	mov.b	r14,	&0x11c6	
    dd9a:	5e 42 c6 11 	mov.b	&0x11c6,r14	
    dd9e:	3c 40 1e 25 	mov	#9502,	r12	;#0x251e
    dda2:	4b 43       	clr.b	r11		
    dda4:	0c 3c       	jmp	$+26     	;abs 0xddbe
    dda6:	29 9c       	cmp	@r12,	r9	
    dda8:	07 20       	jnz	$+16     	;abs 0xddb8
    ddaa:	dc 47 05 00 02 00 	mov.b	5(r7),	2(r12)	;0x0005(r7), 0x0002(r12)
    ddb0:	cc 43 03 00 	mov.b	#0,	3(r12)	;r3 As==00, 0x0003(r12)
    ddb4:	8c 43 04 00 	mov	#0,	4(r12)	;r3 As==00, 0x0004(r12)
    ddb8:	5b 53       	inc.b	r11		
    ddba:	3c 50 06 00 	add	#6,	r12	;#0x0006
    ddbe:	4b 9e       	cmp.b	r14,	r11	
    ddc0:	f2 23       	jnz	$-26     	;abs 0xdda6
    ddc2:	b0 12 a0 5f 	call	#0x5fa0	
    ddc6:	1f 92 9e 11 	cmp	&0x119e,r15	
    ddca:	48 24       	jz	$+146    	;abs 0xde5c
    ddcc:	b0 12 2c 48 	call	#0x482c	
    ddd0:	09 4f       	mov	r15,	r9	
    ddd2:	0f 93       	tst	r15		
    ddd4:	43 24       	jz	$+136    	;abs 0xde5c
    ddd6:	3d 40 28 00 	mov	#40,	r13	;#0x0028
    ddda:	1e 41 b4 01 	mov	436(r1),r14	;0x01b4(r1)
    ddde:	2f 52       	add	#4,	r15	;r2 As==10
    dde0:	b0 12 1a e6 	call	#0xe61a	
    dde4:	0b 49       	mov	r9,	r11	
    dde6:	3b 50 2c 00 	add	#44,	r11	;#0x002c
    ddea:	0d 4a       	mov	r10,	r13	
    ddec:	0e 46       	mov	r6,	r14	
    ddee:	0f 4b       	mov	r11,	r15	
    ddf0:	b0 12 1a e6 	call	#0xe61a	
    ddf4:	89 4b 6e 00 	mov	r11,	110(r9)	;0x006e(r9)
    ddf8:	1f 41 b4 01 	mov	436(r1),r15	;0x01b4(r1)
    ddfc:	5b 4f 04 00 	mov.b	4(r15),	r11	;0x0004(r15)
    de00:	5c 4f 05 00 	mov.b	5(r15),	r12	;0x0005(r15)
    de04:	8c 10       	swpb	r12		
    de06:	0c db       	bis	r11,	r12	
    de08:	0a 4c       	mov	r12,	r10	
    de0a:	8a 10       	swpb	r10		
    de0c:	4a 4a       	mov.b	r10,	r10	
    de0e:	48 4c       	mov.b	r12,	r8	
    de10:	88 10       	swpb	r8		
    de12:	08 da       	bis	r10,	r8	
    de14:	89 48 70 00 	mov	r8,	112(r9)	;0x0070(r9)
    de18:	89 43 72 00 	mov	#0,	114(r9)	;r3 As==00, 0x0072(r9)
    de1c:	0e 49       	mov	r9,	r14	
    de1e:	3e 50 6e 00 	add	#110,	r14	;#0x006e
    de22:	89 4e 02 00 	mov	r14,	2(r9)	;0x0002(r9)
    de26:	f2 90 05 00 be 11 	cmp.b	#5,	&0x11be	;#0x0005
    de2c:	05 2c       	jc	$+12     	;abs 0xde38
    de2e:	0f 49       	mov	r9,	r15	
    de30:	b0 12 c8 4f 	call	#0x4fc8	
    de34:	4f 93       	tst.b	r15		
    de36:	04 24       	jz	$+10     	;abs 0xde40
    de38:	0f 49       	mov	r9,	r15	
    de3a:	b0 12 98 4f 	call	#0x4f98	
    de3e:	0e 3c       	jmp	$+30     	;abs 0xde5c
    de40:	e2 b3 30 1c 	bit.b	#2,	&0x1c30	;r3 As==10
    de44:	0c 43       	clr	r12		
    de46:	0c 6c       	rlc	r12		
    de48:	4c 93       	tst.b	r12		
    de4a:	08 20       	jnz	$+18     	;abs 0xde5c
    de4c:	1d 42 6c 11 	mov	&0x116c,r13	
    de50:	1e 42 6e 11 	mov	&0x116e,r14	
    de54:	7f 40 07 00 	mov.b	#7,	r15	;#0x0007
    de58:	b0 12 98 77 	call	#0x7798	
    de5c:	c6 93 01 00 	tst.b	1(r6)		;0x0001(r6)
    de60:	63 20       	jnz	$+200    	;abs 0xdf28
    de62:	c2 93 da 11 	tst.b	&0x11da	
    de66:	60 24       	jz	$+194    	;abs 0xdf28
    de68:	c2 93 dc 11 	tst.b	&0x11dc	
    de6c:	5d 20       	jnz	$+188    	;abs 0xdf28
    de6e:	1f 41 bc 01 	mov	444(r1),r15	;0x01bc(r1)
    de72:	b0 12 6c 62 	call	#0x626c	
    de76:	4f 93       	tst.b	r15		
    de78:	57 24       	jz	$+176    	;abs 0xdf28
    de7a:	1f 41 b4 01 	mov	436(r1),r15	;0x01b4(r1)
    de7e:	ff 93 18 00 	cmp.b	#-1,	24(r15)	;r3 As==11, 0x0018(r15)
    de82:	09 20       	jnz	$+20     	;abs 0xde96
    de84:	5e 4f 19 00 	mov.b	25(r15),r14	;0x0019(r15)
    de88:	3e f0 0f 00 	and	#15,	r14	;#0x000f
    de8c:	2e 92       	cmp	#4,	r14	;r2 As==10
    de8e:	03 34       	jge	$+8      	;abs 0xde96
    de90:	b0 12 2a 86 	call	#0x862a	
    de94:	49 3c       	jmp	$+148    	;abs 0xdf28
    de96:	d2 43 d0 11 	mov.b	#1,	&0x11d0	;r3 As==01
    de9a:	3d 40 10 00 	mov	#16,	r13	;#0x0010
    de9e:	1e 41 b4 01 	mov	436(r1),r14	;0x01b4(r1)
    dea2:	3e 52       	add	#8,	r14	;r2 As==11
    dea4:	3f 40 fe 24 	mov	#9470,	r15	;#0x24fe
    dea8:	b0 12 80 e8 	call	#0xe880	
    deac:	7f 40 14 00 	mov.b	#20,	r15	;#0x0014
    deb0:	b0 12 8a 63 	call	#0x638a	
    deb4:	39 3c       	jmp	$+116    	;abs 0xdf28
    deb6:	f1 40 2b 00 00 00 	mov.b	#43,	0(r1)	;#0x002b, 0x0000(r1)
    debc:	09 41       	mov	r1,	r9	
    debe:	39 50 10 00 	add	#16,	r9	;#0x0010
    dec2:	0d 41       	mov	r1,	r13	
    dec4:	1f 41 b4 01 	mov	436(r1),r15	;0x01b4(r1)
    dec8:	5e 4f 06 00 	mov.b	6(r15),	r14	;0x0006(r15)
    decc:	0f 49       	mov	r9,	r15	
    dece:	b0 12 78 cc 	call	#0xcc78	
    ded2:	1e 41 b4 01 	mov	436(r1),r14	;0x01b4(r1)
    ded6:	5b 4e 07 00 	mov.b	7(r14),	r11	;0x0007(r14)
    deda:	7b 53       	add.b	#-1,	r11	;r3 As==11
    dedc:	ce 4b 07 00 	mov.b	r11,	7(r14)	;0x0007(r14)
    dee0:	23 24       	jz	$+72     	;abs 0xdf28
    dee2:	0f 93       	tst	r15		
    dee4:	21 34       	jge	$+68     	;abs 0xdf28
    dee6:	3e 40 80 00 	mov	#128,	r14	;#0x0080
    deea:	1f 41 bc 01 	mov	444(r1),r15	;0x01bc(r1)
    deee:	b0 12 24 4d 	call	#0x4d24	
    def2:	0b 4f       	mov	r15,	r11	
    def4:	0f 93       	tst	r15		
    def6:	18 24       	jz	$+50     	;abs 0xdf28
    def8:	5a 4f 26 00 	mov.b	38(r15),r10	;0x0026(r15)
    defc:	3d 40 28 00 	mov	#40,	r13	;#0x0028
    df00:	1e 41 b4 01 	mov	436(r1),r14	;0x01b4(r1)
    df04:	0f 41       	mov	r1,	r15	
    df06:	3f 50 14 01 	add	#276,	r15	;#0x0114
    df0a:	b0 12 80 e8 	call	#0xe880	
    df0e:	81 49 12 01 	mov	r9,	274(r1)	;0x0112(r1)
    df12:	91 43 10 01 	mov	#1,	272(r1)	;r3 As==01, 0x0110(r1)
    df16:	0d 41       	mov	r1,	r13	
    df18:	3d 50 10 01 	add	#272,	r13	;#0x0110
    df1c:	0e 4b       	mov	r11,	r14	
    df1e:	3e 50 16 00 	add	#22,	r14	;#0x0016
    df22:	4f 4a       	mov.b	r10,	r15	
    df24:	b0 12 42 6f 	call	#0x6f42	
    df28:	1e 41 ba 01 	mov	442(r1),r14	;0x01ba(r1)
    df2c:	1f 4e 06 00 	mov	6(r14),	r15	;0x0006(r14)
    df30:	b0 12 30 e2 	call	#0xe230	
    df34:	1f 41 ba 01 	mov	442(r1),r15	;0x01ba(r1)
    df38:	ef 43 0a 00 	mov.b	#2,	10(r15)	;r3 As==10, 0x000a(r15)
    df3c:	8f 43 06 00 	mov	#0,	6(r15)	;r3 As==00, 0x0006(r15)
    df40:	31 50 be 01 	add	#446,	r1	;#0x01be
    df44:	34 41       	pop	r4		
    df46:	35 41       	pop	r5		
    df48:	36 41       	pop	r6		
    df4a:	37 41       	pop	r7		
    df4c:	38 41       	pop	r8		
    df4e:	39 41       	pop	r9		
    df50:	3a 41       	pop	r10		
    df52:	3b 41       	pop	r11		
    df54:	30 41       	ret			
    df56:	c2 93 ea 11 	tst.b	&0x11ea	
    df5a:	02 24       	jz	$+6      	;abs 0xdf60
    df5c:	30 40 c6 d8 	br	#0xd8c6	
    df60:	30 40 9c d8 	br	#0xd89c	
    df64:	3c 40 93 12 	mov	#4755,	r12	;#0x1293
    df68:	1c 53       	inc	r12		
    df6a:	cc 93 00 00 	tst.b	0(r12)		;0x0000(r12)
    df6e:	fc 23       	jnz	$-6      	;abs 0xdf68
    df70:	3c 80 94 12 	sub	#4756,	r12	;#0x1294
    df74:	3d 40 94 12 	mov	#4756,	r13	;#0x1294
    df78:	3e 40 28 24 	mov	#9256,	r14	;#0x2428
    df7c:	7f 40 03 00 	mov.b	#3,	r15	;#0x0003
    df80:	b0 12 6a 70 	call	#0x706a	
    df84:	d1 3f       	jmp	$-92     	;abs 0xdf28

0000df86 <iov_read>:
    df86:	0b 12       	push	r11		
    df88:	0a 12       	push	r10		
    df8a:	09 12       	push	r9		
    df8c:	08 12       	push	r8		
    df8e:	07 12       	push	r7		
    df90:	06 12       	push	r6		
    df92:	05 12       	push	r5		
    df94:	04 12       	push	r4		
    df96:	0b 4f       	mov	r15,	r11	
    df98:	06 4e       	mov	r14,	r6	
    df9a:	08 4d       	mov	r13,	r8	
    df9c:	05 4c       	mov	r12,	r5	
    df9e:	09 43       	clr	r9		
    dfa0:	03 3c       	jmp	$+8      	;abs 0xdfa8
    dfa2:	09 4f       	mov	r15,	r9	
    dfa4:	1b 4b 04 00 	mov	4(r11),	r11	;0x0004(r11)
    dfa8:	0b 93       	tst	r11		
    dfaa:	22 24       	jz	$+70     	;abs 0xdff0
    dfac:	0f 49       	mov	r9,	r15	
    dfae:	1f 5b 02 00 	add	2(r11),	r15	;0x0002(r11)
    dfb2:	06 9f       	cmp	r15,	r6	
    dfb4:	f6 2f       	jc	$-18     	;abs 0xdfa2
    dfb6:	07 43       	clr	r7		
    dfb8:	18 3c       	jmp	$+50     	;abs 0xdfea
    dfba:	04 46       	mov	r6,	r4	
    dfbc:	04 89       	sub	r9,	r4	
    dfbe:	1a 4b 02 00 	mov	2(r11),	r10	;0x0002(r11)
    dfc2:	0a 84       	sub	r4,	r10	
    dfc4:	08 9a       	cmp	r10,	r8	
    dfc6:	01 2c       	jc	$+4      	;abs 0xdfca
    dfc8:	0a 48       	mov	r8,	r10	
    dfca:	0d 4a       	mov	r10,	r13	
    dfcc:	2e 4b       	mov	@r11,	r14	
    dfce:	0e 54       	add	r4,	r14	
    dfd0:	0f 45       	mov	r5,	r15	
    dfd2:	b0 12 80 e8 	call	#0xe880	
    dfd6:	04 5a       	add	r10,	r4	
    dfd8:	09 54       	add	r4,	r9	
    dfda:	06 5a       	add	r10,	r6	
    dfdc:	07 5a       	add	r10,	r7	
    dfde:	08 8a       	sub	r10,	r8	
    dfe0:	05 5a       	add	r10,	r5	
    dfe2:	1b 4b 04 00 	mov	4(r11),	r11	;0x0004(r11)
    dfe6:	0b 93       	tst	r11		
    dfe8:	04 24       	jz	$+10     	;abs 0xdff2
    dfea:	18 93       	cmp	#1,	r8	;r3 As==01
    dfec:	e6 37       	jge	$-50     	;abs 0xdfba
    dfee:	01 3c       	jmp	$+4      	;abs 0xdff2
    dff0:	07 43       	clr	r7		
    dff2:	0f 47       	mov	r7,	r15	
    dff4:	34 41       	pop	r4		
    dff6:	35 41       	pop	r5		
    dff8:	36 41       	pop	r6		
    dffa:	37 41       	pop	r7		
    dffc:	38 41       	pop	r8		
    dffe:	39 41       	pop	r9		
    e000:	3a 41       	pop	r10		
    e002:	3b 41       	pop	r11		
    e004:	30 41       	ret			

0000e006 <iov_len>:
    e006:	0e 43       	clr	r14		
    e008:	04 3c       	jmp	$+10     	;abs 0xe012
    e00a:	1e 5f 02 00 	add	2(r15),	r14	;0x0002(r15)
    e00e:	1f 4f 04 00 	mov	4(r15),	r15	;0x0004(r15)
    e012:	0f 93       	tst	r15		
    e014:	fa 23       	jnz	$-10     	;abs 0xe00a
    e016:	0f 4e       	mov	r14,	r15	
    e018:	30 41       	ret			

0000e01a <iov_prefix>:
    e01a:	8e 4d 00 00 	mov	r13,	0(r14)	;0x0000(r14)
    e01e:	8e 4c 02 00 	mov	r12,	2(r14)	;0x0002(r14)
    e022:	8e 4f 04 00 	mov	r15,	4(r14)	;0x0004(r14)
    e026:	30 41       	ret			

0000e028 <iov_update>:
    e028:	0b 12       	push	r11		
    e02a:	0a 12       	push	r10		
    e02c:	09 12       	push	r9		
    e02e:	08 12       	push	r8		
    e030:	0b 4f       	mov	r15,	r11	
    e032:	0f 4e       	mov	r14,	r15	
    e034:	0a 4d       	mov	r13,	r10	
    e036:	08 4c       	mov	r12,	r8	
    e038:	03 3c       	jmp	$+8      	;abs 0xe040
    e03a:	0f 8e       	sub	r14,	r15	
    e03c:	1b 4b 04 00 	mov	4(r11),	r11	;0x0004(r11)
    e040:	1e 4b 02 00 	mov	2(r11),	r14	;0x0002(r11)
    e044:	0f 9e       	cmp	r14,	r15	
    e046:	f9 2f       	jc	$-12     	;abs 0xe03a
    e048:	10 3c       	jmp	$+34     	;abs 0xe06a
    e04a:	19 4b 02 00 	mov	2(r11),	r9	;0x0002(r11)
    e04e:	09 8f       	sub	r15,	r9	
    e050:	0a 99       	cmp	r9,	r10	
    e052:	01 2c       	jc	$+4      	;abs 0xe056
    e054:	09 4a       	mov	r10,	r9	
    e056:	0d 49       	mov	r9,	r13	
    e058:	0e 48       	mov	r8,	r14	
    e05a:	2f 5b       	add	@r11,	r15	
    e05c:	b0 12 80 e8 	call	#0xe880	
    e060:	08 59       	add	r9,	r8	
    e062:	0a 89       	sub	r9,	r10	
    e064:	1b 4b 04 00 	mov	4(r11),	r11	;0x0004(r11)
    e068:	0f 43       	clr	r15		
    e06a:	0b 93       	tst	r11		
    e06c:	02 24       	jz	$+6      	;abs 0xe072
    e06e:	1a 93       	cmp	#1,	r10	;r3 As==01
    e070:	ec 37       	jge	$-38     	;abs 0xe04a
    e072:	0f 43       	clr	r15		
    e074:	38 41       	pop	r8		
    e076:	39 41       	pop	r9		
    e078:	3a 41       	pop	r10		
    e07a:	3b 41       	pop	r11		
    e07c:	30 41       	ret			

0000e07e <in_cksum>:
    e07e:	0b 12       	push	r11		
    e080:	0a 12       	push	r10		
    e082:	09 12       	push	r9		
    e084:	08 12       	push	r8		
    e086:	07 12       	push	r7		
    e088:	06 12       	push	r6		
    e08a:	05 12       	push	r5		
    e08c:	04 12       	push	r4		
    e08e:	0d 4f       	mov	r15,	r13	
    e090:	0c 43       	clr	r12		
    e092:	0e 43       	clr	r14		
    e094:	0f 43       	clr	r15		
    e096:	1e 3c       	jmp	$+62     	;abs 0xe0d4
    e098:	14 4d 02 00 	mov	2(r13),	r4	;0x0002(r13)
    e09c:	04 93       	tst	r4		
    e09e:	18 24       	jz	$+50     	;abs 0xe0d0
    e0a0:	2b 4d       	mov	@r13,	r11	
    e0a2:	0a 43       	clr	r10		
    e0a4:	13 3c       	jmp	$+40     	;abs 0xe0cc
    e0a6:	1a b3       	bit	#1,	r10	;r3 As==01
    e0a8:	08 20       	jnz	$+18     	;abs 0xe0ba
    e0aa:	65 4b       	mov.b	@r11,	r5	
    e0ac:	85 10       	swpb	r5		
    e0ae:	0c d5       	bis	r5,	r12	
    e0b0:	05 4a       	mov	r10,	r5	
    e0b2:	15 53       	inc	r5		
    e0b4:	05 94       	cmp	r4,	r5	
    e0b6:	08 20       	jnz	$+18     	;abs 0xe0c8
    e0b8:	02 3c       	jmp	$+6      	;abs 0xe0be
    e0ba:	65 4b       	mov.b	@r11,	r5	
    e0bc:	0c d5       	bis	r5,	r12	
    e0be:	06 4c       	mov	r12,	r6	
    e0c0:	07 43       	clr	r7		
    e0c2:	0e 56       	add	r6,	r14	
    e0c4:	0f 67       	addc	r7,	r15	
    e0c6:	0c 43       	clr	r12		
    e0c8:	1a 53       	inc	r10		
    e0ca:	1b 53       	inc	r11		
    e0cc:	0a 94       	cmp	r4,	r10	
    e0ce:	eb 23       	jnz	$-40     	;abs 0xe0a6
    e0d0:	1d 4d 04 00 	mov	4(r13),	r13	;0x0004(r13)
    e0d4:	0d 93       	tst	r13		
    e0d6:	e0 23       	jnz	$-62     	;abs 0xe098
    e0d8:	1f 93       	cmp	#1,	r15	;r3 As==01
    e0da:	0b 28       	jnc	$+24     	;abs 0xe0f2
    e0dc:	0c 4e       	mov	r14,	r12	
    e0de:	0d 4f       	mov	r15,	r13	
    e0e0:	3c f3       	and	#-1,	r12	;r3 As==11
    e0e2:	0d f3       	and	#0,	r13	;r3 As==00
    e0e4:	08 4f       	mov	r15,	r8	
    e0e6:	09 43       	clr	r9		
    e0e8:	0e 48       	mov	r8,	r14	
    e0ea:	0f 49       	mov	r9,	r15	
    e0ec:	0e 5c       	add	r12,	r14	
    e0ee:	0f 6d       	addc	r13,	r15	
    e0f0:	f3 3f       	jmp	$-24     	;abs 0xe0d8
    e0f2:	0f 4e       	mov	r14,	r15	
    e0f4:	3f e3       	inv	r15		
    e0f6:	34 41       	pop	r4		
    e0f8:	35 41       	pop	r5		
    e0fa:	36 41       	pop	r6		
    e0fc:	37 41       	pop	r7		
    e0fe:	38 41       	pop	r8		
    e100:	39 41       	pop	r9		
    e102:	3a 41       	pop	r10		
    e104:	3b 41       	pop	r11		
    e106:	30 41       	ret			

0000e108 <msg_cksum>:
    e108:	0b 12       	push	r11		
    e10a:	31 50 e6 ff 	add	#-26,	r1	;#0xffe6
    e10e:	4b 4d       	mov.b	r13,	r11	
    e110:	0d 4f       	mov	r15,	r13	
    e112:	3d 52       	add	#8,	r13	;r2 As==11
    e114:	81 4d 08 00 	mov	r13,	8(r1)	;0x0008(r1)
    e118:	b1 40 10 00 0a 00 	mov	#16,	10(r1)	;#0x0010, 0x000a(r1)
    e11e:	0d 41       	mov	r1,	r13	
    e120:	3d 50 0e 00 	add	#14,	r13	;#0x000e
    e124:	81 4d 0c 00 	mov	r13,	12(r1)	;0x000c(r1)
    e128:	3f 50 18 00 	add	#24,	r15	;#0x0018
    e12c:	81 4f 0e 00 	mov	r15,	14(r1)	;0x000e(r1)
    e130:	b1 40 10 00 10 00 	mov	#16,	16(r1)	;#0x0010, 0x0010(r1)
    e136:	0f 41       	mov	r1,	r15	
    e138:	3f 50 14 00 	add	#20,	r15	;#0x0014
    e13c:	81 4f 12 00 	mov	r15,	18(r1)	;0x0012(r1)
    e140:	81 41 14 00 	mov	r1,	20(r1)	;0x0014(r1)
    e144:	b1 42 16 00 	mov	#8,	22(r1)	;r2 As==11, 0x0016(r1)
    e148:	81 4e 18 00 	mov	r14,	24(r1)	;0x0018(r1)
    e14c:	0f 4e       	mov	r14,	r15	
    e14e:	b0 12 06 e0 	call	#0xe006	
    e152:	0e 4f       	mov	r15,	r14	
    e154:	8f 10       	swpb	r15		
    e156:	8f 11       	sxt	r15		
    e158:	8f 10       	swpb	r15		
    e15a:	8f 11       	sxt	r15		
    e15c:	b0 12 ec e5 	call	#0xe5ec	
    e160:	81 4e 00 00 	mov	r14,	0(r1)	;0x0000(r1)
    e164:	81 4f 02 00 	mov	r15,	2(r1)	;0x0002(r1)
    e168:	4e 4b       	mov.b	r11,	r14	
    e16a:	0f 43       	clr	r15		
    e16c:	b0 12 ec e5 	call	#0xe5ec	
    e170:	81 4e 04 00 	mov	r14,	4(r1)	;0x0004(r1)
    e174:	81 4f 06 00 	mov	r15,	6(r1)	;0x0006(r1)
    e178:	0f 41       	mov	r1,	r15	
    e17a:	3f 52       	add	#8,	r15	;r2 As==11
    e17c:	b0 12 7e e0 	call	#0xe07e	
    e180:	31 50 1a 00 	add	#26,	r1	;#0x001a
    e184:	3b 41       	pop	r11		
    e186:	30 41       	ret			

0000e188 <ip_malloc_init>:
    e188:	3f 40 5c 26 	mov	#9820,	r15	;#0x265c
    e18c:	ff 40 dc ff 00 00 	mov.b	#-36,	0(r15)	;#0xffdc, 0x0000(r15)
    e192:	ff 40 05 00 01 00 	mov.b	#5,	1(r15)	;#0x0005, 0x0001(r15)
    e198:	30 41       	ret			

0000e19a <ip_malloc>:
    e19a:	0b 12       	push	r11		
    e19c:	0a 12       	push	r10		
    e19e:	09 12       	push	r9		
    e1a0:	08 12       	push	r8		
    e1a2:	07 12       	push	r7		
    e1a4:	06 12       	push	r6		
    e1a6:	2f 52       	add	#4,	r15	;r2 As==10
    e1a8:	07 4f       	mov	r15,	r7	
    e1aa:	17 f3       	and	#1,	r7	;r3 As==01
    e1ac:	07 5f       	add	r15,	r7	
    e1ae:	3f 40 5c 26 	mov	#9820,	r15	;#0x265c
    e1b2:	01 3c       	jmp	$+4      	;abs 0xe1b6
    e1b4:	0f 56       	add	r6,	r15	
    e1b6:	2e 4f       	mov	@r15,	r14	
    e1b8:	06 4e       	mov	r14,	r6	
    e1ba:	36 f0 ff 0f 	and	#4095,	r6	;#0x0fff
    e1be:	06 97       	cmp	r7,	r6	
    e1c0:	02 28       	jnc	$+6      	;abs 0xe1c6
    e1c2:	0e 93       	tst	r14		
    e1c4:	19 34       	jge	$+52     	;abs 0xe1f8
    e1c6:	08 4f       	mov	r15,	r8	
    e1c8:	0e 4f       	mov	r15,	r14	
    e1ca:	8e 10       	swpb	r14		
    e1cc:	8e 11       	sxt	r14		
    e1ce:	8e 10       	swpb	r14		
    e1d0:	8e 11       	sxt	r14		
    e1d2:	09 4e       	mov	r14,	r9	
    e1d4:	3c 40 5c 26 	mov	#9820,	r12	;#0x265c
    e1d8:	0e 4c       	mov	r12,	r14	
    e1da:	8e 10       	swpb	r14		
    e1dc:	8e 11       	sxt	r14		
    e1de:	8e 10       	swpb	r14		
    e1e0:	8e 11       	sxt	r14		
    e1e2:	0d 4e       	mov	r14,	r13	
    e1e4:	0a 48       	mov	r8,	r10	
    e1e6:	0b 49       	mov	r9,	r11	
    e1e8:	0a 8c       	sub	r12,	r10	
    e1ea:	0b 7d       	subc	r13,	r11	
    e1ec:	0b 93       	tst	r11		
    e1ee:	e2 3b       	jl	$-58     	;abs 0xe1b4
    e1f0:	03 20       	jnz	$+8      	;abs 0xe1f8
    e1f2:	3a 90 dc 05 	cmp	#1500,	r10	;#0x05dc
    e1f6:	de 2b       	jnc	$-66     	;abs 0xe1b4
    e1f8:	3f 90 38 2c 	cmp	#11320,	r15	;#0x2c38
    e1fc:	11 2c       	jc	$+36     	;abs 0xe220
    e1fe:	27 83       	decd	r7		
    e200:	0e 47       	mov	r7,	r14	
    e202:	3e f0 ff 0f 	and	#4095,	r14	;#0x0fff
    e206:	3e d0 00 80 	bis	#-32768,r14	;#0x8000
    e20a:	8f 4e 00 00 	mov	r14,	0(r15)	;0x0000(r15)
    e20e:	0e 4f       	mov	r15,	r14	
    e210:	0e 57       	add	r7,	r14	
    e212:	06 87       	sub	r7,	r6	
    e214:	36 f0 ff 0f 	and	#4095,	r6	;#0x0fff
    e218:	8e 46 00 00 	mov	r6,	0(r14)	;0x0000(r14)
    e21c:	2f 53       	incd	r15		
    e21e:	01 3c       	jmp	$+4      	;abs 0xe222
    e220:	0f 43       	clr	r15		
    e222:	36 41       	pop	r6		
    e224:	37 41       	pop	r7		
    e226:	38 41       	pop	r8		
    e228:	39 41       	pop	r9		
    e22a:	3a 41       	pop	r10		
    e22c:	3b 41       	pop	r11		
    e22e:	30 41       	ret			

0000e230 <ip_free>:
    e230:	0b 12       	push	r11		
    e232:	0a 12       	push	r10		
    e234:	09 12       	push	r9		
    e236:	08 12       	push	r8		
    e238:	07 12       	push	r7		
    e23a:	06 12       	push	r6		
    e23c:	3e 40 5c 26 	mov	#9820,	r14	;#0x265c
    e240:	09 43       	clr	r9		
    e242:	05 3c       	jmp	$+12     	;abs 0xe24e
    e244:	2d 4e       	mov	@r14,	r13	
    e246:	3d f0 ff 0f 	and	#4095,	r13	;#0x0fff
    e24a:	09 4e       	mov	r14,	r9	
    e24c:	0e 5d       	add	r13,	r14	
    e24e:	0d 4e       	mov	r14,	r13	
    e250:	2d 53       	incd	r13		
    e252:	0f 9d       	cmp	r13,	r15	
    e254:	1a 24       	jz	$+54     	;abs 0xe28a
    e256:	06 4e       	mov	r14,	r6	
    e258:	0d 4e       	mov	r14,	r13	
    e25a:	8d 10       	swpb	r13		
    e25c:	8d 11       	sxt	r13		
    e25e:	8d 10       	swpb	r13		
    e260:	8d 11       	sxt	r13		
    e262:	07 4d       	mov	r13,	r7	
    e264:	3a 40 5c 26 	mov	#9820,	r10	;#0x265c
    e268:	0d 4a       	mov	r10,	r13	
    e26a:	8d 10       	swpb	r13		
    e26c:	8d 11       	sxt	r13		
    e26e:	8d 10       	swpb	r13		
    e270:	8d 11       	sxt	r13		
    e272:	0b 4d       	mov	r13,	r11	
    e274:	0c 46       	mov	r6,	r12	
    e276:	0d 47       	mov	r7,	r13	
    e278:	0c 8a       	sub	r10,	r12	
    e27a:	0d 7b       	subc	r11,	r13	
    e27c:	0d 93       	tst	r13		
    e27e:	e2 3b       	jl	$-58     	;abs 0xe244
    e280:	3c 20       	jnz	$+122    	;abs 0xe2fa
    e282:	3c 90 dc 05 	cmp	#1500,	r12	;#0x05dc
    e286:	de 2b       	jnc	$-66     	;abs 0xe244
    e288:	38 3c       	jmp	$+114    	;abs 0xe2fa
    e28a:	26 4e       	mov	@r14,	r6	
    e28c:	08 46       	mov	r6,	r8	
    e28e:	38 f0 ff 0f 	and	#4095,	r8	;#0x0fff
    e292:	08 5e       	add	r14,	r8	
    e294:	36 f0 ff 7f 	and	#32767,	r6	;#0x7fff
    e298:	8e 46 00 00 	mov	r6,	0(r14)	;0x0000(r14)
    e29c:	0a 48       	mov	r8,	r10	
    e29e:	0f 48       	mov	r8,	r15	
    e2a0:	8f 10       	swpb	r15		
    e2a2:	8f 11       	sxt	r15		
    e2a4:	8f 10       	swpb	r15		
    e2a6:	8f 11       	sxt	r15		
    e2a8:	0b 4f       	mov	r15,	r11	
    e2aa:	3c 40 5c 26 	mov	#9820,	r12	;#0x265c
    e2ae:	0f 4c       	mov	r12,	r15	
    e2b0:	8f 10       	swpb	r15		
    e2b2:	8f 11       	sxt	r15		
    e2b4:	8f 10       	swpb	r15		
    e2b6:	8f 11       	sxt	r15		
    e2b8:	0d 4f       	mov	r15,	r13	
    e2ba:	0a 8c       	sub	r12,	r10	
    e2bc:	0b 7d       	subc	r13,	r11	
    e2be:	0b 93       	tst	r11		
    e2c0:	05 38       	jl	$+12     	;abs 0xe2cc
    e2c2:	1b 93       	cmp	#1,	r11	;r3 As==01
    e2c4:	0d 34       	jge	$+28     	;abs 0xe2e0
    e2c6:	3a 90 dc 05 	cmp	#1500,	r10	;#0x05dc
    e2ca:	0a 2c       	jc	$+22     	;abs 0xe2e0
    e2cc:	2f 48       	mov	@r8,	r15	
    e2ce:	0f 93       	tst	r15		
    e2d0:	07 38       	jl	$+16     	;abs 0xe2e0
    e2d2:	3f f0 ff 0f 	and	#4095,	r15	;#0x0fff
    e2d6:	36 f0 ff 0f 	and	#4095,	r6	;#0x0fff
    e2da:	0f 56       	add	r6,	r15	
    e2dc:	8e 4f 00 00 	mov	r15,	0(r14)	;0x0000(r14)
    e2e0:	09 93       	tst	r9		
    e2e2:	0b 24       	jz	$+24     	;abs 0xe2fa
    e2e4:	2f 49       	mov	@r9,	r15	
    e2e6:	0f 93       	tst	r15		
    e2e8:	08 38       	jl	$+18     	;abs 0xe2fa
    e2ea:	2e 4e       	mov	@r14,	r14	
    e2ec:	3e f0 ff 0f 	and	#4095,	r14	;#0x0fff
    e2f0:	3f f0 ff 0f 	and	#4095,	r15	;#0x0fff
    e2f4:	0e 5f       	add	r15,	r14	
    e2f6:	89 4e 00 00 	mov	r14,	0(r9)	;0x0000(r9)
    e2fa:	36 41       	pop	r6		
    e2fc:	37 41       	pop	r7		
    e2fe:	38 41       	pop	r8		
    e300:	39 41       	pop	r9		
    e302:	3a 41       	pop	r10		
    e304:	3b 41       	pop	r11		
    e306:	30 41       	ret			

0000e308 <ip_malloc_freespace>:
    e308:	0b 12       	push	r11		
    e30a:	0a 12       	push	r10		
    e30c:	09 12       	push	r9		
    e30e:	08 12       	push	r8		
    e310:	3b 40 5c 26 	mov	#9820,	r11	;#0x265c
    e314:	0a 43       	clr	r10		
    e316:	08 3c       	jmp	$+18     	;abs 0xe328
    e318:	2e 4b       	mov	@r11,	r14	
    e31a:	0f 4e       	mov	r14,	r15	
    e31c:	3f f0 ff 0f 	and	#4095,	r15	;#0x0fff
    e320:	0e 93       	tst	r14		
    e322:	01 38       	jl	$+4      	;abs 0xe326
    e324:	0a 5f       	add	r15,	r10	
    e326:	0b 5f       	add	r15,	r11	
    e328:	08 4b       	mov	r11,	r8	
    e32a:	0e 4b       	mov	r11,	r14	
    e32c:	8e 10       	swpb	r14		
    e32e:	8e 11       	sxt	r14		
    e330:	8e 10       	swpb	r14		
    e332:	8e 11       	sxt	r14		
    e334:	09 4e       	mov	r14,	r9	
    e336:	3c 40 5c 26 	mov	#9820,	r12	;#0x265c
    e33a:	0e 4c       	mov	r12,	r14	
    e33c:	8e 10       	swpb	r14		
    e33e:	8e 11       	sxt	r14		
    e340:	8e 10       	swpb	r14		
    e342:	8e 11       	sxt	r14		
    e344:	0d 4e       	mov	r14,	r13	
    e346:	0e 48       	mov	r8,	r14	
    e348:	0f 49       	mov	r9,	r15	
    e34a:	0e 8c       	sub	r12,	r14	
    e34c:	0f 7d       	subc	r13,	r15	
    e34e:	0f 93       	tst	r15		
    e350:	e3 3b       	jl	$-56     	;abs 0xe318
    e352:	03 20       	jnz	$+8      	;abs 0xe35a
    e354:	3e 90 dc 05 	cmp	#1500,	r14	;#0x05dc
    e358:	df 2b       	jnc	$-64     	;abs 0xe318
    e35a:	0f 4a       	mov	r10,	r15	
    e35c:	38 41       	pop	r8		
    e35e:	39 41       	pop	r9		
    e360:	3a 41       	pop	r10		
    e362:	3b 41       	pop	r11		
    e364:	30 41       	ret			

0000e366 <inet_pton6>:
    e366:	0b 12       	push	r11		
    e368:	0a 12       	push	r10		
    e36a:	09 12       	push	r9		
    e36c:	08 12       	push	r8		
    e36e:	07 12       	push	r7		
    e370:	07 4f       	mov	r15,	r7	
    e372:	0a 4e       	mov	r14,	r10	
    e374:	0f 93       	tst	r15		
    e376:	9a 24       	jz	$+310    	;abs 0xe4ac
    e378:	0e 93       	tst	r14		
    e37a:	98 24       	jz	$+306    	;abs 0xe4ac
    e37c:	3d 40 10 00 	mov	#16,	r13	;#0x0010
    e380:	0e 43       	clr	r14		
    e382:	0f 4a       	mov	r10,	r15	
    e384:	b0 12 74 ea 	call	#0xea74	
    e388:	0c 47       	mov	r7,	r12	
    e38a:	4e 43       	clr.b	r14		
    e38c:	0d 43       	clr	r13		
    e38e:	43 3c       	jmp	$+136    	;abs 0xe416
    e390:	7b 90 3a 00 	cmp.b	#58,	r11	;#0x003a
    e394:	1c 24       	jz	$+58     	;abs 0xe3ce
    e396:	0d 5d       	rla	r13		
    e398:	0d 5d       	rla	r13		
    e39a:	0d 5d       	rla	r13		
    e39c:	0d 5d       	rla	r13		
    e39e:	4f 4b       	mov.b	r11,	r15	
    e3a0:	7f 50 d0 ff 	add.b	#-48,	r15	;#0xffd0
    e3a4:	7f 90 0a 00 	cmp.b	#10,	r15	;#0x000a
    e3a8:	04 2c       	jc	$+10     	;abs 0xe3b2
    e3aa:	8b 11       	sxt	r11		
    e3ac:	3b 50 d0 ff 	add	#-48,	r11	;#0xffd0
    e3b0:	0c 3c       	jmp	$+26     	;abs 0xe3ca
    e3b2:	4f 4b       	mov.b	r11,	r15	
    e3b4:	7f 50 bf ff 	add.b	#-65,	r15	;#0xffbf
    e3b8:	8b 11       	sxt	r11		
    e3ba:	7f 90 06 00 	cmp.b	#6,	r15	;#0x0006
    e3be:	03 2c       	jc	$+8      	;abs 0xe3c6
    e3c0:	3b 50 c9 ff 	add	#-55,	r11	;#0xffc9
    e3c4:	02 3c       	jmp	$+6      	;abs 0xe3ca
    e3c6:	3b 50 a9 ff 	add	#-87,	r11	;#0xffa9
    e3ca:	0d db       	bis	r11,	r13	
    e3cc:	0c 3c       	jmp	$+26     	;abs 0xe3e6
    e3ce:	4b 4e       	mov.b	r14,	r11	
    e3d0:	0b 5b       	rla	r11		
    e3d2:	0b 5a       	add	r10,	r11	
    e3d4:	49 4d       	mov.b	r13,	r9	
    e3d6:	89 10       	swpb	r9		
    e3d8:	8d 10       	swpb	r13		
    e3da:	4d 4d       	mov.b	r13,	r13	
    e3dc:	0d d9       	bis	r9,	r13	
    e3de:	8b 4d 00 00 	mov	r13,	0(r11)	;0x0000(r11)
    e3e2:	5e 53       	inc.b	r14		
    e3e4:	0d 43       	clr	r13		
    e3e6:	5f 4c 01 00 	mov.b	1(r12),	r15	;0x0001(r12)
    e3ea:	4f 93       	tst.b	r15		
    e3ec:	0c 20       	jnz	$+26     	;abs 0xe406
    e3ee:	4c 4e       	mov.b	r14,	r12	
    e3f0:	0c 5c       	rla	r12		
    e3f2:	0c 5a       	add	r10,	r12	
    e3f4:	0f 4d       	mov	r13,	r15	
    e3f6:	8f 10       	swpb	r15		
    e3f8:	4f 4f       	mov.b	r15,	r15	
    e3fa:	4d 4d       	mov.b	r13,	r13	
    e3fc:	8d 10       	swpb	r13		
    e3fe:	0d df       	bis	r15,	r13	
    e400:	8c 4d 00 00 	mov	r13,	0(r12)	;0x0000(r12)
    e404:	53 3c       	jmp	$+168    	;abs 0xe4ac
    e406:	1c 53       	inc	r12		
    e408:	fc 90 3a 00 ff ff 	cmp.b	#58,	-1(r12)	;#0x003a, 0xffff(r12)
    e40e:	03 20       	jnz	$+8      	;abs 0xe416
    e410:	7f 90 3a 00 	cmp.b	#58,	r15	;#0x003a
    e414:	05 24       	jz	$+12     	;abs 0xe420
    e416:	6b 4c       	mov.b	@r12,	r11	
    e418:	4b 93       	tst.b	r11		
    e41a:	ba 23       	jnz	$-138    	;abs 0xe390
    e41c:	01 3c       	jmp	$+4      	;abs 0xe420
    e41e:	1c 53       	inc	r12		
    e420:	cc 93 00 00 	tst.b	0(r12)		;0x0000(r12)
    e424:	fc 23       	jnz	$-6      	;abs 0xe41e
    e426:	3c 53       	add	#-1,	r12	;r3 As==11
    e428:	4e 43       	clr.b	r14		
    e42a:	78 40 07 00 	mov.b	#7,	r8	;#0x0007
    e42e:	0b 43       	clr	r11		
    e430:	3b 3c       	jmp	$+120    	;abs 0xe4a8
    e432:	6d 4c       	mov.b	@r12,	r13	
    e434:	7d 90 3a 00 	cmp.b	#58,	r13	;#0x003a
    e438:	21 24       	jz	$+68     	;abs 0xe47c
    e43a:	4f 4d       	mov.b	r13,	r15	
    e43c:	7f 50 d0 ff 	add.b	#-48,	r15	;#0xffd0
    e440:	7f 90 0a 00 	cmp.b	#10,	r15	;#0x000a
    e444:	04 2c       	jc	$+10     	;abs 0xe44e
    e446:	8d 11       	sxt	r13		
    e448:	3d 50 d0 ff 	add	#-48,	r13	;#0xffd0
    e44c:	0c 3c       	jmp	$+26     	;abs 0xe466
    e44e:	4f 4d       	mov.b	r13,	r15	
    e450:	7f 50 bf ff 	add.b	#-65,	r15	;#0xffbf
    e454:	8d 11       	sxt	r13		
    e456:	7f 90 06 00 	cmp.b	#6,	r15	;#0x0006
    e45a:	03 2c       	jc	$+8      	;abs 0xe462
    e45c:	3d 50 c9 ff 	add	#-55,	r13	;#0xffc9
    e460:	02 3c       	jmp	$+6      	;abs 0xe466
    e462:	3d 50 a9 ff 	add	#-87,	r13	;#0xffa9
    e466:	49 4e       	mov.b	r14,	r9	
    e468:	79 f0 0f 00 	and.b	#15,	r9	;#0x000f
    e46c:	49 93       	tst.b	r9		
    e46e:	03 24       	jz	$+8      	;abs 0xe476
    e470:	0d 5d       	rla	r13		
    e472:	79 53       	add.b	#-1,	r9	;r3 As==11
    e474:	fb 3f       	jmp	$-8      	;abs 0xe46c
    e476:	0b dd       	bis	r13,	r11	
    e478:	6e 52       	add.b	#4,	r14	;r2 As==10
    e47a:	0d 3c       	jmp	$+28     	;abs 0xe496
    e47c:	4d 48       	mov.b	r8,	r13	
    e47e:	0d 5d       	rla	r13		
    e480:	0d 5a       	add	r10,	r13	
    e482:	4e 4b       	mov.b	r11,	r14	
    e484:	8e 10       	swpb	r14		
    e486:	8b 10       	swpb	r11		
    e488:	4b 4b       	mov.b	r11,	r11	
    e48a:	0b de       	bis	r14,	r11	
    e48c:	8d 4b 00 00 	mov	r11,	0(r13)	;0x0000(r13)
    e490:	78 53       	add.b	#-1,	r8	;r3 As==11
    e492:	4e 43       	clr.b	r14		
    e494:	0b 43       	clr	r11		
    e496:	fc 90 3a 00 00 00 	cmp.b	#58,	0(r12)	;#0x003a, 0x0000(r12)
    e49c:	04 20       	jnz	$+10     	;abs 0xe4a6
    e49e:	fc 90 3a 00 ff ff 	cmp.b	#58,	-1(r12)	;#0x003a, 0xffff(r12)
    e4a4:	03 24       	jz	$+8      	;abs 0xe4ac
    e4a6:	3c 53       	add	#-1,	r12	;r3 As==11
    e4a8:	07 9c       	cmp	r12,	r7	
    e4aa:	c3 2b       	jnc	$-120    	;abs 0xe432
    e4ac:	37 41       	pop	r7		
    e4ae:	38 41       	pop	r8		
    e4b0:	39 41       	pop	r9		
    e4b2:	3a 41       	pop	r10		
    e4b4:	3b 41       	pop	r11		
    e4b6:	30 41       	ret			

0000e4b8 <inet_ntop6>:
    e4b8:	0b 12       	push	r11		
    e4ba:	0a 12       	push	r10		
    e4bc:	09 12       	push	r9		
    e4be:	08 12       	push	r8		
    e4c0:	07 12       	push	r7		
    e4c2:	06 12       	push	r6		
    e4c4:	05 12       	push	r5		
    e4c6:	06 4e       	mov	r14,	r6	
    e4c8:	06 5d       	add	r13,	r6	
    e4ca:	0c 43       	clr	r12		
    e4cc:	07 43       	clr	r7		
    e4ce:	05 46       	mov	r6,	r5	
    e4d0:	35 82       	sub	#8,	r5	;r2 As==11
    e4d2:	05 9e       	cmp	r14,	r5	
    e4d4:	57 28       	jnc	$+176    	;abs 0xe584
    e4d6:	2a 4f       	mov	@r15,	r10	
    e4d8:	4b 4a       	mov.b	r10,	r11	
    e4da:	8b 10       	swpb	r11		
    e4dc:	8a 10       	swpb	r10		
    e4de:	4a 4a       	mov.b	r10,	r10	
    e4e0:	0a db       	bis	r11,	r10	
    e4e2:	29 42       	mov	#4,	r9	;r2 As==10
    e4e4:	3b 43       	mov	#-1,	r11	;r3 As==11
    e4e6:	48 49       	mov.b	r9,	r8	
    e4e8:	78 f0 0f 00 	and.b	#15,	r8	;#0x000f
    e4ec:	06 24       	jz	$+14     	;abs 0xe4fa
    e4ee:	12 c3       	clrc			
    e4f0:	0b 10       	rrc	r11		
    e4f2:	78 53       	add.b	#-1,	r8	;r3 As==11
    e4f4:	fc 23       	jnz	$-6      	;abs 0xe4ee
    e4f6:	0b 9a       	cmp	r10,	r11	
    e4f8:	05 28       	jnc	$+12     	;abs 0xe504
    e4fa:	2c 93       	cmp	#2,	r12	;r3 As==10
    e4fc:	1c 20       	jnz	$+58     	;abs 0xe536
    e4fe:	39 90 10 00 	cmp	#16,	r9	;#0x0010
    e502:	19 20       	jnz	$+52     	;abs 0xe536
    e504:	0b 4a       	mov	r10,	r11	
    e506:	38 40 10 00 	mov	#16,	r8	;#0x0010
    e50a:	48 89       	sub.b	r9,	r8	
    e50c:	78 f0 0f 00 	and.b	#15,	r8	;#0x000f
    e510:	48 93       	tst.b	r8		
    e512:	04 24       	jz	$+10     	;abs 0xe51c
    e514:	12 c3       	clrc			
    e516:	0b 10       	rrc	r11		
    e518:	78 53       	add.b	#-1,	r8	;r3 As==11
    e51a:	fa 3f       	jmp	$-10     	;abs 0xe510
    e51c:	3b f0 0f 00 	and	#15,	r11	;#0x000f
    e520:	3b 90 0a 00 	cmp	#10,	r11	;#0x000a
    e524:	03 2c       	jc	$+8      	;abs 0xe52c
    e526:	7b 50 30 00 	add.b	#48,	r11	;#0x0030
    e52a:	02 3c       	jmp	$+6      	;abs 0xe530
    e52c:	7b 50 57 00 	add.b	#87,	r11	;#0x0057
    e530:	ce 4b 00 00 	mov.b	r11,	0(r14)	;0x0000(r14)
    e534:	1e 53       	inc	r14		
    e536:	29 52       	add	#4,	r9	;r2 As==10
    e538:	39 90 14 00 	cmp	#20,	r9	;#0x0014
    e53c:	d3 23       	jnz	$-88     	;abs 0xe4e4
    e53e:	8f 93 00 00 	tst	0(r15)		;0x0000(r15)
    e542:	07 20       	jnz	$+16     	;abs 0xe552
    e544:	0c 93       	tst	r12		
    e546:	05 20       	jnz	$+12     	;abs 0xe552
    e548:	fe 40 3a 00 00 00 	mov.b	#58,	0(r14)	;#0x003a, 0x0000(r14)
    e54e:	1e 53       	inc	r14		
    e550:	1c 43       	mov	#1,	r12	;r3 As==01
    e552:	8f 93 00 00 	tst	0(r15)		;0x0000(r15)
    e556:	03 24       	jz	$+8      	;abs 0xe55e
    e558:	1c 93       	cmp	#1,	r12	;r3 As==01
    e55a:	01 20       	jnz	$+4      	;abs 0xe55e
    e55c:	2c 43       	mov	#2,	r12	;r3 As==10
    e55e:	37 90 07 00 	cmp	#7,	r7	;#0x0007
    e562:	06 24       	jz	$+14     	;abs 0xe570
    e564:	1c 93       	cmp	#1,	r12	;r3 As==01
    e566:	04 24       	jz	$+10     	;abs 0xe570
    e568:	fe 40 3a 00 00 00 	mov.b	#58,	0(r14)	;#0x003a, 0x0000(r14)
    e56e:	1e 53       	inc	r14		
    e570:	17 53       	inc	r7		
    e572:	2f 53       	incd	r15		
    e574:	37 92       	cmp	#8,	r7	;r2 As==11
    e576:	ad 23       	jnz	$-164    	;abs 0xe4d2
    e578:	1c 93       	cmp	#1,	r12	;r3 As==01
    e57a:	04 20       	jnz	$+10     	;abs 0xe584
    e57c:	fe 40 3a 00 00 00 	mov.b	#58,	0(r14)	;#0x003a, 0x0000(r14)
    e582:	1e 53       	inc	r14		
    e584:	ce 43 00 00 	mov.b	#0,	0(r14)	;r3 As==00, 0x0000(r14)
    e588:	1e 53       	inc	r14		
    e58a:	0a 4e       	mov	r14,	r10	
    e58c:	0c 4e       	mov	r14,	r12	
    e58e:	8c 10       	swpb	r12		
    e590:	8c 11       	sxt	r12		
    e592:	8c 10       	swpb	r12		
    e594:	8c 11       	sxt	r12		
    e596:	0b 4c       	mov	r12,	r11	
    e598:	0e 46       	mov	r6,	r14	
    e59a:	0e 8d       	sub	r13,	r14	
    e59c:	0c 4e       	mov	r14,	r12	
    e59e:	8e 10       	swpb	r14		
    e5a0:	8e 11       	sxt	r14		
    e5a2:	8e 10       	swpb	r14		
    e5a4:	8e 11       	sxt	r14		
    e5a6:	0d 4e       	mov	r14,	r13	
    e5a8:	0a 8c       	sub	r12,	r10	
    e5aa:	0b 7d       	subc	r13,	r11	
    e5ac:	0f 4a       	mov	r10,	r15	
    e5ae:	35 41       	pop	r5		
    e5b0:	36 41       	pop	r6		
    e5b2:	37 41       	pop	r7		
    e5b4:	38 41       	pop	r8		
    e5b6:	39 41       	pop	r9		
    e5b8:	3a 41       	pop	r10		
    e5ba:	3b 41       	pop	r11		
    e5bc:	30 41       	ret			

0000e5be <ieee154_hashaddr>:
    e5be:	6e 4f       	mov.b	@r15,	r14	
    e5c0:	7e f0 03 00 	and.b	#3,	r14	;#0x0003
    e5c4:	6e 93       	cmp.b	#2,	r14	;r3 As==10
    e5c6:	03 20       	jnz	$+8      	;abs 0xe5ce
    e5c8:	1f 4f 02 00 	mov	2(r15),	r15	;0x0002(r15)
    e5cc:	30 41       	ret			
    e5ce:	7e 90 03 00 	cmp.b	#3,	r14	;#0x0003
    e5d2:	0a 20       	jnz	$+22     	;abs 0xe5e8
    e5d4:	0e 4f       	mov	r15,	r14	
    e5d6:	2e 53       	incd	r14		
    e5d8:	0d 4f       	mov	r15,	r13	
    e5da:	3d 50 0a 00 	add	#10,	r13	;#0x000a
    e5de:	0f 43       	clr	r15		
    e5e0:	3f 5e       	add	@r14+,	r15	
    e5e2:	0e 9d       	cmp	r13,	r14	
    e5e4:	fd 23       	jnz	$-4      	;abs 0xe5e0
    e5e6:	30 41       	ret			
    e5e8:	0f 43       	clr	r15		
    e5ea:	30 41       	ret			

0000e5ec <ntohl>:
    e5ec:	0b 12       	push	r11		
    e5ee:	0a 12       	push	r10		
    e5f0:	4a 4f       	mov.b	r15,	r10	
    e5f2:	8a 10       	swpb	r10		
    e5f4:	8f 10       	swpb	r15		
    e5f6:	4f 4f       	mov.b	r15,	r15	
    e5f8:	0c 4a       	mov	r10,	r12	
    e5fa:	0c df       	bis	r15,	r12	
    e5fc:	0d 43       	clr	r13		
    e5fe:	4a 4e       	mov.b	r14,	r10	
    e600:	8a 10       	swpb	r10		
    e602:	0b 4e       	mov	r14,	r11	
    e604:	8b 10       	swpb	r11		
    e606:	4b 4b       	mov.b	r11,	r11	
    e608:	0e 43       	clr	r14		
    e60a:	0f 43       	clr	r15		
    e60c:	0f 4a       	mov	r10,	r15	
    e60e:	0f db       	bis	r11,	r15	
    e610:	0e dc       	bis	r12,	r14	
    e612:	0f dd       	bis	r13,	r15	
    e614:	3a 41       	pop	r10		
    e616:	3b 41       	pop	r11		
    e618:	30 41       	ret			

0000e61a <ip_memcpy>:
    e61a:	0c 4f       	mov	r15,	r12	
    e61c:	04 3c       	jmp	$+10     	;abs 0xe626
    e61e:	fc 4e 00 00 	mov.b	@r14+,	0(r12)	;0x0000(r12)
    e622:	1c 53       	inc	r12		
    e624:	3d 53       	add	#-1,	r13	;r3 As==11
    e626:	0d 93       	tst	r13		
    e628:	fa 23       	jnz	$-10     	;abs 0xe61e
    e62a:	30 41       	ret			

0000e62c <table_init>:
    e62c:	8f 4e 00 00 	mov	r14,	0(r15)	;0x0000(r15)
    e630:	8f 4d 02 00 	mov	r13,	2(r15)	;0x0002(r15)
    e634:	8f 4c 04 00 	mov	r12,	4(r15)	;0x0004(r15)
    e638:	30 41       	ret			

0000e63a <table_search>:
    e63a:	0b 12       	push	r11		
    e63c:	0a 12       	push	r10		
    e63e:	09 12       	push	r9		
    e640:	08 12       	push	r8		
    e642:	0a 4f       	mov	r15,	r10	
    e644:	08 4e       	mov	r14,	r8	
    e646:	09 43       	clr	r9		
    e648:	13 3c       	jmp	$+40     	;abs 0xe670
    e64a:	02 12       	push	r2		
    e64c:	32 c2       	dint			
    e64e:	03 43       	nop			
    e650:	82 49 32 01 	mov	r9,	&0x0132	
    e654:	92 4a 02 00 38 01 	mov	2(r10),	&0x0138	;0x0002(r10)
    e65a:	1b 42 3a 01 	mov	&0x013a,r11	
    e65e:	32 41       	pop	r2		
    e660:	2b 5a       	add	@r10,	r11	
    e662:	0f 4b       	mov	r11,	r15	
    e664:	88 12       	call	r8		
    e666:	3f 93       	cmp	#-1,	r15	;r3 As==11
    e668:	06 24       	jz	$+14     	;abs 0xe676
    e66a:	1f 93       	cmp	#1,	r15	;r3 As==01
    e66c:	05 24       	jz	$+12     	;abs 0xe678
    e66e:	19 53       	inc	r9		
    e670:	19 9a 04 00 	cmp	4(r10),	r9	;0x0004(r10)
    e674:	ea 2b       	jnc	$-42     	;abs 0xe64a
    e676:	0b 43       	clr	r11		
    e678:	0f 4b       	mov	r11,	r15	
    e67a:	38 41       	pop	r8		
    e67c:	39 41       	pop	r9		
    e67e:	3a 41       	pop	r10		
    e680:	3b 41       	pop	r11		
    e682:	30 41       	ret			

0000e684 <table_map>:
    e684:	0b 12       	push	r11		
    e686:	0a 12       	push	r10		
    e688:	09 12       	push	r9		
    e68a:	0b 4f       	mov	r15,	r11	
    e68c:	09 4e       	mov	r14,	r9	
    e68e:	0a 43       	clr	r10		
    e690:	0e 3c       	jmp	$+30     	;abs 0xe6ae
    e692:	02 12       	push	r2		
    e694:	32 c2       	dint			
    e696:	03 43       	nop			
    e698:	82 4a 32 01 	mov	r10,	&0x0132	
    e69c:	92 4b 02 00 38 01 	mov	2(r11),	&0x0138	;0x0002(r11)
    e6a2:	1f 42 3a 01 	mov	&0x013a,r15	
    e6a6:	32 41       	pop	r2		
    e6a8:	2f 5b       	add	@r11,	r15	
    e6aa:	89 12       	call	r9		
    e6ac:	1a 53       	inc	r10		
    e6ae:	1a 9b 04 00 	cmp	4(r11),	r10	;0x0004(r11)
    e6b2:	ef 2b       	jnc	$-32     	;abs 0xe692
    e6b4:	39 41       	pop	r9		
    e6b6:	3a 41       	pop	r10		
    e6b8:	3b 41       	pop	r11		
    e6ba:	30 41       	ret			

0000e6bc <__umulsidi3>:
    e6bc:	0b 12       	push	r11		
    e6be:	0a 12       	push	r10		
    e6c0:	09 12       	push	r9		
    e6c2:	08 12       	push	r8		
    e6c4:	07 12       	push	r7		
    e6c6:	06 12       	push	r6		
    e6c8:	05 12       	push	r5		
    e6ca:	04 12       	push	r4		
    e6cc:	08 4c       	mov	r12,	r8	
    e6ce:	09 4d       	mov	r13,	r9	
    e6d0:	0a 43       	clr	r10		
    e6d2:	0b 43       	clr	r11		
    e6d4:	0c 4e       	mov	r14,	r12	
    e6d6:	0d 4f       	mov	r15,	r13	
    e6d8:	0e 43       	clr	r14		
    e6da:	0f 43       	clr	r15		
    e6dc:	b0 12 28 e7 	call	#0xe728	
    e6e0:	34 41       	pop	r4		
    e6e2:	35 41       	pop	r5		
    e6e4:	36 41       	pop	r6		
    e6e6:	37 41       	pop	r7		
    e6e8:	38 41       	pop	r8		
    e6ea:	39 41       	pop	r9		
    e6ec:	3a 41       	pop	r10		
    e6ee:	3b 41       	pop	r11		
    e6f0:	30 41       	ret			

0000e6f2 <__muldi3>:
    e6f2:	0b 12       	push	r11		
    e6f4:	0a 12       	push	r10		
    e6f6:	09 12       	push	r9		
    e6f8:	08 12       	push	r8		
    e6fa:	07 12       	push	r7		
    e6fc:	06 12       	push	r6		
    e6fe:	05 12       	push	r5		
    e700:	04 12       	push	r4		
    e702:	18 41 12 00 	mov	18(r1),	r8	;0x0012(r1)
    e706:	19 41 14 00 	mov	20(r1),	r9	;0x0014(r1)
    e70a:	1a 41 16 00 	mov	22(r1),	r10	;0x0016(r1)
    e70e:	1b 41 18 00 	mov	24(r1),	r11	;0x0018(r1)
    e712:	b0 12 28 e7 	call	#0xe728	
    e716:	34 41       	pop	r4		
    e718:	35 41       	pop	r5		
    e71a:	36 41       	pop	r6		
    e71c:	37 41       	pop	r7		
    e71e:	38 41       	pop	r8		
    e720:	39 41       	pop	r9		
    e722:	3a 41       	pop	r10		
    e724:	3b 41       	pop	r11		
    e726:	30 41       	ret			

0000e728 <__xabi_muldi3>:
    e728:	04 43       	clr	r4		
    e72a:	05 43       	clr	r5		
    e72c:	06 43       	clr	r6		
    e72e:	07 43       	clr	r7		
    e730:	0e 3c       	jmp	$+30     	;abs 0xe74e
    e732:	12 c3       	clrc			
    e734:	0b 10       	rrc	r11		
    e736:	0a 10       	rrc	r10		
    e738:	09 10       	rrc	r9		
    e73a:	08 10       	rrc	r8		
    e73c:	04 28       	jnc	$+10     	;abs 0xe746
    e73e:	04 5c       	add	r12,	r4	
    e740:	05 6d       	addc	r13,	r5	
    e742:	06 6e       	addc	r14,	r6	
    e744:	07 6f       	addc	r15,	r7	
    e746:	0c 5c       	rla	r12		
    e748:	0d 6d       	rlc	r13		
    e74a:	0e 6e       	rlc	r14		
    e74c:	0f 6f       	rlc	r15		
    e74e:	08 93       	tst	r8		
    e750:	f0 23       	jnz	$-30     	;abs 0xe732
    e752:	09 93       	tst	r9		
    e754:	ee 23       	jnz	$-34     	;abs 0xe732
    e756:	0a 93       	tst	r10		
    e758:	ec 23       	jnz	$-38     	;abs 0xe732
    e75a:	0b 93       	tst	r11		
    e75c:	ea 23       	jnz	$-42     	;abs 0xe732
    e75e:	0c 44       	mov	r4,	r12	
    e760:	0d 45       	mov	r5,	r13	
    e762:	0e 46       	mov	r6,	r14	
    e764:	0f 47       	mov	r7,	r15	
    e766:	30 41       	ret			

0000e768 <__udivhi3>:
    e768:	7c 40 10 00 	mov.b	#16,	r12	;#0x0010
    e76c:	0d 4e       	mov	r14,	r13	
    e76e:	0e 43       	clr	r14		
    e770:	0f 5f       	rla	r15		
    e772:	0e 6e       	rlc	r14		
    e774:	0e 9d       	cmp	r13,	r14	
    e776:	02 28       	jnc	$+6      	;abs 0xe77c
    e778:	0e 8d       	sub	r13,	r14	
    e77a:	1f d3       	bis	#1,	r15	;r3 As==01
    e77c:	1c 83       	dec	r12		
    e77e:	f8 23       	jnz	$-14     	;abs 0xe770
    e780:	30 41       	ret			

0000e782 <__umodhi3>:
    e782:	b0 12 68 e7 	call	#0xe768	
    e786:	0f 4e       	mov	r14,	r15	
    e788:	30 41       	ret			

0000e78a <__divhi3>:
    e78a:	0d 43       	clr	r13		
    e78c:	0f 93       	tst	r15		
    e78e:	04 34       	jge	$+10     	;abs 0xe798
    e790:	3d 40 03 00 	mov	#3,	r13	;#0x0003
    e794:	3f e3       	inv	r15		
    e796:	1f 53       	inc	r15		
    e798:	0e 93       	tst	r14		
    e79a:	03 34       	jge	$+8      	;abs 0xe7a2
    e79c:	5d e3       	xor.b	#1,	r13	;r3 As==01
    e79e:	3e e3       	inv	r14		
    e7a0:	1e 53       	inc	r14		
    e7a2:	0d 12       	push	r13		
    e7a4:	b0 12 68 e7 	call	#0xe768	
    e7a8:	3d 41       	pop	r13		
    e7aa:	6d b3       	bit.b	#2,	r13	;r3 As==10
    e7ac:	02 24       	jz	$+6      	;abs 0xe7b2
    e7ae:	3e e3       	inv	r14		
    e7b0:	1e 53       	inc	r14		
    e7b2:	5d b3       	bit.b	#1,	r13	;r3 As==01
    e7b4:	02 24       	jz	$+6      	;abs 0xe7ba
    e7b6:	3f e3       	inv	r15		
    e7b8:	1f 53       	inc	r15		
    e7ba:	30 41       	ret			

0000e7bc <__modhi3>:
    e7bc:	b0 12 8a e7 	call	#0xe78a	
    e7c0:	0f 4e       	mov	r14,	r15	
    e7c2:	30 41       	ret			

0000e7c4 <__udivsi3>:
    e7c4:	0b 12       	push	r11		
    e7c6:	0a 12       	push	r10		
    e7c8:	09 12       	push	r9		
    e7ca:	79 40 20 00 	mov.b	#32,	r9	;#0x0020
    e7ce:	0a 4c       	mov	r12,	r10	
    e7d0:	0b 4d       	mov	r13,	r11	
    e7d2:	0c 43       	clr	r12		
    e7d4:	0d 43       	clr	r13		
    e7d6:	0e 5e       	rla	r14		
    e7d8:	0f 6f       	rlc	r15		
    e7da:	0c 6c       	rlc	r12		
    e7dc:	0d 6d       	rlc	r13		
    e7de:	0d 9b       	cmp	r11,	r13	
    e7e0:	06 28       	jnc	$+14     	;abs 0xe7ee
    e7e2:	02 20       	jnz	$+6      	;abs 0xe7e8
    e7e4:	0c 9a       	cmp	r10,	r12	
    e7e6:	03 28       	jnc	$+8      	;abs 0xe7ee
    e7e8:	0c 8a       	sub	r10,	r12	
    e7ea:	0d 7b       	subc	r11,	r13	
    e7ec:	1e d3       	bis	#1,	r14	;r3 As==01
    e7ee:	19 83       	dec	r9		
    e7f0:	f2 23       	jnz	$-26     	;abs 0xe7d6
    e7f2:	39 41       	pop	r9		
    e7f4:	3a 41       	pop	r10		
    e7f6:	3b 41       	pop	r11		
    e7f8:	30 41       	ret			

0000e7fa <__umodsi3>:
    e7fa:	b0 12 c4 e7 	call	#0xe7c4	
    e7fe:	0e 4c       	mov	r12,	r14	
    e800:	0f 4d       	mov	r13,	r15	
    e802:	30 41       	ret			

0000e804 <strcmp>:
    e804:	03 3c       	jmp	$+8      	;abs 0xe80c
    e806:	1f 53       	inc	r15		
    e808:	4d 93       	tst.b	r13		
    e80a:	09 24       	jz	$+20     	;abs 0xe81e
    e80c:	6d 4f       	mov.b	@r15,	r13	
    e80e:	7c 4e       	mov.b	@r14+,	r12	
    e810:	4d 9c       	cmp.b	r12,	r13	
    e812:	f9 27       	jz	$-12     	;abs 0xe806
    e814:	4f 4d       	mov.b	r13,	r15	
    e816:	5e 4e ff ff 	mov.b	-1(r14),r14	;0xffff(r14)
    e81a:	0f 8e       	sub	r14,	r15	
    e81c:	30 41       	ret			
    e81e:	0f 43       	clr	r15		
    e820:	30 41       	ret			

0000e822 <memcmp>:
    e822:	0b 12       	push	r11		
    e824:	0d 93       	tst	r13		
    e826:	0a 24       	jz	$+22     	;abs 0xe83c
    e828:	7b 4f       	mov.b	@r15+,	r11	
    e82a:	7c 4e       	mov.b	@r14+,	r12	
    e82c:	4b 9c       	cmp.b	r12,	r11	
    e82e:	04 24       	jz	$+10     	;abs 0xe838
    e830:	4f 4b       	mov.b	r11,	r15	
    e832:	4e 4c       	mov.b	r12,	r14	
    e834:	0f 8e       	sub	r14,	r15	
    e836:	03 3c       	jmp	$+8      	;abs 0xe83e
    e838:	3d 53       	add	#-1,	r13	;r3 As==11
    e83a:	f4 3f       	jmp	$-22     	;abs 0xe824
    e83c:	0f 43       	clr	r15		
    e83e:	3b 41       	pop	r11		
    e840:	30 41       	ret			

0000e842 <strcpy>:
    e842:	0d 4f       	mov	r15,	r13	
    e844:	02 3c       	jmp	$+6      	;abs 0xe84a
    e846:	1e 53       	inc	r14		
    e848:	1d 53       	inc	r13		
    e84a:	6c 4e       	mov.b	@r14,	r12	
    e84c:	cd 4c 00 00 	mov.b	r12,	0(r13)	;0x0000(r13)
    e850:	4c 93       	tst.b	r12		
    e852:	f9 23       	jnz	$-12     	;abs 0xe846
    e854:	30 41       	ret			

0000e856 <strncpy>:
    e856:	0b 12       	push	r11		
    e858:	0d 93       	tst	r13		
    e85a:	10 24       	jz	$+34     	;abs 0xe87c
    e85c:	0c 4f       	mov	r15,	r12	
    e85e:	7b 4e       	mov.b	@r14+,	r11	
    e860:	cc 4b 00 00 	mov.b	r11,	0(r12)	;0x0000(r12)
    e864:	1c 53       	inc	r12		
    e866:	4b 93       	tst.b	r11		
    e868:	07 20       	jnz	$+16     	;abs 0xe878
    e86a:	03 3c       	jmp	$+8      	;abs 0xe872
    e86c:	cc 43 00 00 	mov.b	#0,	0(r12)	;r3 As==00, 0x0000(r12)
    e870:	1c 53       	inc	r12		
    e872:	3d 53       	add	#-1,	r13	;r3 As==11
    e874:	fb 23       	jnz	$-8      	;abs 0xe86c
    e876:	02 3c       	jmp	$+6      	;abs 0xe87c
    e878:	3d 53       	add	#-1,	r13	;r3 As==11
    e87a:	f1 23       	jnz	$-28     	;abs 0xe85e
    e87c:	3b 41       	pop	r11		
    e87e:	30 41       	ret			

0000e880 <memcpy>:
    e880:	0b 12       	push	r11		
    e882:	0a 12       	push	r10		
    e884:	09 12       	push	r9		
    e886:	08 12       	push	r8		
    e888:	07 12       	push	r7		
    e88a:	0d 93       	tst	r13		
    e88c:	70 24       	jz	$+226    	;abs 0xe96e
    e88e:	0f 9e       	cmp	r14,	r15	
    e890:	6e 24       	jz	$+222    	;abs 0xe96e
    e892:	34 2c       	jc	$+106    	;abs 0xe8fc
    e894:	0c 4e       	mov	r14,	r12	
    e896:	0c df       	bis	r15,	r12	
    e898:	1c f3       	and	#1,	r12	;r3 As==01
    e89a:	1b 24       	jz	$+56     	;abs 0xe8d2
    e89c:	0c 4e       	mov	r14,	r12	
    e89e:	0c ef       	xor	r15,	r12	
    e8a0:	1c f3       	and	#1,	r12	;r3 As==01
    e8a2:	07 20       	jnz	$+16     	;abs 0xe8b2
    e8a4:	2d 93       	cmp	#2,	r13	;r3 As==10
    e8a6:	07 28       	jnc	$+16     	;abs 0xe8b6
    e8a8:	0b 4e       	mov	r14,	r11	
    e8aa:	1b f3       	and	#1,	r11	;r3 As==01
    e8ac:	2c 43       	mov	#2,	r12	;r3 As==10
    e8ae:	0c 8b       	sub	r11,	r12	
    e8b0:	03 3c       	jmp	$+8      	;abs 0xe8b8
    e8b2:	0c 4d       	mov	r13,	r12	
    e8b4:	01 3c       	jmp	$+4      	;abs 0xe8b8
    e8b6:	1c 43       	mov	#1,	r12	;r3 As==01
    e8b8:	0d 8c       	sub	r12,	r13	
    e8ba:	0a 4c       	mov	r12,	r10	
    e8bc:	09 4e       	mov	r14,	r9	
    e8be:	0b 4f       	mov	r15,	r11	
    e8c0:	fb 49 00 00 	mov.b	@r9+,	0(r11)	;0x0000(r11)
    e8c4:	1b 53       	inc	r11		
    e8c6:	3a 53       	add	#-1,	r10	;r3 As==11
    e8c8:	fb 23       	jnz	$-8      	;abs 0xe8c0
    e8ca:	0a 4f       	mov	r15,	r10	
    e8cc:	0a 5c       	add	r12,	r10	
    e8ce:	0e 5c       	add	r12,	r14	
    e8d0:	01 3c       	jmp	$+4      	;abs 0xe8d4
    e8d2:	0a 4f       	mov	r15,	r10	
    e8d4:	0b 4d       	mov	r13,	r11	
    e8d6:	12 c3       	clrc			
    e8d8:	0b 10       	rrc	r11		
    e8da:	0b 24       	jz	$+24     	;abs 0xe8f2
    e8dc:	09 4b       	mov	r11,	r9	
    e8de:	08 4e       	mov	r14,	r8	
    e8e0:	0c 4a       	mov	r10,	r12	
    e8e2:	bc 48 00 00 	mov	@r8+,	0(r12)	;0x0000(r12)
    e8e6:	2c 53       	incd	r12		
    e8e8:	39 53       	add	#-1,	r9	;r3 As==11
    e8ea:	fb 23       	jnz	$-8      	;abs 0xe8e2
    e8ec:	0b 5b       	rla	r11		
    e8ee:	0e 5b       	add	r11,	r14	
    e8f0:	0a 5b       	add	r11,	r10	
    e8f2:	1d f3       	and	#1,	r13	;r3 As==01
    e8f4:	3c 24       	jz	$+122    	;abs 0xe96e
    e8f6:	ea 4e 00 00 	mov.b	@r14,	0(r10)	;0x0000(r10)
    e8fa:	39 3c       	jmp	$+116    	;abs 0xe96e
    e8fc:	0e 5d       	add	r13,	r14	
    e8fe:	0c 4f       	mov	r15,	r12	
    e900:	0c 5d       	add	r13,	r12	
    e902:	0b 4c       	mov	r12,	r11	
    e904:	0b de       	bis	r14,	r11	
    e906:	1b f3       	and	#1,	r11	;r3 As==01
    e908:	1b 24       	jz	$+56     	;abs 0xe940
    e90a:	0b 4c       	mov	r12,	r11	
    e90c:	0b ee       	xor	r14,	r11	
    e90e:	1b f3       	and	#1,	r11	;r3 As==01
    e910:	06 20       	jnz	$+14     	;abs 0xe91e
    e912:	3d 90 03 00 	cmp	#3,	r13	;#0x0003
    e916:	03 28       	jnc	$+8      	;abs 0xe91e
    e918:	0b 4e       	mov	r14,	r11	
    e91a:	1b f3       	and	#1,	r11	;r3 As==01
    e91c:	01 3c       	jmp	$+4      	;abs 0xe920
    e91e:	0b 4d       	mov	r13,	r11	
    e920:	0d 8b       	sub	r11,	r13	
    e922:	09 4e       	mov	r14,	r9	
    e924:	0a 4c       	mov	r12,	r10	
    e926:	08 4b       	mov	r11,	r8	
    e928:	08 8c       	sub	r12,	r8	
    e92a:	3a 53       	add	#-1,	r10	;r3 As==11
    e92c:	39 53       	add	#-1,	r9	;r3 As==11
    e92e:	ea 49 00 00 	mov.b	@r9,	0(r10)	;0x0000(r10)
    e932:	07 4a       	mov	r10,	r7	
    e934:	07 58       	add	r8,	r7	
    e936:	f9 23       	jnz	$-12     	;abs 0xe92a
    e938:	3b e3       	inv	r11		
    e93a:	1b 53       	inc	r11		
    e93c:	0c 5b       	add	r11,	r12	
    e93e:	0e 5b       	add	r11,	r14	
    e940:	0b 4d       	mov	r13,	r11	
    e942:	12 c3       	clrc			
    e944:	0b 10       	rrc	r11		
    e946:	0e 24       	jz	$+30     	;abs 0xe964
    e948:	0a 4b       	mov	r11,	r10	
    e94a:	08 4e       	mov	r14,	r8	
    e94c:	09 4c       	mov	r12,	r9	
    e94e:	28 83       	decd	r8		
    e950:	29 83       	decd	r9		
    e952:	a9 48 00 00 	mov	@r8,	0(r9)	;0x0000(r9)
    e956:	3a 53       	add	#-1,	r10	;r3 As==11
    e958:	fa 23       	jnz	$-10     	;abs 0xe94e
    e95a:	0a 8b       	sub	r11,	r10	
    e95c:	0b 4a       	mov	r10,	r11	
    e95e:	0b 5b       	rla	r11		
    e960:	0e 5b       	add	r11,	r14	
    e962:	0c 5b       	add	r11,	r12	
    e964:	1d f3       	and	#1,	r13	;r3 As==01
    e966:	03 24       	jz	$+8      	;abs 0xe96e
    e968:	dc 4e ff ff ff ff 	mov.b	-1(r14),-1(r12)	;0xffff(r14), 0xffff(r12)
    e96e:	37 41       	pop	r7		
    e970:	38 41       	pop	r8		
    e972:	39 41       	pop	r9		
    e974:	3a 41       	pop	r10		
    e976:	3b 41       	pop	r11		
    e978:	30 41       	ret			

0000e97a <memmove>:
    e97a:	0b 12       	push	r11		
    e97c:	0a 12       	push	r10		
    e97e:	09 12       	push	r9		
    e980:	08 12       	push	r8		
    e982:	07 12       	push	r7		
    e984:	0d 93       	tst	r13		
    e986:	70 24       	jz	$+226    	;abs 0xea68
    e988:	0f 9e       	cmp	r14,	r15	
    e98a:	6e 24       	jz	$+222    	;abs 0xea68
    e98c:	34 2c       	jc	$+106    	;abs 0xe9f6
    e98e:	0c 4e       	mov	r14,	r12	
    e990:	0c df       	bis	r15,	r12	
    e992:	1c f3       	and	#1,	r12	;r3 As==01
    e994:	1b 24       	jz	$+56     	;abs 0xe9cc
    e996:	0c 4e       	mov	r14,	r12	
    e998:	0c ef       	xor	r15,	r12	
    e99a:	1c f3       	and	#1,	r12	;r3 As==01
    e99c:	07 20       	jnz	$+16     	;abs 0xe9ac
    e99e:	2d 93       	cmp	#2,	r13	;r3 As==10
    e9a0:	07 28       	jnc	$+16     	;abs 0xe9b0
    e9a2:	0b 4e       	mov	r14,	r11	
    e9a4:	1b f3       	and	#1,	r11	;r3 As==01
    e9a6:	2c 43       	mov	#2,	r12	;r3 As==10
    e9a8:	0c 8b       	sub	r11,	r12	
    e9aa:	03 3c       	jmp	$+8      	;abs 0xe9b2
    e9ac:	0c 4d       	mov	r13,	r12	
    e9ae:	01 3c       	jmp	$+4      	;abs 0xe9b2
    e9b0:	1c 43       	mov	#1,	r12	;r3 As==01
    e9b2:	0d 8c       	sub	r12,	r13	
    e9b4:	0a 4c       	mov	r12,	r10	
    e9b6:	09 4e       	mov	r14,	r9	
    e9b8:	0b 4f       	mov	r15,	r11	
    e9ba:	fb 49 00 00 	mov.b	@r9+,	0(r11)	;0x0000(r11)
    e9be:	1b 53       	inc	r11		
    e9c0:	3a 53       	add	#-1,	r10	;r3 As==11
    e9c2:	fb 23       	jnz	$-8      	;abs 0xe9ba
    e9c4:	0a 4f       	mov	r15,	r10	
    e9c6:	0a 5c       	add	r12,	r10	
    e9c8:	0e 5c       	add	r12,	r14	
    e9ca:	01 3c       	jmp	$+4      	;abs 0xe9ce
    e9cc:	0a 4f       	mov	r15,	r10	
    e9ce:	0b 4d       	mov	r13,	r11	
    e9d0:	12 c3       	clrc			
    e9d2:	0b 10       	rrc	r11		
    e9d4:	0b 24       	jz	$+24     	;abs 0xe9ec
    e9d6:	09 4b       	mov	r11,	r9	
    e9d8:	08 4e       	mov	r14,	r8	
    e9da:	0c 4a       	mov	r10,	r12	
    e9dc:	bc 48 00 00 	mov	@r8+,	0(r12)	;0x0000(r12)
    e9e0:	2c 53       	incd	r12		
    e9e2:	39 53       	add	#-1,	r9	;r3 As==11
    e9e4:	fb 23       	jnz	$-8      	;abs 0xe9dc
    e9e6:	0b 5b       	rla	r11		
    e9e8:	0e 5b       	add	r11,	r14	
    e9ea:	0a 5b       	add	r11,	r10	
    e9ec:	1d f3       	and	#1,	r13	;r3 As==01
    e9ee:	3c 24       	jz	$+122    	;abs 0xea68
    e9f0:	ea 4e 00 00 	mov.b	@r14,	0(r10)	;0x0000(r10)
    e9f4:	39 3c       	jmp	$+116    	;abs 0xea68
    e9f6:	0e 5d       	add	r13,	r14	
    e9f8:	0c 4f       	mov	r15,	r12	
    e9fa:	0c 5d       	add	r13,	r12	
    e9fc:	0b 4c       	mov	r12,	r11	
    e9fe:	0b de       	bis	r14,	r11	
    ea00:	1b f3       	and	#1,	r11	;r3 As==01
    ea02:	1b 24       	jz	$+56     	;abs 0xea3a
    ea04:	0b 4c       	mov	r12,	r11	
    ea06:	0b ee       	xor	r14,	r11	
    ea08:	1b f3       	and	#1,	r11	;r3 As==01
    ea0a:	06 20       	jnz	$+14     	;abs 0xea18
    ea0c:	3d 90 03 00 	cmp	#3,	r13	;#0x0003
    ea10:	03 28       	jnc	$+8      	;abs 0xea18
    ea12:	0b 4e       	mov	r14,	r11	
    ea14:	1b f3       	and	#1,	r11	;r3 As==01
    ea16:	01 3c       	jmp	$+4      	;abs 0xea1a
    ea18:	0b 4d       	mov	r13,	r11	
    ea1a:	0d 8b       	sub	r11,	r13	
    ea1c:	09 4e       	mov	r14,	r9	
    ea1e:	0a 4c       	mov	r12,	r10	
    ea20:	08 4b       	mov	r11,	r8	
    ea22:	08 8c       	sub	r12,	r8	
    ea24:	3a 53       	add	#-1,	r10	;r3 As==11
    ea26:	39 53       	add	#-1,	r9	;r3 As==11
    ea28:	ea 49 00 00 	mov.b	@r9,	0(r10)	;0x0000(r10)
    ea2c:	07 4a       	mov	r10,	r7	
    ea2e:	07 58       	add	r8,	r7	
    ea30:	f9 23       	jnz	$-12     	;abs 0xea24
    ea32:	3b e3       	inv	r11		
    ea34:	1b 53       	inc	r11		
    ea36:	0c 5b       	add	r11,	r12	
    ea38:	0e 5b       	add	r11,	r14	
    ea3a:	0b 4d       	mov	r13,	r11	
    ea3c:	12 c3       	clrc			
    ea3e:	0b 10       	rrc	r11		
    ea40:	0e 24       	jz	$+30     	;abs 0xea5e
    ea42:	0a 4b       	mov	r11,	r10	
    ea44:	08 4e       	mov	r14,	r8	
    ea46:	09 4c       	mov	r12,	r9	
    ea48:	28 83       	decd	r8		
    ea4a:	29 83       	decd	r9		
    ea4c:	a9 48 00 00 	mov	@r8,	0(r9)	;0x0000(r9)
    ea50:	3a 53       	add	#-1,	r10	;r3 As==11
    ea52:	fa 23       	jnz	$-10     	;abs 0xea48
    ea54:	0a 8b       	sub	r11,	r10	
    ea56:	0b 4a       	mov	r10,	r11	
    ea58:	0b 5b       	rla	r11		
    ea5a:	0e 5b       	add	r11,	r14	
    ea5c:	0c 5b       	add	r11,	r12	
    ea5e:	1d f3       	and	#1,	r13	;r3 As==01
    ea60:	03 24       	jz	$+8      	;abs 0xea68
    ea62:	dc 4e ff ff ff ff 	mov.b	-1(r14),-1(r12)	;0xffff(r14), 0xffff(r12)
    ea68:	37 41       	pop	r7		
    ea6a:	38 41       	pop	r8		
    ea6c:	39 41       	pop	r9		
    ea6e:	3a 41       	pop	r10		
    ea70:	3b 41       	pop	r11		
    ea72:	30 41       	ret			

0000ea74 <memset>:
    ea74:	0b 12       	push	r11		
    ea76:	0a 12       	push	r10		
    ea78:	09 12       	push	r9		
    ea7a:	08 12       	push	r8		
    ea7c:	3d 90 06 00 	cmp	#6,	r13	;#0x0006
    ea80:	09 2c       	jc	$+20     	;abs 0xea94
    ea82:	0c 4f       	mov	r15,	r12	
    ea84:	04 3c       	jmp	$+10     	;abs 0xea8e
    ea86:	cc 4e 00 00 	mov.b	r14,	0(r12)	;0x0000(r12)
    ea8a:	1c 53       	inc	r12		
    ea8c:	3d 53       	add	#-1,	r13	;r3 As==11
    ea8e:	0d 93       	tst	r13		
    ea90:	fa 23       	jnz	$-10     	;abs 0xea86
    ea92:	20 3c       	jmp	$+66     	;abs 0xead4
    ea94:	4e 4e       	mov.b	r14,	r14	
    ea96:	4b 4e       	mov.b	r14,	r11	
    ea98:	0b 93       	tst	r11		
    ea9a:	03 24       	jz	$+8      	;abs 0xeaa2
    ea9c:	0c 4b       	mov	r11,	r12	
    ea9e:	8c 10       	swpb	r12		
    eaa0:	0b dc       	bis	r12,	r11	
    eaa2:	1f b3       	bit	#1,	r15	;r3 As==01
    eaa4:	06 24       	jz	$+14     	;abs 0xeab2
    eaa6:	3d 53       	add	#-1,	r13	;r3 As==11
    eaa8:	cf 4e 00 00 	mov.b	r14,	0(r15)	;0x0000(r15)
    eaac:	09 4f       	mov	r15,	r9	
    eaae:	19 53       	inc	r9		
    eab0:	01 3c       	jmp	$+4      	;abs 0xeab4
    eab2:	09 4f       	mov	r15,	r9	
    eab4:	0c 4d       	mov	r13,	r12	
    eab6:	12 c3       	clrc			
    eab8:	0c 10       	rrc	r12		
    eaba:	0a 49       	mov	r9,	r10	
    eabc:	08 4c       	mov	r12,	r8	
    eabe:	8a 4b 00 00 	mov	r11,	0(r10)	;0x0000(r10)
    eac2:	2a 53       	incd	r10		
    eac4:	38 53       	add	#-1,	r8	;r3 As==11
    eac6:	fb 23       	jnz	$-8      	;abs 0xeabe
    eac8:	0c 5c       	rla	r12		
    eaca:	0c 59       	add	r9,	r12	
    eacc:	1d f3       	and	#1,	r13	;r3 As==01
    eace:	02 24       	jz	$+6      	;abs 0xead4
    ead0:	cc 4e 00 00 	mov.b	r14,	0(r12)	;0x0000(r12)
    ead4:	38 41       	pop	r8		
    ead6:	39 41       	pop	r9		
    ead8:	3a 41       	pop	r10		
    eada:	3b 41       	pop	r11		
    eadc:	30 41       	ret			

0000eade <atoi>:
    eade:	0b 12       	push	r11		
    eae0:	0e 4f       	mov	r15,	r14	
    eae2:	01 3c       	jmp	$+4      	;abs 0xeae6
    eae4:	1e 53       	inc	r14		
    eae6:	6f 4e       	mov.b	@r14,	r15	
    eae8:	7f 90 20 00 	cmp.b	#32,	r15	;#0x0020
    eaec:	fb 27       	jz	$-8      	;abs 0xeae4
    eaee:	7f 90 09 00 	cmp.b	#9,	r15	;#0x0009
    eaf2:	f8 27       	jz	$-14     	;abs 0xeae4
    eaf4:	7f 90 0a 00 	cmp.b	#10,	r15	;#0x000a
    eaf8:	f5 27       	jz	$-20     	;abs 0xeae4
    eafa:	7f 90 0c 00 	cmp.b	#12,	r15	;#0x000c
    eafe:	f2 27       	jz	$-26     	;abs 0xeae4
    eb00:	7f 90 0d 00 	cmp.b	#13,	r15	;#0x000d
    eb04:	ef 27       	jz	$-32     	;abs 0xeae4
    eb06:	7f 90 0b 00 	cmp.b	#11,	r15	;#0x000b
    eb0a:	ec 27       	jz	$-38     	;abs 0xeae4
    eb0c:	7f 90 2d 00 	cmp.b	#45,	r15	;#0x002d
    eb10:	03 20       	jnz	$+8      	;abs 0xeb18
    eb12:	1e 53       	inc	r14		
    eb14:	1b 43       	mov	#1,	r11	;r3 As==01
    eb16:	05 3c       	jmp	$+12     	;abs 0xeb22
    eb18:	7f 90 2b 00 	cmp.b	#43,	r15	;#0x002b
    eb1c:	01 20       	jnz	$+4      	;abs 0xeb20
    eb1e:	1e 53       	inc	r14		
    eb20:	0b 43       	clr	r11		
    eb22:	6f 4e       	mov.b	@r14,	r15	
    eb24:	8f 11       	sxt	r15		
    eb26:	3f 50 d0 ff 	add	#-48,	r15	;#0xffd0
    eb2a:	3f 90 0a 00 	cmp	#10,	r15	;#0x000a
    eb2e:	19 2c       	jc	$+52     	;abs 0xeb62
    eb30:	0d 43       	clr	r13		
    eb32:	7c 4e       	mov.b	@r14+,	r12	
    eb34:	8c 11       	sxt	r12		
    eb36:	0f 4c       	mov	r12,	r15	
    eb38:	3f 50 d0 ff 	add	#-48,	r15	;#0xffd0
    eb3c:	0f 5d       	add	r13,	r15	
    eb3e:	6d 4e       	mov.b	@r14,	r13	
    eb40:	8d 11       	sxt	r13		
    eb42:	3d 50 d0 ff 	add	#-48,	r13	;#0xffd0
    eb46:	3d 90 0a 00 	cmp	#10,	r13	;#0x000a
    eb4a:	06 2c       	jc	$+14     	;abs 0xeb58
    eb4c:	0f 5f       	rla	r15		
    eb4e:	0d 4f       	mov	r15,	r13	
    eb50:	0d 5d       	rla	r13		
    eb52:	0d 5d       	rla	r13		
    eb54:	0d 5f       	add	r15,	r13	
    eb56:	ed 3f       	jmp	$-36     	;abs 0xeb32
    eb58:	0b 93       	tst	r11		
    eb5a:	04 24       	jz	$+10     	;abs 0xeb64
    eb5c:	3f e3       	inv	r15		
    eb5e:	1f 53       	inc	r15		
    eb60:	01 3c       	jmp	$+4      	;abs 0xeb64
    eb62:	0f 43       	clr	r15		
    eb64:	3b 41       	pop	r11		
    eb66:	30 41       	ret			

0000eb68 <append>:
    eb68:	1e 42 2a 12 	mov	&0x122a,r14	
    eb6c:	1e 93       	cmp	#1,	r14	;r3 As==01
    eb6e:	0b 38       	jl	$+24     	;abs 0xeb86
    eb70:	1d 42 28 12 	mov	&0x1228,r13	
    eb74:	cd 4f 00 00 	mov.b	r15,	0(r13)	;0x0000(r13)
    eb78:	1d 53       	inc	r13		
    eb7a:	82 4d 28 12 	mov	r13,	&0x1228	
    eb7e:	3e 53       	add	#-1,	r14	;r3 As==11
    eb80:	82 4e 2a 12 	mov	r14,	&0x122a	
    eb84:	30 41       	ret			
    eb86:	3f 43       	mov	#-1,	r15	;r3 As==11
    eb88:	30 41       	ret			

0000eb8a <call_vuprintf>:
    eb8a:	0b 12       	push	r11		
    eb8c:	0a 12       	push	r10		
    eb8e:	21 83       	decd	r1		
    eb90:	81 4e 00 00 	mov	r14,	0(r1)	;0x0000(r1)
    eb94:	1a 42 28 12 	mov	&0x1228,r10	
    eb98:	1b 42 2a 12 	mov	&0x122a,r11	
    eb9c:	0d 4e       	mov	r14,	r13	
    eb9e:	0e 4f       	mov	r15,	r14	
    eba0:	3f 40 68 eb 	mov	#-5272,	r15	;#0xeb68
    eba4:	b0 12 bc ed 	call	#0xedbc	
    eba8:	0f 9b       	cmp	r11,	r15	
    ebaa:	05 38       	jl	$+12     	;abs 0xebb6
    ebac:	0e 4a       	mov	r10,	r14	
    ebae:	0e 5b       	add	r11,	r14	
    ebb0:	ce 43 ff ff 	mov.b	#0,	-1(r14)	;r3 As==00, 0xffff(r14)
    ebb4:	04 3c       	jmp	$+10     	;abs 0xebbe
    ebb6:	1e 42 28 12 	mov	&0x1228,r14	
    ebba:	ce 43 00 00 	mov.b	#0,	0(r14)	;r3 As==00, 0x0000(r14)
    ebbe:	21 53       	incd	r1		
    ebc0:	3a 41       	pop	r10		
    ebc2:	3b 41       	pop	r11		
    ebc4:	30 41       	ret			

0000ebc6 <sprintf>:
    ebc6:	92 41 02 00 28 12 	mov	2(r1),	&0x1228	;0x0002(r1)
    ebcc:	b2 40 ff 7f 2a 12 	mov	#32767,	&0x122a	;#0x7fff
    ebd2:	0e 41       	mov	r1,	r14	
    ebd4:	3e 50 06 00 	add	#6,	r14	;#0x0006
    ebd8:	1f 41 04 00 	mov	4(r1),	r15	;0x0004(r1)
    ebdc:	b0 12 8a eb 	call	#0xeb8a	
    ebe0:	30 41       	ret			

0000ebe2 <snprintf>:
    ebe2:	92 41 02 00 28 12 	mov	2(r1),	&0x1228	;0x0002(r1)
    ebe8:	92 41 04 00 2a 12 	mov	4(r1),	&0x122a	;0x0004(r1)
    ebee:	0e 41       	mov	r1,	r14	
    ebf0:	3e 52       	add	#8,	r14	;r2 As==11
    ebf2:	1f 41 06 00 	mov	6(r1),	r15	;0x0006(r1)
    ebf6:	b0 12 8a eb 	call	#0xeb8a	
    ebfa:	30 41       	ret			

0000ebfc <vsprintf>:
    ebfc:	0c 4e       	mov	r14,	r12	
    ebfe:	82 4f 28 12 	mov	r15,	&0x1228	
    ec02:	b2 40 ff 7f 2a 12 	mov	#32767,	&0x122a	;#0x7fff
    ec08:	0e 4d       	mov	r13,	r14	
    ec0a:	0f 4c       	mov	r12,	r15	
    ec0c:	b0 12 8a eb 	call	#0xeb8a	
    ec10:	30 41       	ret			

0000ec12 <vsnprintf>:
    ec12:	82 4f 28 12 	mov	r15,	&0x1228	
    ec16:	82 4e 2a 12 	mov	r14,	&0x122a	
    ec1a:	0e 4c       	mov	r12,	r14	
    ec1c:	0f 4d       	mov	r13,	r15	
    ec1e:	b0 12 8a eb 	call	#0xeb8a	
    ec22:	30 41       	ret			

0000ec24 <print_field>:
    ec24:	0b 12       	push	r11		
    ec26:	0a 12       	push	r10		
    ec28:	09 12       	push	r9		
    ec2a:	08 12       	push	r8		
    ec2c:	07 12       	push	r7		
    ec2e:	06 12       	push	r6		
    ec30:	05 12       	push	r5		
    ec32:	04 12       	push	r4		
    ec34:	31 82       	sub	#8,	r1	;r2 As==11
    ec36:	08 4f       	mov	r15,	r8	
    ec38:	81 4e 04 00 	mov	r14,	4(r1)	;0x0004(r1)
    ec3c:	09 4d       	mov	r13,	r9	
    ec3e:	1f 41 1a 00 	mov	26(r1),	r15	;0x001a(r1)
    ec42:	1d 41 1c 00 	mov	28(r1),	r13	;0x001c(r1)
    ec46:	4c 4d       	mov.b	r13,	r12	
    ec48:	04 4d       	mov	r13,	r4	
    ec4a:	84 10       	swpb	r4		
    ec4c:	45 44       	mov.b	r4,	r5	
    ec4e:	4e 4f       	mov.b	r15,	r14	
    ec50:	7e b0 40 00 	bit.b	#64,	r14	;#0x0040
    ec54:	11 24       	jz	$+36     	;abs 0xec78
    ec56:	f1 40 30 00 00 00 	mov.b	#48,	0(r1)	;#0x0030, 0x0000(r1)
    ec5c:	0e 4f       	mov	r15,	r14	
    ec5e:	8e 10       	swpb	r14		
    ec60:	5e f3       	and.b	#1,	r14	;r3 As==01
    ec62:	03 24       	jz	$+8      	;abs 0xec6a
    ec64:	7e 40 58 00 	mov.b	#88,	r14	;#0x0058
    ec68:	02 3c       	jmp	$+6      	;abs 0xec6e
    ec6a:	7e 40 78 00 	mov.b	#120,	r14	;#0x0078
    ec6e:	c1 4e 01 00 	mov.b	r14,	1(r1)	;0x0001(r1)
    ec72:	0c 41       	mov	r1,	r12	
    ec74:	2c 53       	incd	r12		
    ec76:	0f 3c       	jmp	$+32     	;abs 0xec96
    ec78:	7e f0 20 00 	and.b	#32,	r14	;#0x0020
    ec7c:	04 24       	jz	$+10     	;abs 0xec86
    ec7e:	f1 40 30 00 00 00 	mov.b	#48,	0(r1)	;#0x0030, 0x0000(r1)
    ec84:	04 3c       	jmp	$+10     	;abs 0xec8e
    ec86:	4c 93       	tst.b	r12		
    ec88:	05 24       	jz	$+12     	;abs 0xec94
    ec8a:	c1 4d 00 00 	mov.b	r13,	0(r1)	;0x0000(r1)
    ec8e:	0c 41       	mov	r1,	r12	
    ec90:	1c 53       	inc	r12		
    ec92:	01 3c       	jmp	$+4      	;abs 0xec96
    ec94:	0c 41       	mov	r1,	r12	
    ec96:	0a 4c       	mov	r12,	r10	
    ec98:	8c 10       	swpb	r12		
    ec9a:	8c 11       	sxt	r12		
    ec9c:	8c 10       	swpb	r12		
    ec9e:	8c 11       	sxt	r12		
    eca0:	0b 4c       	mov	r12,	r11	
    eca2:	06 41       	mov	r1,	r6	
    eca4:	0c 41       	mov	r1,	r12	
    eca6:	8c 10       	swpb	r12		
    eca8:	8c 11       	sxt	r12		
    ecaa:	8c 10       	swpb	r12		
    ecac:	8c 11       	sxt	r12		
    ecae:	07 4c       	mov	r12,	r7	
    ecb0:	0a 86       	sub	r6,	r10	
    ecb2:	0b 77       	subc	r7,	r11	
    ecb4:	0e 4f       	mov	r15,	r14	
    ecb6:	8e 10       	swpb	r14		
    ecb8:	c1 4e 02 00 	mov.b	r14,	2(r1)	;0x0002(r1)
    ecbc:	6e f2       	and.b	#4,	r14	;r2 As==10
    ecbe:	02 24       	jz	$+6      	;abs 0xecc4
    ecc0:	07 45       	mov	r5,	r7	
    ecc2:	01 3c       	jmp	$+4      	;abs 0xecc6
    ecc4:	37 43       	mov	#-1,	r7	;r3 As==11
    ecc6:	4f 4f       	mov.b	r15,	r15	
    ecc8:	7f b0 10 00 	bit.b	#16,	r15	;#0x0010
    eccc:	3c 20       	jnz	$+122    	;abs 0xed46
    ecce:	1d 41 04 00 	mov	4(r1),	r13	;0x0004(r1)
    ecd2:	3d 53       	add	#-1,	r13	;r3 As==11
    ecd4:	1d 53       	inc	r13		
    ecd6:	cd 93 00 00 	tst.b	0(r13)		;0x0000(r13)
    ecda:	fc 23       	jnz	$-6      	;abs 0xecd4
    ecdc:	1d 81 04 00 	sub	4(r1),	r13	;0x0004(r1)
    ece0:	09 9a       	cmp	r10,	r9	
    ece2:	02 28       	jnc	$+6      	;abs 0xece8
    ece4:	09 8a       	sub	r10,	r9	
    ece6:	01 3c       	jmp	$+4      	;abs 0xecea
    ece8:	09 43       	clr	r9		
    ecea:	e1 b3 02 00 	bit.b	#2,	2(r1)	;r3 As==10, 0x0002(r1)
    ecee:	05 24       	jz	$+12     	;abs 0xecfa
    ecf0:	09 95       	cmp	r5,	r9	
    ecf2:	02 28       	jnc	$+6      	;abs 0xecf8
    ecf4:	09 85       	sub	r5,	r9	
    ecf6:	01 3c       	jmp	$+4      	;abs 0xecfa
    ecf8:	09 43       	clr	r9		
    ecfa:	05 4d       	mov	r13,	r5	
    ecfc:	07 9d       	cmp	r13,	r7	
    ecfe:	01 2c       	jc	$+4      	;abs 0xed02
    ed00:	05 47       	mov	r7,	r5	
    ed02:	4f 93       	tst.b	r15		
    ed04:	0d 38       	jl	$+28     	;abs 0xed20
    ed06:	f1 40 20 00 06 00 	mov.b	#32,	6(r1)	;#0x0020, 0x0006(r1)
    ed0c:	06 43       	clr	r6		
    ed0e:	0b 43       	clr	r11		
    ed10:	0e 3c       	jmp	$+30     	;abs 0xed2e
    ed12:	0f 41       	mov	r1,	r15	
    ed14:	0f 56       	add	r6,	r15	
    ed16:	6f 4f       	mov.b	@r15,	r15	
    ed18:	8f 11       	sxt	r15		
    ed1a:	16 53       	inc	r6		
    ed1c:	88 12       	call	r8		
    ed1e:	01 3c       	jmp	$+4      	;abs 0xed22
    ed20:	06 43       	clr	r6		
    ed22:	06 9a       	cmp	r10,	r6	
    ed24:	f6 3b       	jl	$-18     	;abs 0xed12
    ed26:	0b 4a       	mov	r10,	r11	
    ed28:	f1 40 30 00 06 00 	mov.b	#48,	6(r1)	;#0x0030, 0x0006(r1)
    ed2e:	05 8b       	sub	r11,	r5	
    ed30:	05 3c       	jmp	$+12     	;abs 0xed3c
    ed32:	5f 41 06 00 	mov.b	6(r1),	r15	;0x0006(r1)
    ed36:	8f 11       	sxt	r15		
    ed38:	88 12       	call	r8		
    ed3a:	1b 53       	inc	r11		
    ed3c:	0f 45       	mov	r5,	r15	
    ed3e:	0f 5b       	add	r11,	r15	
    ed40:	0f 99       	cmp	r9,	r15	
    ed42:	f7 2b       	jnc	$-16     	;abs 0xed32
    ed44:	0a 3c       	jmp	$+22     	;abs 0xed5a
    ed46:	06 43       	clr	r6		
    ed48:	0b 43       	clr	r11		
    ed4a:	07 3c       	jmp	$+16     	;abs 0xed5a
    ed4c:	1b 53       	inc	r11		
    ed4e:	0f 41       	mov	r1,	r15	
    ed50:	0f 56       	add	r6,	r15	
    ed52:	6f 4f       	mov.b	@r15,	r15	
    ed54:	8f 11       	sxt	r15		
    ed56:	16 53       	inc	r6		
    ed58:	88 12       	call	r8		
    ed5a:	06 9a       	cmp	r10,	r6	
    ed5c:	f7 3b       	jl	$-16     	;abs 0xed4c
    ed5e:	e1 b3 02 00 	bit.b	#2,	2(r1)	;r3 As==10, 0x0002(r1)
    ed62:	02 24       	jz	$+6      	;abs 0xed68
    ed64:	4a 44       	mov.b	r4,	r10	
    ed66:	08 3c       	jmp	$+18     	;abs 0xed78
    ed68:	1a 41 04 00 	mov	4(r1),	r10	;0x0004(r1)
    ed6c:	0a 8b       	sub	r11,	r10	
    ed6e:	0d 3c       	jmp	$+28     	;abs 0xed8a
    ed70:	3f 40 30 00 	mov	#48,	r15	;#0x0030
    ed74:	88 12       	call	r8		
    ed76:	7a 53       	add.b	#-1,	r10	;r3 As==11
    ed78:	4a 93       	tst.b	r10		
    ed7a:	fa 23       	jnz	$-10     	;abs 0xed70
    ed7c:	44 44       	mov.b	r4,	r4	
    ed7e:	0b 54       	add	r4,	r11	
    ed80:	f3 3f       	jmp	$-24     	;abs 0xed68
    ed82:	37 53       	add	#-1,	r7	;r3 As==11
    ed84:	8f 11       	sxt	r15		
    ed86:	88 12       	call	r8		
    ed88:	1b 53       	inc	r11		
    ed8a:	0f 4a       	mov	r10,	r15	
    ed8c:	0f 5b       	add	r11,	r15	
    ed8e:	6f 4f       	mov.b	@r15,	r15	
    ed90:	4f 93       	tst.b	r15		
    ed92:	07 24       	jz	$+16     	;abs 0xeda2
    ed94:	07 93       	tst	r7		
    ed96:	f5 23       	jnz	$-20     	;abs 0xed82
    ed98:	04 3c       	jmp	$+10     	;abs 0xeda2
    ed9a:	3f 40 20 00 	mov	#32,	r15	;#0x0020
    ed9e:	88 12       	call	r8		
    eda0:	1b 53       	inc	r11		
    eda2:	0b 99       	cmp	r9,	r11	
    eda4:	fa 2b       	jnc	$-10     	;abs 0xed9a
    eda6:	0f 4b       	mov	r11,	r15	
    eda8:	31 52       	add	#8,	r1	;r2 As==11
    edaa:	34 41       	pop	r4		
    edac:	35 41       	pop	r5		
    edae:	36 41       	pop	r6		
    edb0:	37 41       	pop	r7		
    edb2:	38 41       	pop	r8		
    edb4:	39 41       	pop	r9		
    edb6:	3a 41       	pop	r10		
    edb8:	3b 41       	pop	r11		
    edba:	30 41       	ret			

0000edbc <vuprintf>:
    edbc:	0b 12       	push	r11		
    edbe:	0a 12       	push	r10		
    edc0:	09 12       	push	r9		
    edc2:	08 12       	push	r8		
    edc4:	07 12       	push	r7		
    edc6:	06 12       	push	r6		
    edc8:	05 12       	push	r5		
    edca:	04 12       	push	r4		
    edcc:	31 50 b6 ff 	add	#-74,	r1	;#0xffb6
    edd0:	81 4f 3a 00 	mov	r15,	58(r1)	;0x003a(r1)
    edd4:	06 4e       	mov	r14,	r6	
    edd6:	05 4d       	mov	r13,	r5	
    edd8:	81 4e 3e 00 	mov	r14,	62(r1)	;0x003e(r1)
    eddc:	c1 43 2f 00 	mov.b	#0,	47(r1)	;r3 As==00, 0x002f(r1)
    ede0:	c1 43 2b 00 	mov.b	#0,	43(r1)	;r3 As==00, 0x002b(r1)
    ede4:	c1 43 2e 00 	mov.b	#0,	46(r1)	;r3 As==00, 0x002e(r1)
    ede8:	c1 43 2a 00 	mov.b	#0,	42(r1)	;r3 As==00, 0x002a(r1)
    edec:	81 43 30 00 	mov	#0,	48(r1)	;r3 As==00, 0x0030(r1)
    edf0:	81 43 26 00 	mov	#0,	38(r1)	;r3 As==00, 0x0026(r1)
    edf4:	07 43       	clr	r7		
    edf6:	81 43 2c 00 	mov	#0,	44(r1)	;r3 As==00, 0x002c(r1)
    edfa:	0e 41       	mov	r1,	r14	
    edfc:	3e 50 1c 00 	add	#28,	r14	;#0x001c
    ee00:	81 4e 1c 00 	mov	r14,	28(r1)	;0x001c(r1)
    ee04:	30 40 36 f4 	br	#0xf436	
    ee08:	0f 46       	mov	r6,	r15	
    ee0a:	1f 53       	inc	r15		
    ee0c:	81 4f 40 00 	mov	r15,	64(r1)	;0x0040(r1)
    ee10:	07 93       	tst	r7		
    ee12:	1e 20       	jnz	$+62     	;abs 0xee50
    ee14:	7e 90 25 00 	cmp.b	#37,	r14	;#0x0025
    ee18:	13 20       	jnz	$+40     	;abs 0xee40
    ee1a:	81 43 00 00 	mov	#0,	0(r1)	;r3 As==00, 0x0000(r1)
    ee1e:	81 43 02 00 	mov	#0,	2(r1)	;r3 As==00, 0x0002(r1)
    ee22:	81 46 3e 00 	mov	r6,	62(r1)	;0x003e(r1)
    ee26:	c1 43 2f 00 	mov.b	#0,	47(r1)	;r3 As==00, 0x002f(r1)
    ee2a:	c1 43 2b 00 	mov.b	#0,	43(r1)	;r3 As==00, 0x002b(r1)
    ee2e:	c1 43 2e 00 	mov.b	#0,	46(r1)	;r3 As==00, 0x002e(r1)
    ee32:	c1 43 2a 00 	mov.b	#0,	42(r1)	;r3 As==00, 0x002a(r1)
    ee36:	81 43 30 00 	mov	#0,	48(r1)	;r3 As==00, 0x0030(r1)
    ee3a:	30 40 2c f4 	br	#0xf42c	
    ee3e:	05 47       	mov	r7,	r5	
    ee40:	8e 11       	sxt	r14		
    ee42:	0f 4e       	mov	r14,	r15	
    ee44:	91 12 3c 00 	call	60(r1)		;0x003c(r1)
    ee48:	91 53 2c 00 	inc	44(r1)		;0x002c(r1)
    ee4c:	30 40 12 f4 	br	#0xf412	
    ee50:	7e 90 63 00 	cmp.b	#99,	r14	;#0x0063
    ee54:	c5 24       	jz	$+396    	;abs 0xefe0
    ee56:	7e 90 64 00 	cmp.b	#100,	r14	;#0x0064
    ee5a:	27 34       	jge	$+80     	;abs 0xeeaa
    ee5c:	7e 90 30 00 	cmp.b	#48,	r14	;#0x0030
    ee60:	94 24       	jz	$+298    	;abs 0xef8a
    ee62:	7e 90 31 00 	cmp.b	#49,	r14	;#0x0031
    ee66:	1a 34       	jge	$+54     	;abs 0xee9c
    ee68:	7e 90 2a 00 	cmp.b	#42,	r14	;#0x002a
    ee6c:	77 24       	jz	$+240    	;abs 0xef5c
    ee6e:	7e 90 2b 00 	cmp.b	#43,	r14	;#0x002b
    ee72:	0a 34       	jge	$+22     	;abs 0xee88
    ee74:	7e 90 23 00 	cmp.b	#35,	r14	;#0x0023
    ee78:	42 24       	jz	$+134    	;abs 0xeefe
    ee7a:	7e 90 25 00 	cmp.b	#37,	r14	;#0x0025
    ee7e:	e0 27       	jz	$-62     	;abs 0xee40
    ee80:	7e 90 20 00 	cmp.b	#32,	r14	;#0x0020
    ee84:	32 20       	jnz	$+102    	;abs 0xeeea
    ee86:	56 3c       	jmp	$+174    	;abs 0xef34
    ee88:	7e 90 2d 00 	cmp.b	#45,	r14	;#0x002d
    ee8c:	49 24       	jz	$+148    	;abs 0xef20
    ee8e:	7e 90 2e 00 	cmp.b	#46,	r14	;#0x002e
    ee92:	5b 24       	jz	$+184    	;abs 0xef4a
    ee94:	7e 90 2b 00 	cmp.b	#43,	r14	;#0x002b
    ee98:	28 20       	jnz	$+82     	;abs 0xeeea
    ee9a:	47 3c       	jmp	$+144    	;abs 0xef2a
    ee9c:	7e 90 3a 00 	cmp.b	#58,	r14	;#0x003a
    eea0:	8c 38       	jl	$+282    	;abs 0xefba
    eea2:	7e 90 58 00 	cmp.b	#88,	r14	;#0x0058
    eea6:	21 20       	jnz	$+68     	;abs 0xeeea
    eea8:	e9 3c       	jmp	$+468    	;abs 0xf07c
    eeaa:	7e 90 6f 00 	cmp.b	#111,	r14	;#0x006f
    eeae:	24 24       	jz	$+74     	;abs 0xeef8
    eeb0:	7e 90 70 00 	cmp.b	#112,	r14	;#0x0070
    eeb4:	0a 34       	jge	$+22     	;abs 0xeeca
    eeb6:	7e 90 69 00 	cmp.b	#105,	r14	;#0x0069
    eeba:	e3 24       	jz	$+456    	;abs 0xf082
    eebc:	7e 90 6c 00 	cmp.b	#108,	r14	;#0x006c
    eec0:	22 24       	jz	$+70     	;abs 0xef06
    eec2:	7e 90 64 00 	cmp.b	#100,	r14	;#0x0064
    eec6:	11 20       	jnz	$+36     	;abs 0xeeea
    eec8:	dc 3c       	jmp	$+442    	;abs 0xf082
    eeca:	7e 90 73 00 	cmp.b	#115,	r14	;#0x0073
    eece:	98 24       	jz	$+306    	;abs 0xf000
    eed0:	7e 90 74 00 	cmp.b	#116,	r14	;#0x0074
    eed4:	04 34       	jge	$+10     	;abs 0xeede
    eed6:	7e 90 70 00 	cmp.b	#112,	r14	;#0x0070
    eeda:	07 20       	jnz	$+16     	;abs 0xeeea
    eedc:	b8 3c       	jmp	$+370    	;abs 0xf04e
    eede:	7e 90 75 00 	cmp.b	#117,	r14	;#0x0075
    eee2:	d1 24       	jz	$+420    	;abs 0xf086
    eee4:	7e 90 78 00 	cmp.b	#120,	r14	;#0x0078
    eee8:	d2 24       	jz	$+422    	;abs 0xf08e
    eeea:	19 41 3e 00 	mov	62(r1),	r9	;0x003e(r1)
    eeee:	18 41 2c 00 	mov	44(r1),	r8	;0x002c(r1)
    eef2:	08 89       	sub	r9,	r8	
    eef4:	30 40 00 f4 	br	#0xf400	
    eef8:	b1 42 28 00 	mov	#8,	40(r1)	;r2 As==11, 0x0028(r1)
    eefc:	cb 3c       	jmp	$+408    	;abs 0xf094
    eefe:	f1 d2 00 00 	bis.b	#8,	0(r1)	;r2 As==11, 0x0000(r1)
    ef02:	30 40 30 f4 	br	#0xf430	
    ef06:	69 41       	mov.b	@r1,	r9	
    ef08:	59 f3       	and.b	#1,	r9	;r3 As==01
    ef0a:	6e 41       	mov.b	@r1,	r14	
    ef0c:	04 24       	jz	$+10     	;abs 0xef16
    ef0e:	7e f0 fe ff 	and.b	#-2,	r14	;#0xfffe
    ef12:	6e d3       	bis.b	#2,	r14	;r3 As==10
    ef14:	01 3c       	jmp	$+4      	;abs 0xef18
    ef16:	5e d3       	bis.b	#1,	r14	;r3 As==01
    ef18:	c1 4e 00 00 	mov.b	r14,	0(r1)	;0x0000(r1)
    ef1c:	30 40 30 f4 	br	#0xf430	
    ef20:	f1 d0 10 00 00 00 	bis.b	#16,	0(r1)	;#0x0010, 0x0000(r1)
    ef26:	30 40 30 f4 	br	#0xf430	
    ef2a:	f1 40 2b 00 02 00 	mov.b	#43,	2(r1)	;#0x002b, 0x0002(r1)
    ef30:	30 40 30 f4 	br	#0xf430	
    ef34:	f1 90 2b 00 02 00 	cmp.b	#43,	2(r1)	;#0x002b, 0x0002(r1)
    ef3a:	02 20       	jnz	$+6      	;abs 0xef40
    ef3c:	30 40 30 f4 	br	#0xf430	
    ef40:	f1 40 20 00 02 00 	mov.b	#32,	2(r1)	;#0x0020, 0x0002(r1)
    ef46:	30 40 30 f4 	br	#0xf430	
    ef4a:	c1 93 2a 00 	tst.b	42(r1)		;0x002a(r1)
    ef4e:	02 24       	jz	$+6      	;abs 0xef54
    ef50:	30 40 16 f4 	br	#0xf416	
    ef54:	d1 43 2e 00 	mov.b	#1,	46(r1)	;r3 As==01, 0x002e(r1)
    ef58:	30 40 30 f4 	br	#0xf430	
    ef5c:	0e 45       	mov	r5,	r14	
    ef5e:	2e 53       	incd	r14		
    ef60:	2a 45       	mov	@r5,	r10	
    ef62:	0a 93       	tst	r10		
    ef64:	03 38       	jl	$+8      	;abs 0xef6c
    ef66:	81 4a 26 00 	mov	r10,	38(r1)	;0x0026(r1)
    ef6a:	0d 3c       	jmp	$+28     	;abs 0xef86
    ef6c:	c1 93 2e 00 	tst.b	46(r1)		;0x002e(r1)
    ef70:	02 24       	jz	$+6      	;abs 0xef76
    ef72:	30 40 26 f4 	br	#0xf426	
    ef76:	f1 d0 10 00 00 00 	bis.b	#16,	0(r1)	;#0x0010, 0x0000(r1)
    ef7c:	3a e3       	inv	r10		
    ef7e:	81 4a 26 00 	mov	r10,	38(r1)	;0x0026(r1)
    ef82:	91 53 26 00 	inc	38(r1)		;0x0026(r1)
    ef86:	05 4e       	mov	r14,	r5	
    ef88:	27 3c       	jmp	$+80     	;abs 0xefd8
    ef8a:	81 93 26 00 	tst	38(r1)		;0x0026(r1)
    ef8e:	15 20       	jnz	$+44     	;abs 0xefba
    ef90:	c1 93 2e 00 	tst.b	46(r1)		;0x002e(r1)
    ef94:	12 20       	jnz	$+38     	;abs 0xefba
    ef96:	69 41       	mov.b	@r1,	r9	
    ef98:	79 f0 10 00 	and.b	#16,	r9	;#0x0010
    ef9c:	5e 43       	mov.b	#1,	r14	;r3 As==01
    ef9e:	01 24       	jz	$+4      	;abs 0xefa2
    efa0:	4e 43       	clr.b	r14		
    efa2:	4e 4e       	mov.b	r14,	r14	
    efa4:	0e 11       	rra	r14		
    efa6:	0e 43       	clr	r14		
    efa8:	4e 10       	rrc.b	r14		
    efaa:	6a 41       	mov.b	@r1,	r10	
    efac:	7a f0 7f 00 	and.b	#127,	r10	;#0x007f
    efb0:	4a de       	bis.b	r14,	r10	
    efb2:	c1 4a 00 00 	mov.b	r10,	0(r1)	;0x0000(r1)
    efb6:	30 40 30 f4 	br	#0xf430	
    efba:	1a 41 26 00 	mov	38(r1),	r10	;0x0026(r1)
    efbe:	0a 5a       	rla	r10		
    efc0:	0c 4a       	mov	r10,	r12	
    efc2:	0c 5c       	rla	r12		
    efc4:	0c 5c       	rla	r12		
    efc6:	0a 5c       	add	r12,	r10	
    efc8:	81 4a 26 00 	mov	r10,	38(r1)	;0x0026(r1)
    efcc:	b1 50 d0 ff 26 00 	add	#-48,	38(r1)	;#0xffd0, 0x0026(r1)
    efd2:	8e 11       	sxt	r14		
    efd4:	81 5e 26 00 	add	r14,	38(r1)	;0x0026(r1)
    efd8:	d1 43 2a 00 	mov.b	#1,	42(r1)	;r3 As==01, 0x002a(r1)
    efdc:	30 40 30 f4 	br	#0xf430	
    efe0:	07 45       	mov	r5,	r7	
    efe2:	27 53       	incd	r7		
    efe4:	6e 45       	mov.b	@r5,	r14	
    efe6:	c1 93 2e 00 	tst.b	46(r1)		;0x002e(r1)
    efea:	03 20       	jnz	$+8      	;abs 0xeff2
    efec:	c1 93 2a 00 	tst.b	42(r1)		;0x002a(r1)
    eff0:	26 27       	jz	$-434    	;abs 0xee3e
    eff2:	c1 4e 04 00 	mov.b	r14,	4(r1)	;0x0004(r1)
    eff6:	c1 43 05 00 	mov.b	#0,	5(r1)	;r3 As==00, 0x0005(r1)
    effa:	0e 41       	mov	r1,	r14	
    effc:	2e 52       	add	#4,	r14	;r2 As==10
    effe:	03 3c       	jmp	$+8      	;abs 0xf006
    f000:	07 45       	mov	r5,	r7	
    f002:	27 53       	incd	r7		
    f004:	2e 45       	mov	@r5,	r14	
    f006:	c1 93 2e 00 	tst.b	46(r1)		;0x002e(r1)
    f00a:	07 24       	jz	$+16     	;abs 0xf01a
    f00c:	e1 d2 01 00 	bis.b	#4,	1(r1)	;r2 As==10, 0x0001(r1)
    f010:	1f 41 26 00 	mov	38(r1),	r15	;0x0026(r1)
    f014:	c1 4f 03 00 	mov.b	r15,	3(r1)	;0x0003(r1)
    f018:	06 3c       	jmp	$+14     	;abs 0xf026
    f01a:	c1 93 2a 00 	tst.b	42(r1)		;0x002a(r1)
    f01e:	03 24       	jz	$+8      	;abs 0xf026
    f020:	91 41 26 00 30 00 	mov	38(r1),	48(r1)	;0x0026(r1), 0x0030(r1)
    f026:	0e 93       	tst	r14		
    f028:	02 20       	jnz	$+6      	;abs 0xf02e
    f02a:	3e 40 e2 f8 	mov	#-1822,	r14	;#0xf8e2
    f02e:	11 12 04 00 	push	4(r1)		;0x0004(r1)
    f032:	11 12 04 00 	push	4(r1)		;0x0004(r1)
    f036:	1d 41 34 00 	mov	52(r1),	r13	;0x0034(r1)
    f03a:	1f 41 3e 00 	mov	62(r1),	r15	;0x003e(r1)
    f03e:	b0 12 24 ec 	call	#0xec24	
    f042:	21 52       	add	#4,	r1	;r2 As==10
    f044:	81 5f 2c 00 	add	r15,	44(r1)	;0x002c(r1)
    f048:	05 47       	mov	r7,	r5	
    f04a:	30 40 12 f4 	br	#0xf412	
    f04e:	07 45       	mov	r5,	r7	
    f050:	27 53       	incd	r7		
    f052:	29 45       	mov	@r5,	r9	
    f054:	81 49 1e 00 	mov	r9,	30(r1)	;0x001e(r1)
    f058:	5e 43       	mov.b	#1,	r14	;r3 As==01
    f05a:	09 93       	tst	r9		
    f05c:	01 20       	jnz	$+4      	;abs 0xf060
    f05e:	4e 43       	clr.b	r14		
    f060:	4e 5e       	rla.b	r14		
    f062:	4e 5e       	rla.b	r14		
    f064:	4e 5e       	rla.b	r14		
    f066:	6a 41       	mov.b	@r1,	r10	
    f068:	7a f0 f7 ff 	and.b	#-9,	r10	;#0xfff7
    f06c:	4a de       	bis.b	r14,	r10	
    f06e:	c1 4a 00 00 	mov.b	r10,	0(r1)	;0x0000(r1)
    f072:	05 47       	mov	r7,	r5	
    f074:	b1 40 10 00 28 00 	mov	#16,	40(r1)	;#0x0010, 0x0028(r1)
    f07a:	53 3c       	jmp	$+168    	;abs 0xf122
    f07c:	d1 d3 01 00 	bis.b	#1,	1(r1)	;r3 As==01, 0x0001(r1)
    f080:	06 3c       	jmp	$+14     	;abs 0xf08e
    f082:	e1 d2 00 00 	bis.b	#4,	0(r1)	;r2 As==10, 0x0000(r1)
    f086:	b1 40 0a 00 28 00 	mov	#10,	40(r1)	;#0x000a, 0x0028(r1)
    f08c:	03 3c       	jmp	$+8      	;abs 0xf094
    f08e:	b1 40 10 00 28 00 	mov	#16,	40(r1)	;#0x0010, 0x0028(r1)
    f094:	6b 41       	mov.b	@r1,	r11	
    f096:	6b b3       	bit.b	#2,	r11	;r3 As==10
    f098:	24 24       	jz	$+74     	;abs 0xf0e2
    f09a:	0c 45       	mov	r5,	r12	
    f09c:	3c 52       	add	#8,	r12	;r2 As==11
    f09e:	28 45       	mov	@r5,	r8	
    f0a0:	17 45 02 00 	mov	2(r5),	r7	;0x0002(r5)
    f0a4:	16 45 04 00 	mov	4(r5),	r6	;0x0004(r5)
    f0a8:	1b 45 06 00 	mov	6(r5),	r11	;0x0006(r5)
    f0ac:	81 48 1e 00 	mov	r8,	30(r1)	;0x001e(r1)
    f0b0:	81 47 20 00 	mov	r7,	32(r1)	;0x0020(r1)
    f0b4:	81 46 22 00 	mov	r6,	34(r1)	;0x0022(r1)
    f0b8:	81 4b 24 00 	mov	r11,	36(r1)	;0x0024(r1)
    f0bc:	d1 43 2b 00 	mov.b	#1,	43(r1)	;r3 As==01, 0x002b(r1)
    f0c0:	08 93       	tst	r8		
    f0c2:	06 20       	jnz	$+14     	;abs 0xf0d0
    f0c4:	07 93       	tst	r7		
    f0c6:	04 20       	jnz	$+10     	;abs 0xf0d0
    f0c8:	06 93       	tst	r6		
    f0ca:	02 20       	jnz	$+6      	;abs 0xf0d0
    f0cc:	0b 93       	tst	r11		
    f0ce:	02 24       	jz	$+6      	;abs 0xf0d4
    f0d0:	c1 43 2b 00 	mov.b	#0,	43(r1)	;r3 As==00, 0x002b(r1)
    f0d4:	0b 5b       	rla	r11		
    f0d6:	0b 43       	clr	r11		
    f0d8:	0b 6b       	rlc	r11		
    f0da:	c1 4b 2f 00 	mov.b	r11,	47(r1)	;0x002f(r1)
    f0de:	05 4c       	mov	r12,	r5	
    f0e0:	20 3c       	jmp	$+66     	;abs 0xf122
    f0e2:	5b f3       	and.b	#1,	r11	;r3 As==01
    f0e4:	07 45       	mov	r5,	r7	
    f0e6:	0d 24       	jz	$+28     	;abs 0xf102
    f0e8:	27 52       	add	#4,	r7	;r2 As==10
    f0ea:	28 45       	mov	@r5,	r8	
    f0ec:	1b 45 02 00 	mov	2(r5),	r11	;0x0002(r5)
    f0f0:	81 48 1e 00 	mov	r8,	30(r1)	;0x001e(r1)
    f0f4:	81 4b 20 00 	mov	r11,	32(r1)	;0x0020(r1)
    f0f8:	d1 43 2b 00 	mov.b	#1,	43(r1)	;r3 As==01, 0x002b(r1)
    f0fc:	08 93       	tst	r8		
    f0fe:	09 20       	jnz	$+20     	;abs 0xf112
    f100:	06 3c       	jmp	$+14     	;abs 0xf10e
    f102:	27 53       	incd	r7		
    f104:	2b 45       	mov	@r5,	r11	
    f106:	81 4b 1e 00 	mov	r11,	30(r1)	;0x001e(r1)
    f10a:	d1 43 2b 00 	mov.b	#1,	43(r1)	;r3 As==01, 0x002b(r1)
    f10e:	0b 93       	tst	r11		
    f110:	02 24       	jz	$+6      	;abs 0xf116
    f112:	c1 43 2b 00 	mov.b	#0,	43(r1)	;r3 As==00, 0x002b(r1)
    f116:	0b 5b       	rla	r11		
    f118:	0b 43       	clr	r11		
    f11a:	0b 6b       	rlc	r11		
    f11c:	c1 4b 2f 00 	mov.b	r11,	47(r1)	;0x002f(r1)
    f120:	05 47       	mov	r7,	r5	
    f122:	f1 b2 00 00 	bit.b	#8,	0(r1)	;r2 As==11, 0x0000(r1)
    f126:	12 24       	jz	$+38     	;abs 0xf14c
    f128:	c1 93 2b 00 	tst.b	43(r1)		;0x002b(r1)
    f12c:	0f 20       	jnz	$+32     	;abs 0xf14c
    f12e:	68 41       	mov.b	@r1,	r8	
    f130:	b1 90 10 00 28 00 	cmp	#16,	40(r1)	;#0x0010, 0x0028(r1)
    f136:	03 20       	jnz	$+8      	;abs 0xf13e
    f138:	78 d0 40 00 	bis.b	#64,	r8	;#0x0040
    f13c:	05 3c       	jmp	$+12     	;abs 0xf148
    f13e:	b1 92 28 00 	cmp	#8,	40(r1)	;r2 As==11, 0x0028(r1)
    f142:	04 20       	jnz	$+10     	;abs 0xf14c
    f144:	78 d0 20 00 	bis.b	#32,	r8	;#0x0020
    f148:	c1 48 00 00 	mov.b	r8,	0(r1)	;0x0000(r1)
    f14c:	68 41       	mov.b	@r1,	r8	
    f14e:	68 b2       	bit.b	#4,	r8	;r2 As==10
    f150:	30 24       	jz	$+98     	;abs 0xf1b2
    f152:	c1 93 2f 00 	tst.b	47(r1)		;0x002f(r1)
    f156:	2d 24       	jz	$+92     	;abs 0xf1b2
    f158:	f1 40 2d 00 02 00 	mov.b	#45,	2(r1)	;#0x002d, 0x0002(r1)
    f15e:	68 b3       	bit.b	#2,	r8	;r3 As==10
    f160:	11 24       	jz	$+36     	;abs 0xf184
    f162:	b1 e3 1e 00 	xor	#-1,	30(r1)	;r3 As==11, 0x001e(r1)
    f166:	b1 e3 20 00 	xor	#-1,	32(r1)	;r3 As==11, 0x0020(r1)
    f16a:	b1 e3 22 00 	xor	#-1,	34(r1)	;r3 As==11, 0x0022(r1)
    f16e:	b1 e3 24 00 	xor	#-1,	36(r1)	;r3 As==11, 0x0024(r1)
    f172:	91 53 1e 00 	inc	30(r1)		;0x001e(r1)
    f176:	81 63 20 00 	adc	32(r1)		;0x0020(r1)
    f17a:	81 63 22 00 	adc	34(r1)		;0x0022(r1)
    f17e:	81 63 24 00 	adc	36(r1)		;0x0024(r1)
    f182:	17 3c       	jmp	$+48     	;abs 0xf1b2
    f184:	58 b3       	bit.b	#1,	r8	;r3 As==01
    f186:	0f 24       	jz	$+32     	;abs 0xf1a6
    f188:	1a 41 1e 00 	mov	30(r1),	r10	;0x001e(r1)
    f18c:	1b 41 20 00 	mov	32(r1),	r11	;0x0020(r1)
    f190:	3a e3       	inv	r10		
    f192:	3b e3       	inv	r11		
    f194:	0e 4a       	mov	r10,	r14	
    f196:	0f 4b       	mov	r11,	r15	
    f198:	1e 53       	inc	r14		
    f19a:	0f 63       	adc	r15		
    f19c:	81 4e 1e 00 	mov	r14,	30(r1)	;0x001e(r1)
    f1a0:	81 4f 20 00 	mov	r15,	32(r1)	;0x0020(r1)
    f1a4:	06 3c       	jmp	$+14     	;abs 0xf1b2
    f1a6:	1a 41 1e 00 	mov	30(r1),	r10	;0x001e(r1)
    f1aa:	3a e3       	inv	r10		
    f1ac:	1a 53       	inc	r10		
    f1ae:	81 4a 1e 00 	mov	r10,	30(r1)	;0x001e(r1)
    f1b2:	c1 43 1b 00 	mov.b	#0,	27(r1)	;r3 As==00, 0x001b(r1)
    f1b6:	68 b3       	bit.b	#2,	r8	;r3 As==10
    f1b8:	6a 24       	jz	$+214    	;abs 0xf28e
    f1ba:	16 41 1e 00 	mov	30(r1),	r6	;0x001e(r1)
    f1be:	91 41 20 00 3c 00 	mov	32(r1),	60(r1)	;0x0020(r1), 0x003c(r1)
    f1c4:	18 41 22 00 	mov	34(r1),	r8	;0x0022(r1)
    f1c8:	14 41 24 00 	mov	36(r1),	r4	;0x0024(r1)
    f1cc:	07 41       	mov	r1,	r7	
    f1ce:	37 50 1a 00 	add	#26,	r7	;#0x001a
    f1d2:	09 46       	mov	r6,	r9	
    f1d4:	91 41 28 00 32 00 	mov	40(r1),	50(r1)	;0x0028(r1), 0x0032(r1)
    f1da:	1b 41 28 00 	mov	40(r1),	r11	;0x0028(r1)
    f1de:	8b 10       	swpb	r11		
    f1e0:	8b 11       	sxt	r11		
    f1e2:	8b 10       	swpb	r11		
    f1e4:	8b 11       	sxt	r11		
    f1e6:	81 4b 34 00 	mov	r11,	52(r1)	;0x0034(r1)
    f1ea:	81 4b 36 00 	mov	r11,	54(r1)	;0x0036(r1)
    f1ee:	81 4b 38 00 	mov	r11,	56(r1)	;0x0038(r1)
    f1f2:	11 12 3a 00 	push	58(r1)		;0x003a(r1)
    f1f6:	11 12 3a 00 	push	58(r1)		;0x003a(r1)
    f1fa:	11 12 3a 00 	push	58(r1)		;0x003a(r1)
    f1fe:	11 12 3a 00 	push	58(r1)		;0x003a(r1)
    f202:	0c 49       	mov	r9,	r12	
    f204:	1d 41 44 00 	mov	68(r1),	r13	;0x0044(r1)
    f208:	0e 48       	mov	r8,	r14	
    f20a:	0f 44       	mov	r4,	r15	
    f20c:	b0 12 5e f5 	call	#0xf55e	
    f210:	31 52       	add	#8,	r1	;r2 As==11
    f212:	0b 4c       	mov	r12,	r11	
    f214:	3c 90 0a 00 	cmp	#10,	r12	;#0x000a
    f218:	05 34       	jge	$+12     	;abs 0xf224
    f21a:	7b 50 30 00 	add.b	#48,	r11	;#0x0030
    f21e:	c7 4b 00 00 	mov.b	r11,	0(r7)	;0x0000(r7)
    f222:	0c 3c       	jmp	$+26     	;abs 0xf23c
    f224:	4b 4c       	mov.b	r12,	r11	
    f226:	d1 b3 01 00 	bit.b	#1,	1(r1)	;r3 As==01, 0x0001(r1)
    f22a:	03 24       	jz	$+8      	;abs 0xf232
    f22c:	7a 40 37 00 	mov.b	#55,	r10	;#0x0037
    f230:	02 3c       	jmp	$+6      	;abs 0xf236
    f232:	7a 40 57 00 	mov.b	#87,	r10	;#0x0057
    f236:	4a 5b       	add.b	r11,	r10	
    f238:	c7 4a 00 00 	mov.b	r10,	0(r7)	;0x0000(r7)
    f23c:	06 47       	mov	r7,	r6	
    f23e:	36 53       	add	#-1,	r6	;r3 As==11
    f240:	11 12 3a 00 	push	58(r1)		;0x003a(r1)
    f244:	11 12 3a 00 	push	58(r1)		;0x003a(r1)
    f248:	11 12 3a 00 	push	58(r1)		;0x003a(r1)
    f24c:	11 12 3a 00 	push	58(r1)		;0x003a(r1)
    f250:	0c 49       	mov	r9,	r12	
    f252:	1d 41 44 00 	mov	68(r1),	r13	;0x0044(r1)
    f256:	0e 48       	mov	r8,	r14	
    f258:	0f 44       	mov	r4,	r15	
    f25a:	b0 12 38 f5 	call	#0xf538	
    f25e:	31 52       	add	#8,	r1	;r2 As==11
    f260:	09 4c       	mov	r12,	r9	
    f262:	81 4d 3c 00 	mov	r13,	60(r1)	;0x003c(r1)
    f266:	08 4e       	mov	r14,	r8	
    f268:	04 4f       	mov	r15,	r4	
    f26a:	37 53       	add	#-1,	r7	;r3 As==11
    f26c:	0c 93       	tst	r12		
    f26e:	b2 23       	jnz	$-154    	;abs 0xf1d4
    f270:	0d 93       	tst	r13		
    f272:	b0 23       	jnz	$-158    	;abs 0xf1d4
    f274:	0e 93       	tst	r14		
    f276:	ae 23       	jnz	$-162    	;abs 0xf1d4
    f278:	0f 93       	tst	r15		
    f27a:	ac 23       	jnz	$-166    	;abs 0xf1d4
    f27c:	81 43 1e 00 	mov	#0,	30(r1)	;r3 As==00, 0x001e(r1)
    f280:	81 43 20 00 	mov	#0,	32(r1)	;r3 As==00, 0x0020(r1)
    f284:	81 43 22 00 	mov	#0,	34(r1)	;r3 As==00, 0x0022(r1)
    f288:	81 43 24 00 	mov	#0,	36(r1)	;r3 As==00, 0x0024(r1)
    f28c:	6c 3c       	jmp	$+218    	;abs 0xf366
    f28e:	58 b3       	bit.b	#1,	r8	;r3 As==01
    f290:	3e 24       	jz	$+126    	;abs 0xf30e
    f292:	14 41 1e 00 	mov	30(r1),	r4	;0x001e(r1)
    f296:	17 41 20 00 	mov	32(r1),	r7	;0x0020(r1)
    f29a:	08 41       	mov	r1,	r8	
    f29c:	38 50 1a 00 	add	#26,	r8	;#0x001a
    f2a0:	19 41 28 00 	mov	40(r1),	r9	;0x0028(r1)
    f2a4:	89 10       	swpb	r9		
    f2a6:	89 11       	sxt	r9		
    f2a8:	89 10       	swpb	r9		
    f2aa:	89 11       	sxt	r9		
    f2ac:	1c 41 28 00 	mov	40(r1),	r12	;0x0028(r1)
    f2b0:	0d 49       	mov	r9,	r13	
    f2b2:	0e 44       	mov	r4,	r14	
    f2b4:	0f 47       	mov	r7,	r15	
    f2b6:	b0 12 fa e7 	call	#0xe7fa	
    f2ba:	0b 4e       	mov	r14,	r11	
    f2bc:	3e 90 0a 00 	cmp	#10,	r14	;#0x000a
    f2c0:	05 34       	jge	$+12     	;abs 0xf2cc
    f2c2:	7b 50 30 00 	add.b	#48,	r11	;#0x0030
    f2c6:	c8 4b 00 00 	mov.b	r11,	0(r8)	;0x0000(r8)
    f2ca:	0c 3c       	jmp	$+26     	;abs 0xf2e4
    f2cc:	4b 4e       	mov.b	r14,	r11	
    f2ce:	d1 b3 01 00 	bit.b	#1,	1(r1)	;r3 As==01, 0x0001(r1)
    f2d2:	03 24       	jz	$+8      	;abs 0xf2da
    f2d4:	7a 40 37 00 	mov.b	#55,	r10	;#0x0037
    f2d8:	02 3c       	jmp	$+6      	;abs 0xf2de
    f2da:	7a 40 57 00 	mov.b	#87,	r10	;#0x0057
    f2de:	4a 5b       	add.b	r11,	r10	
    f2e0:	c8 4a 00 00 	mov.b	r10,	0(r8)	;0x0000(r8)
    f2e4:	06 48       	mov	r8,	r6	
    f2e6:	36 53       	add	#-1,	r6	;r3 As==11
    f2e8:	1c 41 28 00 	mov	40(r1),	r12	;0x0028(r1)
    f2ec:	0d 49       	mov	r9,	r13	
    f2ee:	0e 44       	mov	r4,	r14	
    f2f0:	0f 47       	mov	r7,	r15	
    f2f2:	b0 12 c4 e7 	call	#0xe7c4	
    f2f6:	04 4e       	mov	r14,	r4	
    f2f8:	07 4f       	mov	r15,	r7	
    f2fa:	38 53       	add	#-1,	r8	;r3 As==11
    f2fc:	0e 93       	tst	r14		
    f2fe:	d0 23       	jnz	$-94     	;abs 0xf2a0
    f300:	0f 93       	tst	r15		
    f302:	ce 23       	jnz	$-98     	;abs 0xf2a0
    f304:	81 43 1e 00 	mov	#0,	30(r1)	;r3 As==00, 0x001e(r1)
    f308:	81 43 20 00 	mov	#0,	32(r1)	;r3 As==00, 0x0020(r1)
    f30c:	2c 3c       	jmp	$+90     	;abs 0xf366
    f30e:	17 41 1e 00 	mov	30(r1),	r7	;0x001e(r1)
    f312:	08 41       	mov	r1,	r8	
    f314:	38 50 1a 00 	add	#26,	r8	;#0x001a
    f318:	1e 41 28 00 	mov	40(r1),	r14	;0x0028(r1)
    f31c:	0f 47       	mov	r7,	r15	
    f31e:	b0 12 82 e7 	call	#0xe782	
    f322:	0d 4f       	mov	r15,	r13	
    f324:	3f 90 0a 00 	cmp	#10,	r15	;#0x000a
    f328:	05 34       	jge	$+12     	;abs 0xf334
    f32a:	7d 50 30 00 	add.b	#48,	r13	;#0x0030
    f32e:	c8 4d 00 00 	mov.b	r13,	0(r8)	;0x0000(r8)
    f332:	0c 3c       	jmp	$+26     	;abs 0xf34c
    f334:	4d 4f       	mov.b	r15,	r13	
    f336:	d1 b3 01 00 	bit.b	#1,	1(r1)	;r3 As==01, 0x0001(r1)
    f33a:	03 24       	jz	$+8      	;abs 0xf342
    f33c:	7c 40 37 00 	mov.b	#55,	r12	;#0x0037
    f340:	02 3c       	jmp	$+6      	;abs 0xf346
    f342:	7c 40 57 00 	mov.b	#87,	r12	;#0x0057
    f346:	4c 5d       	add.b	r13,	r12	
    f348:	c8 4c 00 00 	mov.b	r12,	0(r8)	;0x0000(r8)
    f34c:	06 48       	mov	r8,	r6	
    f34e:	36 53       	add	#-1,	r6	;r3 As==11
    f350:	1e 41 28 00 	mov	40(r1),	r14	;0x0028(r1)
    f354:	0f 47       	mov	r7,	r15	
    f356:	b0 12 68 e7 	call	#0xe768	
    f35a:	07 4f       	mov	r15,	r7	
    f35c:	38 53       	add	#-1,	r8	;r3 As==11
    f35e:	0f 93       	tst	r15		
    f360:	db 23       	jnz	$-72     	;abs 0xf318
    f362:	81 43 1e 00 	mov	#0,	30(r1)	;r3 As==00, 0x001e(r1)
    f366:	b1 90 0a 00 28 00 	cmp	#10,	40(r1)	;#0x000a, 0x0028(r1)
    f36c:	02 24       	jz	$+6      	;abs 0xf372
    f36e:	c1 43 02 00 	mov.b	#0,	2(r1)	;r3 As==00, 0x0002(r1)
    f372:	c1 93 2e 00 	tst.b	46(r1)		;0x002e(r1)
    f376:	2a 24       	jz	$+86     	;abs 0xf3cc
    f378:	0f 41       	mov	r1,	r15	
    f37a:	3f 50 1c 00 	add	#28,	r15	;#0x001c
    f37e:	81 4f 42 00 	mov	r15,	66(r1)	;0x0042(r1)
    f382:	1a 41 1c 00 	mov	28(r1),	r10	;0x001c(r1)
    f386:	8a 10       	swpb	r10		
    f388:	8a 11       	sxt	r10		
    f38a:	8a 10       	swpb	r10		
    f38c:	8a 11       	sxt	r10		
    f38e:	81 4a 44 00 	mov	r10,	68(r1)	;0x0044(r1)
    f392:	81 46 46 00 	mov	r6,	70(r1)	;0x0046(r1)
    f396:	0a 46       	mov	r6,	r10	
    f398:	8a 10       	swpb	r10		
    f39a:	8a 11       	sxt	r10		
    f39c:	8a 10       	swpb	r10		
    f39e:	8a 11       	sxt	r10		
    f3a0:	81 4a 48 00 	mov	r10,	72(r1)	;0x0048(r1)
    f3a4:	1c 41 42 00 	mov	66(r1),	r12	;0x0042(r1)
    f3a8:	1d 41 44 00 	mov	68(r1),	r13	;0x0044(r1)
    f3ac:	1c 81 46 00 	sub	70(r1),	r12	;0x0046(r1)
    f3b0:	1d 71 48 00 	subc	72(r1),	r13	;0x0048(r1)
    f3b4:	2c 83       	decd	r12		
    f3b6:	1c 91 26 00 	cmp	38(r1),	r12	;0x0026(r1)
    f3ba:	0e 2c       	jc	$+30     	;abs 0xf3d8
    f3bc:	e1 d3 01 00 	bis.b	#2,	1(r1)	;r3 As==10, 0x0001(r1)
    f3c0:	5e 41 26 00 	mov.b	38(r1),	r14	;0x0026(r1)
    f3c4:	4e 8c       	sub.b	r12,	r14	
    f3c6:	c1 4e 03 00 	mov.b	r14,	3(r1)	;0x0003(r1)
    f3ca:	06 3c       	jmp	$+14     	;abs 0xf3d8
    f3cc:	c1 93 2a 00 	tst.b	42(r1)		;0x002a(r1)
    f3d0:	03 24       	jz	$+8      	;abs 0xf3d8
    f3d2:	91 41 26 00 30 00 	mov	38(r1),	48(r1)	;0x0026(r1), 0x0030(r1)
    f3d8:	11 12 04 00 	push	4(r1)		;0x0004(r1)
    f3dc:	11 12 04 00 	push	4(r1)		;0x0004(r1)
    f3e0:	1d 41 34 00 	mov	52(r1),	r13	;0x0034(r1)
    f3e4:	0e 46       	mov	r6,	r14	
    f3e6:	1e 53       	inc	r14		
    f3e8:	1f 41 3e 00 	mov	62(r1),	r15	;0x003e(r1)
    f3ec:	b0 12 24 ec 	call	#0xec24	
    f3f0:	21 52       	add	#4,	r1	;r2 As==10
    f3f2:	81 5f 2c 00 	add	r15,	44(r1)	;0x002c(r1)
    f3f6:	0d 3c       	jmp	$+28     	;abs 0xf412
    f3f8:	7f 49       	mov.b	@r9+,	r15	
    f3fa:	8f 11       	sxt	r15		
    f3fc:	91 12 3c 00 	call	60(r1)		;0x003c(r1)
    f400:	0e 49       	mov	r9,	r14	
    f402:	0e 58       	add	r8,	r14	
    f404:	19 91 40 00 	cmp	64(r1),	r9	;0x0040(r1)
    f408:	f7 2b       	jnc	$-16     	;abs 0xf3f8
    f40a:	81 49 3e 00 	mov	r9,	62(r1)	;0x003e(r1)
    f40e:	81 4e 2c 00 	mov	r14,	44(r1)	;0x002c(r1)
    f412:	07 43       	clr	r7		
    f414:	0e 3c       	jmp	$+30     	;abs 0xf432
    f416:	91 41 26 00 30 00 	mov	38(r1),	48(r1)	;0x0026(r1), 0x0030(r1)
    f41c:	d1 43 2e 00 	mov.b	#1,	46(r1)	;r3 As==01, 0x002e(r1)
    f420:	c1 43 2a 00 	mov.b	#0,	42(r1)	;r3 As==00, 0x002a(r1)
    f424:	03 3c       	jmp	$+8      	;abs 0xf42c
    f426:	05 4e       	mov	r14,	r5	
    f428:	d1 43 2a 00 	mov.b	#1,	42(r1)	;r3 As==01, 0x002a(r1)
    f42c:	81 43 26 00 	mov	#0,	38(r1)	;r3 As==00, 0x0026(r1)
    f430:	17 43       	mov	#1,	r7	;r3 As==01
    f432:	16 41 40 00 	mov	64(r1),	r6	;0x0040(r1)
    f436:	6e 46       	mov.b	@r6,	r14	
    f438:	4e 93       	tst.b	r14		
    f43a:	02 24       	jz	$+6      	;abs 0xf440
    f43c:	30 40 08 ee 	br	#0xee08	
    f440:	1f 41 2c 00 	mov	44(r1),	r15	;0x002c(r1)
    f444:	31 50 4a 00 	add	#74,	r1	;#0x004a
    f448:	34 41       	pop	r4		
    f44a:	35 41       	pop	r5		
    f44c:	36 41       	pop	r6		
    f44e:	37 41       	pop	r7		
    f450:	38 41       	pop	r8		
    f452:	39 41       	pop	r9		
    f454:	3a 41       	pop	r10		
    f456:	3b 41       	pop	r11		
    f458:	30 41       	ret			

0000f45a <rand_r>:
    f45a:	0b 12       	push	r11		
    f45c:	0b 4f       	mov	r15,	r11	
    f45e:	3c 40 6d 4e 	mov	#20077,	r12	;#0x4e6d
    f462:	3d 40 c6 41 	mov	#16838,	r13	;#0x41c6
    f466:	2e 4f       	mov	@r15,	r14	
    f468:	0f 43       	clr	r15		
    f46a:	b0 12 ae f4 	call	#0xf4ae	
    f46e:	3e 50 39 30 	add	#12345,	r14	;#0x3039
    f472:	0f 63       	adc	r15		
    f474:	8b 4e 00 00 	mov	r14,	0(r11)	;0x0000(r11)
    f478:	0f 4e       	mov	r14,	r15	
    f47a:	3b 41       	pop	r11		
    f47c:	30 41       	ret			

0000f47e <rand>:
    f47e:	3c 40 6d 4e 	mov	#20077,	r12	;#0x4e6d
    f482:	3d 40 c6 41 	mov	#16838,	r13	;#0x41c6
    f486:	1e 42 a6 11 	mov	&0x11a6,r14	
    f48a:	1f 42 a8 11 	mov	&0x11a8,r15	
    f48e:	b0 12 ae f4 	call	#0xf4ae	
    f492:	3e 50 39 30 	add	#12345,	r14	;#0x3039
    f496:	0f 63       	adc	r15		
    f498:	82 4e a6 11 	mov	r14,	&0x11a6	
    f49c:	82 4f a8 11 	mov	r15,	&0x11a8	
    f4a0:	0f 4e       	mov	r14,	r15	
    f4a2:	30 41       	ret			

0000f4a4 <srand>:
    f4a4:	82 4f a6 11 	mov	r15,	&0x11a6	
    f4a8:	82 43 a8 11 	mov	#0,	&0x11a8	;r3 As==00
    f4ac:	30 41       	ret			

0000f4ae <__mulsi3>:
    f4ae:	0b 12       	push	r11		
    f4b0:	0a 12       	push	r10		
    f4b2:	0b 43       	clr	r11		
    f4b4:	0a 43       	clr	r10		
    f4b6:	08 3c       	jmp	$+18     	;abs 0xf4c8
    f4b8:	12 c3       	clrc			
    f4ba:	0d 10       	rrc	r13		
    f4bc:	0c 10       	rrc	r12		
    f4be:	02 28       	jnc	$+6      	;abs 0xf4c4
    f4c0:	0a 5e       	add	r14,	r10	
    f4c2:	0b 6f       	addc	r15,	r11	
    f4c4:	0e 5e       	rla	r14		
    f4c6:	0f 6f       	rlc	r15		
    f4c8:	0c 93       	tst	r12		
    f4ca:	f6 23       	jnz	$-18     	;abs 0xf4b8
    f4cc:	0d 93       	tst	r13		
    f4ce:	f4 23       	jnz	$-22     	;abs 0xf4b8
    f4d0:	0e 4a       	mov	r10,	r14	
    f4d2:	0f 4b       	mov	r11,	r15	
    f4d4:	3a 41       	pop	r10		
    f4d6:	3b 41       	pop	r11		
    f4d8:	30 41       	ret			

0000f4da <__xabi_udivmod64>:
    f4da:	07 12       	push	r7		
    f4dc:	06 12       	push	r6		
    f4de:	05 12       	push	r5		
    f4e0:	04 12       	push	r4		
    f4e2:	30 12 40 00 	push	#64		;#0x0040
    f4e6:	04 48       	mov	r8,	r4	
    f4e8:	05 49       	mov	r9,	r5	
    f4ea:	06 4a       	mov	r10,	r6	
    f4ec:	07 4b       	mov	r11,	r7	
    f4ee:	08 43       	clr	r8		
    f4f0:	09 43       	clr	r9		
    f4f2:	0a 43       	clr	r10		
    f4f4:	0b 43       	clr	r11		
    f4f6:	0c 5c       	rla	r12		
    f4f8:	0d 6d       	rlc	r13		
    f4fa:	0e 6e       	rlc	r14		
    f4fc:	0f 6f       	rlc	r15		
    f4fe:	08 68       	rlc	r8		
    f500:	09 69       	rlc	r9		
    f502:	0a 6a       	rlc	r10		
    f504:	0b 6b       	rlc	r11		
    f506:	0b 97       	cmp	r7,	r11	
    f508:	0e 28       	jnc	$+30     	;abs 0xf526
    f50a:	08 20       	jnz	$+18     	;abs 0xf51c
    f50c:	0a 96       	cmp	r6,	r10	
    f50e:	0b 28       	jnc	$+24     	;abs 0xf526
    f510:	05 20       	jnz	$+12     	;abs 0xf51c
    f512:	09 95       	cmp	r5,	r9	
    f514:	08 28       	jnc	$+18     	;abs 0xf526
    f516:	02 20       	jnz	$+6      	;abs 0xf51c
    f518:	08 94       	cmp	r4,	r8	
    f51a:	05 28       	jnc	$+12     	;abs 0xf526
    f51c:	08 84       	sub	r4,	r8	
    f51e:	09 75       	subc	r5,	r9	
    f520:	0a 76       	subc	r6,	r10	
    f522:	0b 77       	subc	r7,	r11	
    f524:	1c d3       	bis	#1,	r12	;r3 As==01
    f526:	91 83 00 00 	dec	0(r1)		;0x0000(r1)
    f52a:	e5 23       	jnz	$-52     	;abs 0xf4f6
    f52c:	21 53       	incd	r1		
    f52e:	34 41       	pop	r4		
    f530:	35 41       	pop	r5		
    f532:	36 41       	pop	r6		
    f534:	37 41       	pop	r7		
    f536:	30 41       	ret			

0000f538 <__udivdi3>:
    f538:	0b 12       	push	r11		
    f53a:	0a 12       	push	r10		
    f53c:	09 12       	push	r9		
    f53e:	08 12       	push	r8		
    f540:	18 41 0a 00 	mov	10(r1),	r8	;0x000a(r1)
    f544:	19 41 0c 00 	mov	12(r1),	r9	;0x000c(r1)
    f548:	1a 41 0e 00 	mov	14(r1),	r10	;0x000e(r1)
    f54c:	1b 41 10 00 	mov	16(r1),	r11	;0x0010(r1)
    f550:	b0 12 da f4 	call	#0xf4da	
    f554:	38 41       	pop	r8		
    f556:	39 41       	pop	r9		
    f558:	3a 41       	pop	r10		
    f55a:	3b 41       	pop	r11		
    f55c:	30 41       	ret			

0000f55e <__umoddi3>:
    f55e:	0b 12       	push	r11		
    f560:	0a 12       	push	r10		
    f562:	09 12       	push	r9		
    f564:	08 12       	push	r8		
    f566:	18 41 0a 00 	mov	10(r1),	r8	;0x000a(r1)
    f56a:	19 41 0c 00 	mov	12(r1),	r9	;0x000c(r1)
    f56e:	1a 41 0e 00 	mov	14(r1),	r10	;0x000e(r1)
    f572:	1b 41 10 00 	mov	16(r1),	r11	;0x0010(r1)
    f576:	b0 12 da f4 	call	#0xf4da	
    f57a:	0c 48       	mov	r8,	r12	
    f57c:	0d 49       	mov	r9,	r13	
    f57e:	0e 4a       	mov	r10,	r14	
    f580:	0f 4b       	mov	r11,	r15	
    f582:	38 41       	pop	r8		
    f584:	39 41       	pop	r9		
    f586:	3a 41       	pop	r10		
    f588:	3b 41       	pop	r11		
    f58a:	30 41       	ret			

0000f58c <__udivmoddi4>:
    f58c:	0b 12       	push	r11		
    f58e:	0a 12       	push	r10		
    f590:	09 12       	push	r9		
    f592:	08 12       	push	r8		
    f594:	07 12       	push	r7		
    f596:	18 41 0c 00 	mov	12(r1),	r8	;0x000c(r1)
    f59a:	19 41 0e 00 	mov	14(r1),	r9	;0x000e(r1)
    f59e:	1a 41 10 00 	mov	16(r1),	r10	;0x0010(r1)
    f5a2:	1b 41 12 00 	mov	18(r1),	r11	;0x0012(r1)
    f5a6:	b0 12 da f4 	call	#0xf4da	
    f5aa:	17 41 14 00 	mov	20(r1),	r7	;0x0014(r1)
    f5ae:	87 48 00 00 	mov	r8,	0(r7)	;0x0000(r7)
    f5b2:	87 49 02 00 	mov	r9,	2(r7)	;0x0002(r7)
    f5b6:	87 4a 04 00 	mov	r10,	4(r7)	;0x0004(r7)
    f5ba:	87 4b 06 00 	mov	r11,	6(r7)	;0x0006(r7)
    f5be:	37 41       	pop	r7		
    f5c0:	38 41       	pop	r8		
    f5c2:	39 41       	pop	r9		
    f5c4:	3a 41       	pop	r10		
    f5c6:	3b 41       	pop	r11		
    f5c8:	30 41       	ret			

0000f5ca <_unexpected_>:
    f5ca:	00 13       	reti			

Disassembly of section .vectors:

0000ffe0 <__ivtbl_16>:
    ffe0:	92 47 d4 c8 92 47 92 47 e0 c7 76 c7 58 c7 e2 c9     .G...G.G..v.X...
    fff0:	c0 c9 82 c9 92 47 92 47 ba c7 9c c7 92 47 00 40     .....G.G.....G.@
